
main.out:     file format elf32-littlearm


Disassembly of section .text:

0800010c <printf_putchar>:
 800010c:	b500      	push	{lr}
 800010e:	b081      	sub	sp, #4
 8000110:	4603      	mov	r3, r0
 8000112:	f88d 3000 	strb.w	r3, [sp]
 8000116:	4b11      	ldr	r3, [pc, #68]	(800015c <printf_putchar+0x50>)
 8000118:	8819      	ldrh	r1, [r3, #0]
 800011a:	4608      	mov	r0, r1
 800011c:	4a10      	ldr	r2, [pc, #64]	(8000160 <printf_putchar+0x54>)
 800011e:	f89d 3000 	ldrb.w	r3, [sp]
 8000122:	5413      	strb	r3, [r2, r0]
 8000124:	f101 0301 	add.w	r3, r1, #1	; 0x1
 8000128:	b29b      	uxth	r3, r3
 800012a:	4a0c      	ldr	r2, [pc, #48]	(800015c <printf_putchar+0x50>)
 800012c:	8013      	strh	r3, [r2, #0]
 800012e:	4b0b      	ldr	r3, [pc, #44]	(800015c <printf_putchar+0x50>)
 8000130:	881b      	ldrh	r3, [r3, #0]
 8000132:	2b80      	cmp	r3, #128
 8000134:	d10f      	bne.n	8000156 <printf_putchar+0x4a>
 8000136:	4b0b      	ldr	r3, [pc, #44]	(8000164 <printf_putchar+0x58>)
 8000138:	681b      	ldr	r3, [r3, #0]
 800013a:	2b00      	cmp	r3, #0
 800013c:	d007      	beq.n	800014e <printf_putchar+0x42>
 800013e:	4b09      	ldr	r3, [pc, #36]	(8000164 <printf_putchar+0x58>)
 8000140:	681a      	ldr	r2, [r3, #0]
 8000142:	4b06      	ldr	r3, [pc, #24]	(800015c <printf_putchar+0x50>)
 8000144:	881b      	ldrh	r3, [r3, #0]
 8000146:	b2db      	uxtb	r3, r3
 8000148:	4805      	ldr	r0, [pc, #20]	(8000160 <printf_putchar+0x54>)
 800014a:	4619      	mov	r1, r3
 800014c:	4790      	blx	r2
 800014e:	4b03      	ldr	r3, [pc, #12]	(800015c <printf_putchar+0x50>)
 8000150:	f04f 0200 	mov.w	r2, #0	; 0x0
 8000154:	801a      	strh	r2, [r3, #0]
 8000156:	b001      	add	sp, #4
 8000158:	bd00      	pop	{pc}
 800015a:	46c0      	nop			(mov r8, r8)
 800015c:	2000004c 	.word	0x2000004c
 8000160:	20000054 	.word	0x20000054
 8000164:	20000050 	.word	0x20000050

08000168 <printchar>:
 8000168:	b500      	push	{lr}
 800016a:	b082      	sub	sp, #8
 800016c:	9001      	str	r0, [sp, #4]
 800016e:	9100      	str	r1, [sp, #0]
 8000170:	9b01      	ldr	r3, [sp, #4]
 8000172:	2b00      	cmp	r3, #0
 8000174:	d00b      	beq.n	800018e <printchar+0x26>
 8000176:	9b01      	ldr	r3, [sp, #4]
 8000178:	681a      	ldr	r2, [r3, #0]
 800017a:	9b00      	ldr	r3, [sp, #0]
 800017c:	b2db      	uxtb	r3, r3
 800017e:	7013      	strb	r3, [r2, #0]
 8000180:	9b01      	ldr	r3, [sp, #4]
 8000182:	681b      	ldr	r3, [r3, #0]
 8000184:	f103 0201 	add.w	r2, r3, #1	; 0x1
 8000188:	9b01      	ldr	r3, [sp, #4]
 800018a:	601a      	str	r2, [r3, #0]
 800018c:	e004      	b.n	8000198 <printchar+0x30>
 800018e:	9b00      	ldr	r3, [sp, #0]
 8000190:	b2db      	uxtb	r3, r3
 8000192:	4618      	mov	r0, r3
 8000194:	f7ff ffba 	bl	800010c <printf_putchar>
 8000198:	b002      	add	sp, #8
 800019a:	bd00      	pop	{pc}

0800019c <prints>:
 800019c:	b500      	push	{lr}
 800019e:	b088      	sub	sp, #32
 80001a0:	9007      	str	r0, [sp, #28]
 80001a2:	9106      	str	r1, [sp, #24]
 80001a4:	9205      	str	r2, [sp, #20]
 80001a6:	9304      	str	r3, [sp, #16]
 80001a8:	f04f 0200 	mov.w	r2, #0	; 0x0
 80001ac:	9200      	str	r2, [sp, #0]
 80001ae:	f04f 0320 	mov.w	r3, #32	; 0x20
 80001b2:	9301      	str	r3, [sp, #4]
 80001b4:	9b05      	ldr	r3, [sp, #20]
 80001b6:	2b00      	cmp	r3, #0
 80001b8:	dd26      	ble.n	8000208 <prints+0x6c>
 80001ba:	f04f 0200 	mov.w	r2, #0	; 0x0
 80001be:	9202      	str	r2, [sp, #8]
 80001c0:	9b06      	ldr	r3, [sp, #24]
 80001c2:	9303      	str	r3, [sp, #12]
 80001c4:	e007      	b.n	80001d6 <prints+0x3a>
 80001c6:	9a02      	ldr	r2, [sp, #8]
 80001c8:	f102 0201 	add.w	r2, r2, #1	; 0x1
 80001cc:	9202      	str	r2, [sp, #8]
 80001ce:	9b03      	ldr	r3, [sp, #12]
 80001d0:	f103 0301 	add.w	r3, r3, #1	; 0x1
 80001d4:	9303      	str	r3, [sp, #12]
 80001d6:	9a03      	ldr	r2, [sp, #12]
 80001d8:	7813      	ldrb	r3, [r2, #0]
 80001da:	2b00      	cmp	r3, #0
 80001dc:	d1f3      	bne.n	80001c6 <prints+0x2a>
 80001de:	9b05      	ldr	r3, [sp, #20]
 80001e0:	9a02      	ldr	r2, [sp, #8]
 80001e2:	429a      	cmp	r2, r3
 80001e4:	db03      	blt.n	80001ee <prints+0x52>
 80001e6:	f04f 0300 	mov.w	r3, #0	; 0x0
 80001ea:	9305      	str	r3, [sp, #20]
 80001ec:	e004      	b.n	80001f8 <prints+0x5c>
 80001ee:	9b05      	ldr	r3, [sp, #20]
 80001f0:	9a02      	ldr	r2, [sp, #8]
 80001f2:	ebc2 0303 	rsb	r3, r2, r3
 80001f6:	9305      	str	r3, [sp, #20]
 80001f8:	9b04      	ldr	r3, [sp, #16]
 80001fa:	f003 0302 	and.w	r3, r3, #2	; 0x2
 80001fe:	2b00      	cmp	r3, #0
 8000200:	d002      	beq.n	8000208 <prints+0x6c>
 8000202:	f04f 0330 	mov.w	r3, #48	; 0x30
 8000206:	9301      	str	r3, [sp, #4]
 8000208:	9b04      	ldr	r3, [sp, #16]
 800020a:	f003 0301 	and.w	r3, r3, #1	; 0x1
 800020e:	2b00      	cmp	r3, #0
 8000210:	d11e      	bne.n	8000250 <prints+0xb4>
 8000212:	e00b      	b.n	800022c <prints+0x90>
 8000214:	9807      	ldr	r0, [sp, #28]
 8000216:	9901      	ldr	r1, [sp, #4]
 8000218:	f7ff ffa6 	bl	8000168 <printchar>
 800021c:	9a00      	ldr	r2, [sp, #0]
 800021e:	f102 0201 	add.w	r2, r2, #1	; 0x1
 8000222:	9200      	str	r2, [sp, #0]
 8000224:	9b05      	ldr	r3, [sp, #20]
 8000226:	f103 33ff 	add.w	r3, r3, #4294967295	; 0xffffffff
 800022a:	9305      	str	r3, [sp, #20]
 800022c:	9b05      	ldr	r3, [sp, #20]
 800022e:	2b00      	cmp	r3, #0
 8000230:	dcf0      	bgt.n	8000214 <prints+0x78>
 8000232:	e00d      	b.n	8000250 <prints+0xb4>
 8000234:	9b06      	ldr	r3, [sp, #24]
 8000236:	781b      	ldrb	r3, [r3, #0]
 8000238:	9807      	ldr	r0, [sp, #28]
 800023a:	4619      	mov	r1, r3
 800023c:	f7ff ff94 	bl	8000168 <printchar>
 8000240:	9b00      	ldr	r3, [sp, #0]
 8000242:	f103 0301 	add.w	r3, r3, #1	; 0x1
 8000246:	9300      	str	r3, [sp, #0]
 8000248:	9b06      	ldr	r3, [sp, #24]
 800024a:	f103 0301 	add.w	r3, r3, #1	; 0x1
 800024e:	9306      	str	r3, [sp, #24]
 8000250:	9b06      	ldr	r3, [sp, #24]
 8000252:	781b      	ldrb	r3, [r3, #0]
 8000254:	2b00      	cmp	r3, #0
 8000256:	d1ed      	bne.n	8000234 <prints+0x98>
 8000258:	e00b      	b.n	8000272 <prints+0xd6>
 800025a:	9807      	ldr	r0, [sp, #28]
 800025c:	9901      	ldr	r1, [sp, #4]
 800025e:	f7ff ff83 	bl	8000168 <printchar>
 8000262:	9a00      	ldr	r2, [sp, #0]
 8000264:	f102 0201 	add.w	r2, r2, #1	; 0x1
 8000268:	9200      	str	r2, [sp, #0]
 800026a:	9b05      	ldr	r3, [sp, #20]
 800026c:	f103 33ff 	add.w	r3, r3, #4294967295	; 0xffffffff
 8000270:	9305      	str	r3, [sp, #20]
 8000272:	9b05      	ldr	r3, [sp, #20]
 8000274:	2b00      	cmp	r3, #0
 8000276:	dcf0      	bgt.n	800025a <prints+0xbe>
 8000278:	9b00      	ldr	r3, [sp, #0]
 800027a:	4618      	mov	r0, r3
 800027c:	b008      	add	sp, #32
 800027e:	bd00      	pop	{pc}

08000280 <printi>:
 8000280:	b500      	push	{lr}
 8000282:	b08d      	sub	sp, #52
 8000284:	9009      	str	r0, [sp, #36]
 8000286:	9108      	str	r1, [sp, #32]
 8000288:	9207      	str	r2, [sp, #28]
 800028a:	9306      	str	r3, [sp, #24]
 800028c:	f04f 0100 	mov.w	r1, #0	; 0x0
 8000290:	9103      	str	r1, [sp, #12]
 8000292:	f04f 0200 	mov.w	r2, #0	; 0x0
 8000296:	9204      	str	r2, [sp, #16]
 8000298:	9b08      	ldr	r3, [sp, #32]
 800029a:	9305      	str	r3, [sp, #20]
 800029c:	9b08      	ldr	r3, [sp, #32]
 800029e:	2b00      	cmp	r3, #0
 80002a0:	d111      	bne.n	80002c6 <printi+0x46>
 80002a2:	f04f 0330 	mov.w	r3, #48	; 0x30
 80002a6:	f88d 3028 	strb.w	r3, [sp, #40]
 80002aa:	f04f 0300 	mov.w	r3, #0	; 0x0
 80002ae:	f88d 3029 	strb.w	r3, [sp, #41]
 80002b2:	ab0a      	add	r3, sp, #40
 80002b4:	9809      	ldr	r0, [sp, #36]
 80002b6:	4619      	mov	r1, r3
 80002b8:	9a0e      	ldr	r2, [sp, #56]
 80002ba:	9b0f      	ldr	r3, [sp, #60]
 80002bc:	f7ff ff6e 	bl	800019c <prints>
 80002c0:	4603      	mov	r3, r0
 80002c2:	9300      	str	r3, [sp, #0]
 80002c4:	e069      	b.n	800039a <printi+0x11a>
 80002c6:	9b06      	ldr	r3, [sp, #24]
 80002c8:	2b00      	cmp	r3, #0
 80002ca:	d00c      	beq.n	80002e6 <printi+0x66>
 80002cc:	9b07      	ldr	r3, [sp, #28]
 80002ce:	2b0a      	cmp	r3, #10
 80002d0:	d109      	bne.n	80002e6 <printi+0x66>
 80002d2:	9b08      	ldr	r3, [sp, #32]
 80002d4:	2b00      	cmp	r3, #0
 80002d6:	da06      	bge.n	80002e6 <printi+0x66>
 80002d8:	f04f 0101 	mov.w	r1, #1	; 0x1
 80002dc:	9103      	str	r1, [sp, #12]
 80002de:	9b08      	ldr	r3, [sp, #32]
 80002e0:	f1c3 0300 	rsb	r3, r3, #0	; 0x0
 80002e4:	9305      	str	r3, [sp, #20]
 80002e6:	ab0a      	add	r3, sp, #40
 80002e8:	f103 030b 	add.w	r3, r3, #11	; 0xb
 80002ec:	9301      	str	r3, [sp, #4]
 80002ee:	f04f 0300 	mov.w	r3, #0	; 0x0
 80002f2:	9a01      	ldr	r2, [sp, #4]
 80002f4:	7013      	strb	r3, [r2, #0]
 80002f6:	e022      	b.n	800033e <printi+0xbe>
 80002f8:	9a07      	ldr	r2, [sp, #28]
 80002fa:	9905      	ldr	r1, [sp, #20]
 80002fc:	fbb1 f3f2 	udiv	r3, r1, r2
 8000300:	fb02 f303 	mul.w	r3, r2, r3
 8000304:	9a05      	ldr	r2, [sp, #20]
 8000306:	ebc3 0302 	rsb	r3, r3, r2
 800030a:	9302      	str	r3, [sp, #8]
 800030c:	9b02      	ldr	r3, [sp, #8]
 800030e:	2b09      	cmp	r3, #9
 8000310:	dd05      	ble.n	800031e <printi+0x9e>
 8000312:	9b10      	ldr	r3, [sp, #64]
 8000314:	f1a3 033a 	sub.w	r3, r3, #58	; 0x3a
 8000318:	9902      	ldr	r1, [sp, #8]
 800031a:	4419      	add	r1, r3
 800031c:	9102      	str	r1, [sp, #8]
 800031e:	9a01      	ldr	r2, [sp, #4]
 8000320:	f102 32ff 	add.w	r2, r2, #4294967295	; 0xffffffff
 8000324:	9201      	str	r2, [sp, #4]
 8000326:	9902      	ldr	r1, [sp, #8]
 8000328:	b2cb      	uxtb	r3, r1
 800032a:	f103 0330 	add.w	r3, r3, #48	; 0x30
 800032e:	b2db      	uxtb	r3, r3
 8000330:	9a01      	ldr	r2, [sp, #4]
 8000332:	7013      	strb	r3, [r2, #0]
 8000334:	9b07      	ldr	r3, [sp, #28]
 8000336:	9905      	ldr	r1, [sp, #20]
 8000338:	fbb1 f1f3 	udiv	r1, r1, r3
 800033c:	9105      	str	r1, [sp, #20]
 800033e:	9a05      	ldr	r2, [sp, #20]
 8000340:	2a00      	cmp	r2, #0
 8000342:	d1d9      	bne.n	80002f8 <printi+0x78>
 8000344:	9b03      	ldr	r3, [sp, #12]
 8000346:	2b00      	cmp	r3, #0
 8000348:	d01d      	beq.n	8000386 <printi+0x106>
 800034a:	9b0e      	ldr	r3, [sp, #56]
 800034c:	2b00      	cmp	r3, #0
 800034e:	d012      	beq.n	8000376 <printi+0xf6>
 8000350:	9b0f      	ldr	r3, [sp, #60]
 8000352:	f003 0302 	and.w	r3, r3, #2	; 0x2
 8000356:	2b00      	cmp	r3, #0
 8000358:	d00d      	beq.n	8000376 <printi+0xf6>
 800035a:	9809      	ldr	r0, [sp, #36]
 800035c:	f04f 012d 	mov.w	r1, #45	; 0x2d
 8000360:	f7ff ff02 	bl	8000168 <printchar>
 8000364:	9904      	ldr	r1, [sp, #16]
 8000366:	f101 0101 	add.w	r1, r1, #1	; 0x1
 800036a:	9104      	str	r1, [sp, #16]
 800036c:	9b0e      	ldr	r3, [sp, #56]
 800036e:	f103 33ff 	add.w	r3, r3, #4294967295	; 0xffffffff
 8000372:	930e      	str	r3, [sp, #56]
 8000374:	e007      	b.n	8000386 <printi+0x106>
 8000376:	9a01      	ldr	r2, [sp, #4]
 8000378:	f102 32ff 	add.w	r2, r2, #4294967295	; 0xffffffff
 800037c:	9201      	str	r2, [sp, #4]
 800037e:	f04f 032d 	mov.w	r3, #45	; 0x2d
 8000382:	9901      	ldr	r1, [sp, #4]
 8000384:	700b      	strb	r3, [r1, #0]
 8000386:	9809      	ldr	r0, [sp, #36]
 8000388:	9901      	ldr	r1, [sp, #4]
 800038a:	9a0e      	ldr	r2, [sp, #56]
 800038c:	9b0f      	ldr	r3, [sp, #60]
 800038e:	f7ff ff05 	bl	800019c <prints>
 8000392:	4603      	mov	r3, r0
 8000394:	9a04      	ldr	r2, [sp, #16]
 8000396:	4413      	add	r3, r2
 8000398:	9300      	str	r3, [sp, #0]
 800039a:	9b00      	ldr	r3, [sp, #0]
 800039c:	4618      	mov	r0, r3
 800039e:	b00d      	add	sp, #52
 80003a0:	bd00      	pop	{pc}
 80003a2:	46c0      	nop			(mov r8, r8)

080003a4 <print>:
 80003a4:	b500      	push	{lr}
 80003a6:	b08c      	sub	sp, #48
 80003a8:	900a      	str	r0, [sp, #40]
 80003aa:	9109      	str	r1, [sp, #36]
 80003ac:	9208      	str	r2, [sp, #32]
 80003ae:	f04f 0200 	mov.w	r2, #0	; 0x0
 80003b2:	9206      	str	r2, [sp, #24]
 80003b4:	e10c      	b.n	80005d0 <print+0x22c>
 80003b6:	9b09      	ldr	r3, [sp, #36]
 80003b8:	781b      	ldrb	r3, [r3, #0]
 80003ba:	2b25      	cmp	r3, #37
 80003bc:	f040 80fa 	bne.w	80005b4 <print+0x210>
 80003c0:	9b09      	ldr	r3, [sp, #36]
 80003c2:	f103 0301 	add.w	r3, r3, #1	; 0x1
 80003c6:	9309      	str	r3, [sp, #36]
 80003c8:	f04f 0300 	mov.w	r3, #0	; 0x0
 80003cc:	9305      	str	r3, [sp, #20]
 80003ce:	9a05      	ldr	r2, [sp, #20]
 80003d0:	9204      	str	r2, [sp, #16]
 80003d2:	9b09      	ldr	r3, [sp, #36]
 80003d4:	781b      	ldrb	r3, [r3, #0]
 80003d6:	2b00      	cmp	r3, #0
 80003d8:	f000 80ff 	beq.w	80005da <print+0x236>
 80003dc:	9b09      	ldr	r3, [sp, #36]
 80003de:	781b      	ldrb	r3, [r3, #0]
 80003e0:	2b25      	cmp	r3, #37
 80003e2:	f000 80e7 	beq.w	80005b4 <print+0x210>
 80003e6:	9b09      	ldr	r3, [sp, #36]
 80003e8:	781b      	ldrb	r3, [r3, #0]
 80003ea:	2b2d      	cmp	r3, #45
 80003ec:	d10f      	bne.n	800040e <print+0x6a>
 80003ee:	9b09      	ldr	r3, [sp, #36]
 80003f0:	f103 0301 	add.w	r3, r3, #1	; 0x1
 80003f4:	9309      	str	r3, [sp, #36]
 80003f6:	f04f 0301 	mov.w	r3, #1	; 0x1
 80003fa:	9305      	str	r3, [sp, #20]
 80003fc:	e007      	b.n	800040e <print+0x6a>
 80003fe:	9b09      	ldr	r3, [sp, #36]
 8000400:	f103 0301 	add.w	r3, r3, #1	; 0x1
 8000404:	9309      	str	r3, [sp, #36]
 8000406:	9a05      	ldr	r2, [sp, #20]
 8000408:	f042 0202 	orr.w	r2, r2, #2	; 0x2
 800040c:	9205      	str	r2, [sp, #20]
 800040e:	9b09      	ldr	r3, [sp, #36]
 8000410:	781b      	ldrb	r3, [r3, #0]
 8000412:	2b30      	cmp	r3, #48
 8000414:	d0f3      	beq.n	80003fe <print+0x5a>
 8000416:	e011      	b.n	800043c <print+0x98>
 8000418:	9b04      	ldr	r3, [sp, #16]
 800041a:	ea4f 0243 	mov.w	r2, r3, lsl #1
 800041e:	ea4f 0382 	mov.w	r3, r2, lsl #2
 8000422:	4413      	add	r3, r2
 8000424:	9304      	str	r3, [sp, #16]
 8000426:	9b09      	ldr	r3, [sp, #36]
 8000428:	781b      	ldrb	r3, [r3, #0]
 800042a:	f1a3 0330 	sub.w	r3, r3, #48	; 0x30
 800042e:	9a04      	ldr	r2, [sp, #16]
 8000430:	441a      	add	r2, r3
 8000432:	9204      	str	r2, [sp, #16]
 8000434:	9b09      	ldr	r3, [sp, #36]
 8000436:	f103 0301 	add.w	r3, r3, #1	; 0x1
 800043a:	9309      	str	r3, [sp, #36]
 800043c:	9b09      	ldr	r3, [sp, #36]
 800043e:	781b      	ldrb	r3, [r3, #0]
 8000440:	2b2f      	cmp	r3, #47
 8000442:	d903      	bls.n	800044c <print+0xa8>
 8000444:	9b09      	ldr	r3, [sp, #36]
 8000446:	781b      	ldrb	r3, [r3, #0]
 8000448:	2b39      	cmp	r3, #57
 800044a:	d9e5      	bls.n	8000418 <print+0x74>
 800044c:	9b09      	ldr	r3, [sp, #36]
 800044e:	781b      	ldrb	r3, [r3, #0]
 8000450:	2b73      	cmp	r3, #115
 8000452:	d119      	bne.n	8000488 <print+0xe4>
 8000454:	9a08      	ldr	r2, [sp, #32]
 8000456:	f102 0304 	add.w	r3, r2, #4	; 0x4
 800045a:	9308      	str	r3, [sp, #32]
 800045c:	4613      	mov	r3, r2
 800045e:	681b      	ldr	r3, [r3, #0]
 8000460:	9307      	str	r3, [sp, #28]
 8000462:	9b07      	ldr	r3, [sp, #28]
 8000464:	2b00      	cmp	r3, #0
 8000466:	d002      	beq.n	800046e <print+0xca>
 8000468:	9a07      	ldr	r2, [sp, #28]
 800046a:	9203      	str	r2, [sp, #12]
 800046c:	e001      	b.n	8000472 <print+0xce>
 800046e:	4b61      	ldr	r3, [pc, #388]	(80005f4 <print+0x250>)
 8000470:	9303      	str	r3, [sp, #12]
 8000472:	980a      	ldr	r0, [sp, #40]
 8000474:	9903      	ldr	r1, [sp, #12]
 8000476:	9a04      	ldr	r2, [sp, #16]
 8000478:	9b05      	ldr	r3, [sp, #20]
 800047a:	f7ff fe8f 	bl	800019c <prints>
 800047e:	4603      	mov	r3, r0
 8000480:	9a06      	ldr	r2, [sp, #24]
 8000482:	441a      	add	r2, r3
 8000484:	9206      	str	r2, [sp, #24]
 8000486:	e09f      	b.n	80005c8 <print+0x224>
 8000488:	9b09      	ldr	r3, [sp, #36]
 800048a:	781b      	ldrb	r3, [r3, #0]
 800048c:	2b64      	cmp	r3, #100
 800048e:	d119      	bne.n	80004c4 <print+0x120>
 8000490:	9a08      	ldr	r2, [sp, #32]
 8000492:	f102 0304 	add.w	r3, r2, #4	; 0x4
 8000496:	9308      	str	r3, [sp, #32]
 8000498:	4613      	mov	r3, r2
 800049a:	681a      	ldr	r2, [r3, #0]
 800049c:	9b04      	ldr	r3, [sp, #16]
 800049e:	9300      	str	r3, [sp, #0]
 80004a0:	9b05      	ldr	r3, [sp, #20]
 80004a2:	9301      	str	r3, [sp, #4]
 80004a4:	f04f 0361 	mov.w	r3, #97	; 0x61
 80004a8:	9302      	str	r3, [sp, #8]
 80004aa:	980a      	ldr	r0, [sp, #40]
 80004ac:	4611      	mov	r1, r2
 80004ae:	f04f 020a 	mov.w	r2, #10	; 0xa
 80004b2:	f04f 0301 	mov.w	r3, #1	; 0x1
 80004b6:	f7ff fee3 	bl	8000280 <printi>
 80004ba:	4603      	mov	r3, r0
 80004bc:	9a06      	ldr	r2, [sp, #24]
 80004be:	441a      	add	r2, r3
 80004c0:	9206      	str	r2, [sp, #24]
 80004c2:	e081      	b.n	80005c8 <print+0x224>
 80004c4:	9b09      	ldr	r3, [sp, #36]
 80004c6:	781b      	ldrb	r3, [r3, #0]
 80004c8:	2b78      	cmp	r3, #120
 80004ca:	d119      	bne.n	8000500 <print+0x15c>
 80004cc:	9a08      	ldr	r2, [sp, #32]
 80004ce:	f102 0304 	add.w	r3, r2, #4	; 0x4
 80004d2:	9308      	str	r3, [sp, #32]
 80004d4:	4613      	mov	r3, r2
 80004d6:	681a      	ldr	r2, [r3, #0]
 80004d8:	9b04      	ldr	r3, [sp, #16]
 80004da:	9300      	str	r3, [sp, #0]
 80004dc:	9b05      	ldr	r3, [sp, #20]
 80004de:	9301      	str	r3, [sp, #4]
 80004e0:	f04f 0361 	mov.w	r3, #97	; 0x61
 80004e4:	9302      	str	r3, [sp, #8]
 80004e6:	980a      	ldr	r0, [sp, #40]
 80004e8:	4611      	mov	r1, r2
 80004ea:	f04f 0210 	mov.w	r2, #16	; 0x10
 80004ee:	f04f 0300 	mov.w	r3, #0	; 0x0
 80004f2:	f7ff fec5 	bl	8000280 <printi>
 80004f6:	4603      	mov	r3, r0
 80004f8:	9a06      	ldr	r2, [sp, #24]
 80004fa:	441a      	add	r2, r3
 80004fc:	9206      	str	r2, [sp, #24]
 80004fe:	e063      	b.n	80005c8 <print+0x224>
 8000500:	9b09      	ldr	r3, [sp, #36]
 8000502:	781b      	ldrb	r3, [r3, #0]
 8000504:	2b58      	cmp	r3, #88
 8000506:	d119      	bne.n	800053c <print+0x198>
 8000508:	9a08      	ldr	r2, [sp, #32]
 800050a:	f102 0304 	add.w	r3, r2, #4	; 0x4
 800050e:	9308      	str	r3, [sp, #32]
 8000510:	4613      	mov	r3, r2
 8000512:	681a      	ldr	r2, [r3, #0]
 8000514:	9b04      	ldr	r3, [sp, #16]
 8000516:	9300      	str	r3, [sp, #0]
 8000518:	9b05      	ldr	r3, [sp, #20]
 800051a:	9301      	str	r3, [sp, #4]
 800051c:	f04f 0341 	mov.w	r3, #65	; 0x41
 8000520:	9302      	str	r3, [sp, #8]
 8000522:	980a      	ldr	r0, [sp, #40]
 8000524:	4611      	mov	r1, r2
 8000526:	f04f 0210 	mov.w	r2, #16	; 0x10
 800052a:	f04f 0300 	mov.w	r3, #0	; 0x0
 800052e:	f7ff fea7 	bl	8000280 <printi>
 8000532:	4603      	mov	r3, r0
 8000534:	9a06      	ldr	r2, [sp, #24]
 8000536:	441a      	add	r2, r3
 8000538:	9206      	str	r2, [sp, #24]
 800053a:	e045      	b.n	80005c8 <print+0x224>
 800053c:	9b09      	ldr	r3, [sp, #36]
 800053e:	781b      	ldrb	r3, [r3, #0]
 8000540:	2b75      	cmp	r3, #117
 8000542:	d119      	bne.n	8000578 <print+0x1d4>
 8000544:	9a08      	ldr	r2, [sp, #32]
 8000546:	f102 0304 	add.w	r3, r2, #4	; 0x4
 800054a:	9308      	str	r3, [sp, #32]
 800054c:	4613      	mov	r3, r2
 800054e:	681a      	ldr	r2, [r3, #0]
 8000550:	9b04      	ldr	r3, [sp, #16]
 8000552:	9300      	str	r3, [sp, #0]
 8000554:	9b05      	ldr	r3, [sp, #20]
 8000556:	9301      	str	r3, [sp, #4]
 8000558:	f04f 0361 	mov.w	r3, #97	; 0x61
 800055c:	9302      	str	r3, [sp, #8]
 800055e:	980a      	ldr	r0, [sp, #40]
 8000560:	4611      	mov	r1, r2
 8000562:	f04f 020a 	mov.w	r2, #10	; 0xa
 8000566:	f04f 0300 	mov.w	r3, #0	; 0x0
 800056a:	f7ff fe89 	bl	8000280 <printi>
 800056e:	4603      	mov	r3, r0
 8000570:	9a06      	ldr	r2, [sp, #24]
 8000572:	441a      	add	r2, r3
 8000574:	9206      	str	r2, [sp, #24]
 8000576:	e027      	b.n	80005c8 <print+0x224>
 8000578:	9b09      	ldr	r3, [sp, #36]
 800057a:	781b      	ldrb	r3, [r3, #0]
 800057c:	2b63      	cmp	r3, #99
 800057e:	d123      	bne.n	80005c8 <print+0x224>
 8000580:	9a08      	ldr	r2, [sp, #32]
 8000582:	f102 0304 	add.w	r3, r2, #4	; 0x4
 8000586:	9308      	str	r3, [sp, #32]
 8000588:	4613      	mov	r3, r2
 800058a:	681b      	ldr	r3, [r3, #0]
 800058c:	b2db      	uxtb	r3, r3
 800058e:	f88d 302e 	strb.w	r3, [sp, #46]
 8000592:	f04f 0300 	mov.w	r3, #0	; 0x0
 8000596:	f88d 302f 	strb.w	r3, [sp, #47]
 800059a:	f10d 032e 	add.w	r3, sp, #46	; 0x2e
 800059e:	980a      	ldr	r0, [sp, #40]
 80005a0:	4619      	mov	r1, r3
 80005a2:	9a04      	ldr	r2, [sp, #16]
 80005a4:	9b05      	ldr	r3, [sp, #20]
 80005a6:	f7ff fdf9 	bl	800019c <prints>
 80005aa:	4603      	mov	r3, r0
 80005ac:	9a06      	ldr	r2, [sp, #24]
 80005ae:	441a      	add	r2, r3
 80005b0:	9206      	str	r2, [sp, #24]
 80005b2:	e009      	b.n	80005c8 <print+0x224>
 80005b4:	9b09      	ldr	r3, [sp, #36]
 80005b6:	781b      	ldrb	r3, [r3, #0]
 80005b8:	980a      	ldr	r0, [sp, #40]
 80005ba:	4619      	mov	r1, r3
 80005bc:	f7ff fdd4 	bl	8000168 <printchar>
 80005c0:	9b06      	ldr	r3, [sp, #24]
 80005c2:	f103 0301 	add.w	r3, r3, #1	; 0x1
 80005c6:	9306      	str	r3, [sp, #24]
 80005c8:	9b09      	ldr	r3, [sp, #36]
 80005ca:	f103 0301 	add.w	r3, r3, #1	; 0x1
 80005ce:	9309      	str	r3, [sp, #36]
 80005d0:	9b09      	ldr	r3, [sp, #36]
 80005d2:	781b      	ldrb	r3, [r3, #0]
 80005d4:	2b00      	cmp	r3, #0
 80005d6:	f47f aeee 	bne.w	80003b6 <print+0x12>
 80005da:	9b0a      	ldr	r3, [sp, #40]
 80005dc:	2b00      	cmp	r3, #0
 80005de:	d004      	beq.n	80005ea <print+0x246>
 80005e0:	9b0a      	ldr	r3, [sp, #40]
 80005e2:	681a      	ldr	r2, [r3, #0]
 80005e4:	f04f 0300 	mov.w	r3, #0	; 0x0
 80005e8:	7013      	strb	r3, [r2, #0]
 80005ea:	9b06      	ldr	r3, [sp, #24]
 80005ec:	4618      	mov	r0, r3
 80005ee:	b00c      	add	sp, #48
 80005f0:	bd00      	pop	{pc}
 80005f2:	46c0      	nop			(mov r8, r8)
 80005f4:	08009170 	.word	0x08009170

080005f8 <puts>:
 80005f8:	b500      	push	{lr}
 80005fa:	b081      	sub	sp, #4
 80005fc:	9000      	str	r0, [sp, #0]
 80005fe:	4804      	ldr	r0, [pc, #16]	(8000610 <puts+0x18>)
 8000600:	9900      	ldr	r1, [sp, #0]
 8000602:	f000 f815 	bl	8000630 <printf>
 8000606:	4603      	mov	r3, r0
 8000608:	4618      	mov	r0, r3
 800060a:	b001      	add	sp, #4
 800060c:	bd00      	pop	{pc}
 800060e:	46c0      	nop			(mov r8, r8)
 8000610:	08009178 	.word	0x08009178

08000614 <putchar>:
 8000614:	b500      	push	{lr}
 8000616:	b081      	sub	sp, #4
 8000618:	9000      	str	r0, [sp, #0]
 800061a:	4804      	ldr	r0, [pc, #16]	(800062c <putchar+0x18>)
 800061c:	9900      	ldr	r1, [sp, #0]
 800061e:	f000 f807 	bl	8000630 <printf>
 8000622:	4603      	mov	r3, r0
 8000624:	4618      	mov	r0, r3
 8000626:	b001      	add	sp, #4
 8000628:	bd00      	pop	{pc}
 800062a:	46c0      	nop			(mov r8, r8)
 800062c:	0800917c 	.word	0x0800917c

08000630 <printf>:
 8000630:	b40f      	push	{r0, r1, r2, r3}
 8000632:	b500      	push	{lr}
 8000634:	b082      	sub	sp, #8
 8000636:	ab04      	add	r3, sp, #16
 8000638:	9300      	str	r3, [sp, #0]
 800063a:	9b00      	ldr	r3, [sp, #0]
 800063c:	f04f 0000 	mov.w	r0, #0	; 0x0
 8000640:	9903      	ldr	r1, [sp, #12]
 8000642:	461a      	mov	r2, r3
 8000644:	f7ff feae 	bl	80003a4 <print>
 8000648:	4603      	mov	r3, r0
 800064a:	9301      	str	r3, [sp, #4]
 800064c:	4b0b      	ldr	r3, [pc, #44]	(800067c <printf+0x4c>)
 800064e:	681b      	ldr	r3, [r3, #0]
 8000650:	2b00      	cmp	r3, #0
 8000652:	d007      	beq.n	8000664 <printf+0x34>
 8000654:	4b09      	ldr	r3, [pc, #36]	(800067c <printf+0x4c>)
 8000656:	681a      	ldr	r2, [r3, #0]
 8000658:	4b09      	ldr	r3, [pc, #36]	(8000680 <printf+0x50>)
 800065a:	881b      	ldrh	r3, [r3, #0]
 800065c:	b2db      	uxtb	r3, r3
 800065e:	4809      	ldr	r0, [pc, #36]	(8000684 <printf+0x54>)
 8000660:	4619      	mov	r1, r3
 8000662:	4790      	blx	r2
 8000664:	4a06      	ldr	r2, [pc, #24]	(8000680 <printf+0x50>)
 8000666:	f04f 0300 	mov.w	r3, #0	; 0x0
 800066a:	8013      	strh	r3, [r2, #0]
 800066c:	9b01      	ldr	r3, [sp, #4]
 800066e:	4618      	mov	r0, r3
 8000670:	b002      	add	sp, #8
 8000672:	f85d eb04 	ldr.w	lr, [sp], #4
 8000676:	b004      	add	sp, #16
 8000678:	4770      	bx	lr
 800067a:	46c0      	nop			(mov r8, r8)
 800067c:	20000050 	.word	0x20000050
 8000680:	2000004c 	.word	0x2000004c
 8000684:	20000054 	.word	0x20000054

08000688 <sprintf>:
 8000688:	b40e      	push	{r1, r2, r3}
 800068a:	b500      	push	{lr}
 800068c:	b082      	sub	sp, #8
 800068e:	9000      	str	r0, [sp, #0]
 8000690:	ab04      	add	r3, sp, #16
 8000692:	9301      	str	r3, [sp, #4]
 8000694:	9a01      	ldr	r2, [sp, #4]
 8000696:	466b      	mov	r3, sp
 8000698:	4618      	mov	r0, r3
 800069a:	9903      	ldr	r1, [sp, #12]
 800069c:	f7ff fe82 	bl	80003a4 <print>
 80006a0:	4603      	mov	r3, r0
 80006a2:	4618      	mov	r0, r3
 80006a4:	b002      	add	sp, #8
 80006a6:	f85d eb04 	ldr.w	lr, [sp], #4
 80006aa:	b003      	add	sp, #12
 80006ac:	4770      	bx	lr
 80006ae:	46c0      	nop			(mov r8, r8)

080006b0 <printf_init>:
 80006b0:	b081      	sub	sp, #4
 80006b2:	9000      	str	r0, [sp, #0]
 80006b4:	4a02      	ldr	r2, [pc, #8]	(80006c0 <printf_init+0x10>)
 80006b6:	9b00      	ldr	r3, [sp, #0]
 80006b8:	6013      	str	r3, [r2, #0]
 80006ba:	b001      	add	sp, #4
 80006bc:	4770      	bx	lr
 80006be:	46c0      	nop			(mov r8, r8)
 80006c0:	20000050 	.word	0x20000050

080006c4 <memset>:
 80006c4:	b085      	sub	sp, #20
 80006c6:	9003      	str	r0, [sp, #12]
 80006c8:	9102      	str	r1, [sp, #8]
 80006ca:	9201      	str	r2, [sp, #4]
 80006cc:	9b03      	ldr	r3, [sp, #12]
 80006ce:	9304      	str	r3, [sp, #16]
 80006d0:	e007      	b.n	80006e2 <memset+0x1e>
 80006d2:	9b02      	ldr	r3, [sp, #8]
 80006d4:	b2db      	uxtb	r3, r3
 80006d6:	9a04      	ldr	r2, [sp, #16]
 80006d8:	7013      	strb	r3, [r2, #0]
 80006da:	9b04      	ldr	r3, [sp, #16]
 80006dc:	f103 0301 	add.w	r3, r3, #1	; 0x1
 80006e0:	9304      	str	r3, [sp, #16]
 80006e2:	9b01      	ldr	r3, [sp, #4]
 80006e4:	2b00      	cmp	r3, #0
 80006e6:	bf0c      	ite	eq
 80006e8:	2300      	moveq	r3, #0
 80006ea:	2301      	movne	r3, #1
 80006ec:	b2da      	uxtb	r2, r3
 80006ee:	9b01      	ldr	r3, [sp, #4]
 80006f0:	f103 33ff 	add.w	r3, r3, #4294967295	; 0xffffffff
 80006f4:	9301      	str	r3, [sp, #4]
 80006f6:	2a00      	cmp	r2, #0
 80006f8:	d1eb      	bne.n	80006d2 <memset+0xe>
 80006fa:	b005      	add	sp, #20
 80006fc:	4770      	bx	lr
 80006fe:	46c0      	nop			(mov r8, r8)

08000700 <memcpy>:
 8000700:	b086      	sub	sp, #24
 8000702:	9003      	str	r0, [sp, #12]
 8000704:	9102      	str	r1, [sp, #8]
 8000706:	9201      	str	r2, [sp, #4]
 8000708:	9b03      	ldr	r3, [sp, #12]
 800070a:	9304      	str	r3, [sp, #16]
 800070c:	9b02      	ldr	r3, [sp, #8]
 800070e:	9305      	str	r3, [sp, #20]
 8000710:	9b04      	ldr	r3, [sp, #16]
 8000712:	2b00      	cmp	r3, #0
 8000714:	d002      	beq.n	800071c <memcpy+0x1c>
 8000716:	9b05      	ldr	r3, [sp, #20]
 8000718:	2b00      	cmp	r3, #0
 800071a:	d103      	bne.n	8000724 <memcpy+0x24>
 800071c:	f04f 0300 	mov.w	r3, #0	; 0x0
 8000720:	9300      	str	r3, [sp, #0]
 8000722:	e036      	b.n	8000792 <memcpy+0x92>
 8000724:	9a04      	ldr	r2, [sp, #16]
 8000726:	9b05      	ldr	r3, [sp, #20]
 8000728:	429a      	cmp	r2, r3
 800072a:	d214      	bcs.n	8000756 <memcpy+0x56>
 800072c:	e00f      	b.n	800074e <memcpy+0x4e>
 800072e:	9b05      	ldr	r3, [sp, #20]
 8000730:	781b      	ldrb	r3, [r3, #0]
 8000732:	9a04      	ldr	r2, [sp, #16]
 8000734:	7013      	strb	r3, [r2, #0]
 8000736:	9b04      	ldr	r3, [sp, #16]
 8000738:	f103 0301 	add.w	r3, r3, #1	; 0x1
 800073c:	9304      	str	r3, [sp, #16]
 800073e:	9b05      	ldr	r3, [sp, #20]
 8000740:	f103 0301 	add.w	r3, r3, #1	; 0x1
 8000744:	9305      	str	r3, [sp, #20]
 8000746:	9b01      	ldr	r3, [sp, #4]
 8000748:	f103 33ff 	add.w	r3, r3, #4294967295	; 0xffffffff
 800074c:	9301      	str	r3, [sp, #4]
 800074e:	9b01      	ldr	r3, [sp, #4]
 8000750:	2b00      	cmp	r3, #0
 8000752:	d1ec      	bne.n	800072e <memcpy+0x2e>
 8000754:	e01b      	b.n	800078e <memcpy+0x8e>
 8000756:	9a05      	ldr	r2, [sp, #20]
 8000758:	9b01      	ldr	r3, [sp, #4]
 800075a:	4413      	add	r3, r2
 800075c:	9305      	str	r3, [sp, #20]
 800075e:	9a04      	ldr	r2, [sp, #16]
 8000760:	9b01      	ldr	r3, [sp, #4]
 8000762:	4413      	add	r3, r2
 8000764:	9304      	str	r3, [sp, #16]
 8000766:	e00f      	b.n	8000788 <memcpy+0x88>
 8000768:	9b04      	ldr	r3, [sp, #16]
 800076a:	f103 33ff 	add.w	r3, r3, #4294967295	; 0xffffffff
 800076e:	9304      	str	r3, [sp, #16]
 8000770:	9b05      	ldr	r3, [sp, #20]
 8000772:	f103 33ff 	add.w	r3, r3, #4294967295	; 0xffffffff
 8000776:	9305      	str	r3, [sp, #20]
 8000778:	9b05      	ldr	r3, [sp, #20]
 800077a:	781b      	ldrb	r3, [r3, #0]
 800077c:	9a04      	ldr	r2, [sp, #16]
 800077e:	7013      	strb	r3, [r2, #0]
 8000780:	9b01      	ldr	r3, [sp, #4]
 8000782:	f103 33ff 	add.w	r3, r3, #4294967295	; 0xffffffff
 8000786:	9301      	str	r3, [sp, #4]
 8000788:	9b01      	ldr	r3, [sp, #4]
 800078a:	2b00      	cmp	r3, #0
 800078c:	d1ec      	bne.n	8000768 <memcpy+0x68>
 800078e:	9b03      	ldr	r3, [sp, #12]
 8000790:	9300      	str	r3, [sp, #0]
 8000792:	9b00      	ldr	r3, [sp, #0]
 8000794:	4618      	mov	r0, r3
 8000796:	b006      	add	sp, #24
 8000798:	4770      	bx	lr
 800079a:	46c0      	nop			(mov r8, r8)

0800079c <memcmp>:
 800079c:	b087      	sub	sp, #28
 800079e:	9004      	str	r0, [sp, #16]
 80007a0:	9103      	str	r1, [sp, #12]
 80007a2:	9202      	str	r2, [sp, #8]
 80007a4:	9b04      	ldr	r3, [sp, #16]
 80007a6:	2b00      	cmp	r3, #0
 80007a8:	d002      	beq.n	80007b0 <memcmp+0x14>
 80007aa:	9b03      	ldr	r3, [sp, #12]
 80007ac:	2b00      	cmp	r3, #0
 80007ae:	d103      	bne.n	80007b8 <memcmp+0x1c>
 80007b0:	f04f 0200 	mov.w	r2, #0	; 0x0
 80007b4:	9200      	str	r2, [sp, #0]
 80007b6:	e02d      	b.n	8000814 <memcmp+0x78>
 80007b8:	9b04      	ldr	r3, [sp, #16]
 80007ba:	9305      	str	r3, [sp, #20]
 80007bc:	9b03      	ldr	r3, [sp, #12]
 80007be:	9306      	str	r3, [sp, #24]
 80007c0:	e022      	b.n	8000808 <memcmp+0x6c>
 80007c2:	9b05      	ldr	r3, [sp, #20]
 80007c4:	781a      	ldrb	r2, [r3, #0]
 80007c6:	9b06      	ldr	r3, [sp, #24]
 80007c8:	781b      	ldrb	r3, [r3, #0]
 80007ca:	429a      	cmp	r2, r3
 80007cc:	d010      	beq.n	80007f0 <memcmp+0x54>
 80007ce:	9b05      	ldr	r3, [sp, #20]
 80007d0:	781a      	ldrb	r2, [r3, #0]
 80007d2:	9b06      	ldr	r3, [sp, #24]
 80007d4:	781b      	ldrb	r3, [r3, #0]
 80007d6:	429a      	cmp	r2, r3
 80007d8:	d203      	bcs.n	80007e2 <memcmp+0x46>
 80007da:	f04f 03ff 	mov.w	r3, #255	; 0xff
 80007de:	9301      	str	r3, [sp, #4]
 80007e0:	e002      	b.n	80007e8 <memcmp+0x4c>
 80007e2:	f04f 0201 	mov.w	r2, #1	; 0x1
 80007e6:	9201      	str	r2, [sp, #4]
 80007e8:	9b01      	ldr	r3, [sp, #4]
 80007ea:	b2db      	uxtb	r3, r3
 80007ec:	9300      	str	r3, [sp, #0]
 80007ee:	e011      	b.n	8000814 <memcmp+0x78>
 80007f0:	9b05      	ldr	r3, [sp, #20]
 80007f2:	f103 0301 	add.w	r3, r3, #1	; 0x1
 80007f6:	9305      	str	r3, [sp, #20]
 80007f8:	9b06      	ldr	r3, [sp, #24]
 80007fa:	f103 0301 	add.w	r3, r3, #1	; 0x1
 80007fe:	9306      	str	r3, [sp, #24]
 8000800:	9b02      	ldr	r3, [sp, #8]
 8000802:	f103 33ff 	add.w	r3, r3, #4294967295	; 0xffffffff
 8000806:	9302      	str	r3, [sp, #8]
 8000808:	9b02      	ldr	r3, [sp, #8]
 800080a:	2b00      	cmp	r3, #0
 800080c:	d1d9      	bne.n	80007c2 <memcmp+0x26>
 800080e:	f04f 0200 	mov.w	r2, #0	; 0x0
 8000812:	9200      	str	r2, [sp, #0]
 8000814:	9a00      	ldr	r2, [sp, #0]
 8000816:	b253      	sxtb	r3, r2
 8000818:	4618      	mov	r0, r3
 800081a:	b007      	add	sp, #28
 800081c:	4770      	bx	lr
 800081e:	46c0      	nop			(mov r8, r8)

08000820 <main>:
 8000820:	b500      	push	{lr}
 8000822:	b082      	sub	sp, #8
 8000824:	f000 fe9e 	bl	8001564 <Set_System>
 8000828:	4819      	ldr	r0, [pc, #100]	(8000890 <main+0x70>)
 800082a:	f7ff fee5 	bl	80005f8 <puts>
 800082e:	4b19      	ldr	r3, [pc, #100]	(8000894 <main+0x74>)
 8000830:	9300      	str	r3, [sp, #0]
 8000832:	4819      	ldr	r0, [pc, #100]	(8000898 <main+0x78>)
 8000834:	f04f 0100 	mov.w	r1, #0	; 0x0
 8000838:	f04f 0201 	mov.w	r2, #1	; 0x1
 800083c:	4b17      	ldr	r3, [pc, #92]	(800089c <main+0x7c>)
 800083e:	f7ff fef7 	bl	8000630 <printf>
 8000842:	4b17      	ldr	r3, [pc, #92]	(80008a0 <main+0x80>)
 8000844:	6819      	ldr	r1, [r3, #0]
 8000846:	4b17      	ldr	r3, [pc, #92]	(80008a4 <main+0x84>)
 8000848:	681a      	ldr	r2, [r3, #0]
 800084a:	4b17      	ldr	r3, [pc, #92]	(80008a8 <main+0x88>)
 800084c:	681b      	ldr	r3, [r3, #0]
 800084e:	4817      	ldr	r0, [pc, #92]	(80008ac <main+0x8c>)
 8000850:	f7ff feee 	bl	8000630 <printf>
 8000854:	f04f 0300 	mov.w	r3, #0	; 0x0
 8000858:	9301      	str	r3, [sp, #4]
 800085a:	4815      	ldr	r0, [pc, #84]	(80008b0 <main+0x90>)
 800085c:	f44f 5180 	mov.w	r1, #4096	; 0x1000
 8000860:	f003 fdfc 	bl	800445c <GPIO_SetBits>
 8000864:	f44f 707a 	mov.w	r0, #1000	; 0x3e8
 8000868:	f001 f924 	bl	8001ab4 <mdelay>
 800086c:	4810      	ldr	r0, [pc, #64]	(80008b0 <main+0x90>)
 800086e:	f44f 5180 	mov.w	r1, #4096	; 0x1000
 8000872:	f003 fdff 	bl	8004474 <GPIO_ResetBits>
 8000876:	f44f 707a 	mov.w	r0, #1000	; 0x3e8
 800087a:	f001 f91b 	bl	8001ab4 <mdelay>
 800087e:	9b01      	ldr	r3, [sp, #4]
 8000880:	f103 0301 	add.w	r3, r3, #1	; 0x1
 8000884:	9301      	str	r3, [sp, #4]
 8000886:	480b      	ldr	r0, [pc, #44]	(80008b4 <main+0x94>)
 8000888:	9901      	ldr	r1, [sp, #4]
 800088a:	f7ff fed1 	bl	8000630 <printf>
 800088e:	e7e4      	b.n	800085a <main+0x3a>
 8000890:	08009180 	.word	0x08009180
 8000894:	080091c8 	.word	0x080091c8
 8000898:	08009198 	.word	0x08009198
 800089c:	080091bc 	.word	0x080091bc
 80008a0:	1ffff7e8 	.word	0x1ffff7e8
 80008a4:	1ffff7ec 	.word	0x1ffff7ec
 80008a8:	1ffff7f0 	.word	0x1ffff7f0
 80008ac:	080091d4 	.word	0x080091d4
 80008b0:	40011000 	.word	0x40011000
 80008b4:	080091f4 	.word	0x080091f4

080008b8 <expire_timer>:
 80008b8:	b085      	sub	sp, #20
 80008ba:	9003      	str	r0, [sp, #12]
 80008bc:	9102      	str	r1, [sp, #8]
 80008be:	4b15      	ldr	r3, [pc, #84]	(8000914 <expire_timer+0x5c>)
 80008c0:	681b      	ldr	r3, [r3, #0]
 80008c2:	9304      	str	r3, [sp, #16]
 80008c4:	9a03      	ldr	r2, [sp, #12]
 80008c6:	9b02      	ldr	r3, [sp, #8]
 80008c8:	441a      	add	r2, r3
 80008ca:	9b03      	ldr	r3, [sp, #12]
 80008cc:	429a      	cmp	r2, r3
 80008ce:	d909      	bls.n	80008e4 <expire_timer+0x2c>
 80008d0:	9a03      	ldr	r2, [sp, #12]
 80008d2:	9b02      	ldr	r3, [sp, #8]
 80008d4:	441a      	add	r2, r3
 80008d6:	9b04      	ldr	r3, [sp, #16]
 80008d8:	429a      	cmp	r2, r3
 80008da:	bf2c      	ite	cs
 80008dc:	2300      	movcs	r3, #0
 80008de:	2301      	movcc	r3, #1
 80008e0:	9300      	str	r3, [sp, #0]
 80008e2:	e013      	b.n	800090c <expire_timer+0x54>
 80008e4:	9a03      	ldr	r2, [sp, #12]
 80008e6:	9b02      	ldr	r3, [sp, #8]
 80008e8:	441a      	add	r2, r3
 80008ea:	9b04      	ldr	r3, [sp, #16]
 80008ec:	429a      	cmp	r2, r3
 80008ee:	d207      	bcs.n	8000900 <expire_timer+0x48>
 80008f0:	9a04      	ldr	r2, [sp, #16]
 80008f2:	9b03      	ldr	r3, [sp, #12]
 80008f4:	429a      	cmp	r2, r3
 80008f6:	d203      	bcs.n	8000900 <expire_timer+0x48>
 80008f8:	f04f 0301 	mov.w	r3, #1	; 0x1
 80008fc:	9301      	str	r3, [sp, #4]
 80008fe:	e002      	b.n	8000906 <expire_timer+0x4e>
 8000900:	f04f 0300 	mov.w	r3, #0	; 0x0
 8000904:	9301      	str	r3, [sp, #4]
 8000906:	9b01      	ldr	r3, [sp, #4]
 8000908:	b2db      	uxtb	r3, r3
 800090a:	9300      	str	r3, [sp, #0]
 800090c:	9b00      	ldr	r3, [sp, #0]
 800090e:	4618      	mov	r0, r3
 8000910:	b005      	add	sp, #20
 8000912:	4770      	bx	lr
 8000914:	200000d4 	.word	0x200000d4

08000918 <tick_1khz>:
 8000918:	4b01      	ldr	r3, [pc, #4]	(8000920 <tick_1khz+0x8>)
 800091a:	681b      	ldr	r3, [r3, #0]
 800091c:	4618      	mov	r0, r3
 800091e:	4770      	bx	lr
 8000920:	200000d4 	.word	0x200000d4

08000924 <tick_increment>:
 8000924:	4b03      	ldr	r3, [pc, #12]	(8000934 <tick_increment+0x10>)
 8000926:	681b      	ldr	r3, [r3, #0]
 8000928:	f103 0201 	add.w	r2, r3, #1	; 0x1
 800092c:	4b01      	ldr	r3, [pc, #4]	(8000934 <tick_increment+0x10>)
 800092e:	601a      	str	r2, [r3, #0]
 8000930:	4770      	bx	lr
 8000932:	46c0      	nop			(mov r8, r8)
 8000934:	200000d4 	.word	0x200000d4

08000938 <get_sec_counter>:
 8000938:	4b01      	ldr	r3, [pc, #4]	(8000940 <get_sec_counter+0x8>)
 800093a:	681b      	ldr	r3, [r3, #0]
 800093c:	4618      	mov	r0, r3
 800093e:	4770      	bx	lr
 8000940:	200000d8 	.word	0x200000d8

08000944 <set_sec_counter>:
 8000944:	b081      	sub	sp, #4
 8000946:	9000      	str	r0, [sp, #0]
 8000948:	4a02      	ldr	r2, [pc, #8]	(8000954 <set_sec_counter+0x10>)
 800094a:	9b00      	ldr	r3, [sp, #0]
 800094c:	6013      	str	r3, [r2, #0]
 800094e:	b001      	add	sp, #4
 8000950:	4770      	bx	lr
 8000952:	46c0      	nop			(mov r8, r8)
 8000954:	200000d8 	.word	0x200000d8

08000958 <RTC_Configuration>:
 8000958:	b510      	push	{r4, lr}
 800095a:	b081      	sub	sp, #4
 800095c:	f04f 0001 	mov.w	r0, #1	; 0x1
 8000960:	f002 ff22 	bl	80037a8 <PWR_BackupAccessCmd>
 8000964:	f04f 50c0 	mov.w	r0, #402653184	; 0x18000000
 8000968:	f04f 0101 	mov.w	r1, #1	; 0x1
 800096c:	f002 fd72 	bl	8003454 <RCC_APB1PeriphClockCmd>
 8000970:	f002 fe56 	bl	8003620 <BKP_DeInit>
 8000974:	f04f 0000 	mov.w	r0, #0	; 0x0
 8000978:	f04f 0114 	mov.w	r1, #20	; 0x14
 800097c:	f04f 0207 	mov.w	r2, #7	; 0x7
 8000980:	f240 73db 	movw	r3, #2011	; 0x7db
 8000984:	f000 face 	bl	8000f24 <SetDate>
 8000988:	f04f 0000 	mov.w	r0, #0	; 0x0
 800098c:	f04f 0113 	mov.w	r1, #19	; 0x13
 8000990:	f04f 0200 	mov.w	r2, #0	; 0x0
 8000994:	f04f 0300 	mov.w	r3, #0	; 0x0
 8000998:	f000 fa72 	bl	8000e80 <SetTime>
 800099c:	484a      	ldr	r0, [pc, #296]	(8000ac8 <RTC_Configuration+0x170>)
 800099e:	f7ff fe2b 	bl	80005f8 <puts>
 80009a2:	f04f 0001 	mov.w	r0, #1	; 0x1
 80009a6:	f002 fc1f 	bl	80031e8 <RCC_LSEConfig>
 80009aa:	f04f 0300 	mov.w	r3, #0	; 0x0
 80009ae:	f8ad 3002 	strh.w	r3, [sp, #2]
 80009b2:	e005      	b.n	80009c0 <RTC_Configuration+0x68>
 80009b4:	f8bd 3002 	ldrh.w	r3, [sp, #2]
 80009b8:	f103 0301 	add.w	r3, r3, #1	; 0x1
 80009bc:	f8ad 3002 	strh.w	r3, [sp, #2]
 80009c0:	f8bd 2002 	ldrh.w	r2, [sp, #2]
 80009c4:	f241 3387 	movw	r3, #4999	; 0x1387
 80009c8:	429a      	cmp	r2, r3
 80009ca:	d9f3      	bls.n	80009b4 <RTC_Configuration+0x5c>
 80009cc:	f44f 7080 	mov.w	r0, #256	; 0x100
 80009d0:	f002 fc38 	bl	8003244 <RCC_RTCCLKConfig>
 80009d4:	f04f 0001 	mov.w	r0, #1	; 0x1
 80009d8:	f002 fc42 	bl	8003260 <RCC_RTCCLKCmd>
 80009dc:	f008 f8ba 	bl	8008b54 <RTC_WaitForLastTask>
 80009e0:	f008 f8c2 	bl	8008b68 <RTC_WaitForSynchro>
 80009e4:	f008 f8b6 	bl	8008b54 <RTC_WaitForLastTask>
 80009e8:	f04f 0002 	mov.w	r0, #2	; 0x2
 80009ec:	f04f 0101 	mov.w	r1, #1	; 0x1
 80009f0:	f007 fff6 	bl	80089e0 <RTC_ITConfig>
 80009f4:	f008 f8ae 	bl	8008b54 <RTC_WaitForLastTask>
 80009f8:	f647 70fd 	movw	r0, #32765	; 0x7ffd
 80009fc:	f008 f862 	bl	8008ac4 <RTC_SetPrescaler>
 8000a00:	f008 f8a8 	bl	8008b54 <RTC_WaitForLastTask>
 8000a04:	f04f 0000 	mov.w	r0, #0	; 0x0
 8000a08:	f008 f846 	bl	8008a98 <RTC_SetCounter>
 8000a0c:	f008 f8a2 	bl	8008b54 <RTC_WaitForLastTask>
 8000a10:	f04f 0001 	mov.w	r0, #1	; 0x1
 8000a14:	f008 f86e 	bl	8008af4 <RTC_SetAlarm>
 8000a18:	f008 f89c 	bl	8008b54 <RTC_WaitForLastTask>
 8000a1c:	f000 fd5c 	bl	80014d8 <CheckForDaysElapsed>
 8000a20:	f04f 0018 	mov.w	r0, #24	; 0x18
 8000a24:	f002 fe7e 	bl	8003724 <BKP_ReadBackupRegister>
 8000a28:	4603      	mov	r3, r0
 8000a2a:	b2db      	uxtb	r3, r3
 8000a2c:	4a27      	ldr	r2, [pc, #156]	(8000acc <RTC_Configuration+0x174>)
 8000a2e:	7013      	strb	r3, [r2, #0]
 8000a30:	f04f 0008 	mov.w	r0, #8	; 0x8
 8000a34:	f002 fe76 	bl	8003724 <BKP_ReadBackupRegister>
 8000a38:	4603      	mov	r3, r0
 8000a3a:	b2db      	uxtb	r3, r3
 8000a3c:	4a24      	ldr	r2, [pc, #144]	(8000ad0 <RTC_Configuration+0x178>)
 8000a3e:	7013      	strb	r3, [r2, #0]
 8000a40:	f04f 000c 	mov.w	r0, #12	; 0xc
 8000a44:	f002 fe6e 	bl	8003724 <BKP_ReadBackupRegister>
 8000a48:	4603      	mov	r3, r0
 8000a4a:	b2db      	uxtb	r3, r3
 8000a4c:	4a20      	ldr	r2, [pc, #128]	(8000ad0 <RTC_Configuration+0x178>)
 8000a4e:	7053      	strb	r3, [r2, #1]
 8000a50:	f04f 0010 	mov.w	r0, #16	; 0x10
 8000a54:	f002 fe66 	bl	8003724 <BKP_ReadBackupRegister>
 8000a58:	4603      	mov	r3, r0
 8000a5a:	4a1d      	ldr	r2, [pc, #116]	(8000ad0 <RTC_Configuration+0x178>)
 8000a5c:	8053      	strh	r3, [r2, #2]
 8000a5e:	f04f 001c 	mov.w	r0, #28	; 0x1c
 8000a62:	f002 fe5f 	bl	8003724 <BKP_ReadBackupRegister>
 8000a66:	4603      	mov	r3, r0
 8000a68:	4a1a      	ldr	r2, [pc, #104]	(8000ad4 <RTC_Configuration+0x17c>)
 8000a6a:	8013      	strh	r3, [r2, #0]
 8000a6c:	f04f 0020 	mov.w	r0, #32	; 0x20
 8000a70:	f002 fe58 	bl	8003724 <BKP_ReadBackupRegister>
 8000a74:	4603      	mov	r3, r0
 8000a76:	b2db      	uxtb	r3, r3
 8000a78:	4a17      	ldr	r2, [pc, #92]	(8000ad8 <RTC_Configuration+0x180>)
 8000a7a:	7013      	strb	r3, [r2, #0]
 8000a7c:	f04f 0024 	mov.w	r0, #36	; 0x24
 8000a80:	f002 fe50 	bl	8003724 <BKP_ReadBackupRegister>
 8000a84:	4603      	mov	r3, r0
 8000a86:	b2db      	uxtb	r3, r3
 8000a88:	4a13      	ldr	r2, [pc, #76]	(8000ad8 <RTC_Configuration+0x180>)
 8000a8a:	7053      	strb	r3, [r2, #1]
 8000a8c:	f04f 0028 	mov.w	r0, #40	; 0x28
 8000a90:	f002 fe48 	bl	8003724 <BKP_ReadBackupRegister>
 8000a94:	4603      	mov	r3, r0
 8000a96:	4a10      	ldr	r2, [pc, #64]	(8000ad8 <RTC_Configuration+0x180>)
 8000a98:	8053      	strh	r3, [r2, #2]
 8000a9a:	f04f 0040 	mov.w	r0, #64	; 0x40
 8000a9e:	f002 fe41 	bl	8003724 <BKP_ReadBackupRegister>
 8000aa2:	4603      	mov	r3, r0
 8000aa4:	ea4f 4403 	mov.w	r4, r3, lsl #16
 8000aa8:	f04f 0044 	mov.w	r0, #68	; 0x44
 8000aac:	f002 fe3a 	bl	8003724 <BKP_ReadBackupRegister>
 8000ab0:	4603      	mov	r3, r0
 8000ab2:	ea44 0203 	orr.w	r2, r4, r3
 8000ab6:	4b08      	ldr	r3, [pc, #32]	(8000ad8 <RTC_Configuration+0x180>)
 8000ab8:	605a      	str	r2, [r3, #4]
 8000aba:	f04f 0000 	mov.w	r0, #0	; 0x0
 8000abe:	f002 fdd9 	bl	8003674 <BKP_RTCOutputConfig>
 8000ac2:	b001      	add	sp, #4
 8000ac4:	bd10      	pop	{r4, pc}
 8000ac6:	46c0      	nop			(mov r8, r8)
 8000ac8:	080092a8 	.word	0x080092a8
 8000acc:	200000f6 	.word	0x200000f6
 8000ad0:	200000e4 	.word	0x200000e4
 8000ad4:	200000f4 	.word	0x200000f4
 8000ad8:	200000ec 	.word	0x200000ec

08000adc <SummerTimeCorrection>:
 8000adc:	b500      	push	{lr}
 8000ade:	b083      	sub	sp, #12
 8000ae0:	f04f 0300 	mov.w	r3, #0	; 0x0
 8000ae4:	f88d 300a 	strb.w	r3, [sp, #10]
 8000ae8:	f04f 0300 	mov.w	r3, #0	; 0x0
 8000aec:	f88d 300b 	strb.w	r3, [sp, #11]
 8000af0:	4bdd      	ldr	r3, [pc, #884]	(8000e68 <SummerTimeCorrection+0x38c>)
 8000af2:	881b      	ldrh	r3, [r3, #0]
 8000af4:	f403 4380 	and.w	r3, r3, #16384	; 0x4000
 8000af8:	2b00      	cmp	r3, #0
 8000afa:	f000 80a5 	beq.w	8000c48 <SummerTimeCorrection+0x16c>
 8000afe:	4bdb      	ldr	r3, [pc, #876]	(8000e6c <SummerTimeCorrection+0x390>)
 8000b00:	781b      	ldrb	r3, [r3, #0]
 8000b02:	2b0a      	cmp	r3, #10
 8000b04:	d13b      	bne.n	8000b7e <SummerTimeCorrection+0xa2>
 8000b06:	4bd9      	ldr	r3, [pc, #868]	(8000e6c <SummerTimeCorrection+0x390>)
 8000b08:	785b      	ldrb	r3, [r3, #1]
 8000b0a:	2b18      	cmp	r3, #24
 8000b0c:	d937      	bls.n	8000b7e <SummerTimeCorrection+0xa2>
 8000b0e:	f04f 0319 	mov.w	r3, #25	; 0x19
 8000b12:	f88d 300b 	strb.w	r3, [sp, #11]
 8000b16:	e02b      	b.n	8000b70 <SummerTimeCorrection+0x94>
 8000b18:	4bd4      	ldr	r3, [pc, #848]	(8000e6c <SummerTimeCorrection+0x390>)
 8000b1a:	885b      	ldrh	r3, [r3, #2]
 8000b1c:	4619      	mov	r1, r3
 8000b1e:	4bd3      	ldr	r3, [pc, #844]	(8000e6c <SummerTimeCorrection+0x390>)
 8000b20:	781b      	ldrb	r3, [r3, #0]
 8000b22:	f89d 200b 	ldrb.w	r2, [sp, #11]
 8000b26:	4608      	mov	r0, r1
 8000b28:	4619      	mov	r1, r3
 8000b2a:	f000 fc33 	bl	8001394 <WeekDay>
 8000b2e:	4603      	mov	r3, r0
 8000b30:	2b00      	cmp	r3, #0
 8000b32:	d117      	bne.n	8000b64 <SummerTimeCorrection+0x88>
 8000b34:	4bcd      	ldr	r3, [pc, #820]	(8000e6c <SummerTimeCorrection+0x390>)
 8000b36:	785a      	ldrb	r2, [r3, #1]
 8000b38:	f89d 300b 	ldrb.w	r3, [sp, #11]
 8000b3c:	4293      	cmp	r3, r2
 8000b3e:	d10c      	bne.n	8000b5a <SummerTimeCorrection+0x7e>
 8000b40:	f7ff fefa 	bl	8000938 <get_sec_counter>
 8000b44:	4602      	mov	r2, r0
 8000b46:	f641 431e 	movw	r3, #7198	; 0x1c1e
 8000b4a:	429a      	cmp	r2, r3
 8000b4c:	f240 811b 	bls.w	8000d86 <SummerTimeCorrection+0x2aa>
 8000b50:	f04f 0301 	mov.w	r3, #1	; 0x1
 8000b54:	f88d 300a 	strb.w	r3, [sp, #10]
 8000b58:	e115      	b.n	8000d86 <SummerTimeCorrection+0x2aa>
 8000b5a:	f04f 0301 	mov.w	r3, #1	; 0x1
 8000b5e:	f88d 300a 	strb.w	r3, [sp, #10]
 8000b62:	e110      	b.n	8000d86 <SummerTimeCorrection+0x2aa>
 8000b64:	f89d 300b 	ldrb.w	r3, [sp, #11]
 8000b68:	f103 0301 	add.w	r3, r3, #1	; 0x1
 8000b6c:	f88d 300b 	strb.w	r3, [sp, #11]
 8000b70:	4bbe      	ldr	r3, [pc, #760]	(8000e6c <SummerTimeCorrection+0x390>)
 8000b72:	785a      	ldrb	r2, [r3, #1]
 8000b74:	f89d 300b 	ldrb.w	r3, [sp, #11]
 8000b78:	4293      	cmp	r3, r2
 8000b7a:	d9cd      	bls.n	8000b18 <SummerTimeCorrection+0x3c>
 8000b7c:	e103      	b.n	8000d86 <SummerTimeCorrection+0x2aa>
 8000b7e:	4bbb      	ldr	r3, [pc, #748]	(8000e6c <SummerTimeCorrection+0x390>)
 8000b80:	781b      	ldrb	r3, [r3, #0]
 8000b82:	2b0a      	cmp	r3, #10
 8000b84:	d904      	bls.n	8000b90 <SummerTimeCorrection+0xb4>
 8000b86:	f04f 0301 	mov.w	r3, #1	; 0x1
 8000b8a:	f88d 300a 	strb.w	r3, [sp, #10]
 8000b8e:	e0fa      	b.n	8000d86 <SummerTimeCorrection+0x2aa>
 8000b90:	4bb6      	ldr	r3, [pc, #728]	(8000e6c <SummerTimeCorrection+0x390>)
 8000b92:	781b      	ldrb	r3, [r3, #0]
 8000b94:	2b02      	cmp	r3, #2
 8000b96:	d804      	bhi.n	8000ba2 <SummerTimeCorrection+0xc6>
 8000b98:	f04f 0301 	mov.w	r3, #1	; 0x1
 8000b9c:	f88d 300a 	strb.w	r3, [sp, #10]
 8000ba0:	e0f1      	b.n	8000d86 <SummerTimeCorrection+0x2aa>
 8000ba2:	4bb2      	ldr	r3, [pc, #712]	(8000e6c <SummerTimeCorrection+0x390>)
 8000ba4:	781b      	ldrb	r3, [r3, #0]
 8000ba6:	2b03      	cmp	r3, #3
 8000ba8:	f040 80ed 	bne.w	8000d86 <SummerTimeCorrection+0x2aa>
 8000bac:	4baf      	ldr	r3, [pc, #700]	(8000e6c <SummerTimeCorrection+0x390>)
 8000bae:	785b      	ldrb	r3, [r3, #1]
 8000bb0:	2b17      	cmp	r3, #23
 8000bb2:	d804      	bhi.n	8000bbe <SummerTimeCorrection+0xe2>
 8000bb4:	f04f 0301 	mov.w	r3, #1	; 0x1
 8000bb8:	f88d 300a 	strb.w	r3, [sp, #10]
 8000bbc:	e0e3      	b.n	8000d86 <SummerTimeCorrection+0x2aa>
 8000bbe:	f04f 0318 	mov.w	r3, #24	; 0x18
 8000bc2:	f88d 300b 	strb.w	r3, [sp, #11]
 8000bc6:	e038      	b.n	8000c3a <SummerTimeCorrection+0x15e>
 8000bc8:	4ba8      	ldr	r3, [pc, #672]	(8000e6c <SummerTimeCorrection+0x390>)
 8000bca:	885b      	ldrh	r3, [r3, #2]
 8000bcc:	4619      	mov	r1, r3
 8000bce:	4ba7      	ldr	r3, [pc, #668]	(8000e6c <SummerTimeCorrection+0x390>)
 8000bd0:	781b      	ldrb	r3, [r3, #0]
 8000bd2:	f89d 200b 	ldrb.w	r2, [sp, #11]
 8000bd6:	4608      	mov	r0, r1
 8000bd8:	4619      	mov	r1, r3
 8000bda:	f000 fbdb 	bl	8001394 <WeekDay>
 8000bde:	4603      	mov	r3, r0
 8000be0:	2b00      	cmp	r3, #0
 8000be2:	d124      	bne.n	8000c2e <SummerTimeCorrection+0x152>
 8000be4:	4ba1      	ldr	r3, [pc, #644]	(8000e6c <SummerTimeCorrection+0x390>)
 8000be6:	785a      	ldrb	r2, [r3, #1]
 8000be8:	f89d 300b 	ldrb.w	r3, [sp, #11]
 8000bec:	4293      	cmp	r3, r2
 8000bee:	d11a      	bne.n	8000c26 <SummerTimeCorrection+0x14a>
 8000bf0:	f7ff fea2 	bl	8000938 <get_sec_counter>
 8000bf4:	4602      	mov	r2, r0
 8000bf6:	f641 431e 	movw	r3, #7198	; 0x1c1e
 8000bfa:	429a      	cmp	r2, r3
 8000bfc:	d80e      	bhi.n	8000c1c <SummerTimeCorrection+0x140>
 8000bfe:	4b9a      	ldr	r3, [pc, #616]	(8000e68 <SummerTimeCorrection+0x38c>)
 8000c00:	881b      	ldrh	r3, [r3, #0]
 8000c02:	ea4f 4283 	mov.w	r2, r3, lsl #18
 8000c06:	ea4f 4292 	mov.w	r2, r2, lsr #18
 8000c0a:	4b98      	ldr	r3, [pc, #608]	(8000e6c <SummerTimeCorrection+0x390>)
 8000c0c:	885b      	ldrh	r3, [r3, #2]
 8000c0e:	429a      	cmp	r2, r3
 8000c10:	d004      	beq.n	8000c1c <SummerTimeCorrection+0x140>
 8000c12:	f04f 0301 	mov.w	r3, #1	; 0x1
 8000c16:	f88d 300a 	strb.w	r3, [sp, #10]
 8000c1a:	e0b4      	b.n	8000d86 <SummerTimeCorrection+0x2aa>
 8000c1c:	f04f 0300 	mov.w	r3, #0	; 0x0
 8000c20:	f88d 300a 	strb.w	r3, [sp, #10]
 8000c24:	e0af      	b.n	8000d86 <SummerTimeCorrection+0x2aa>
 8000c26:	f04f 0301 	mov.w	r3, #1	; 0x1
 8000c2a:	f88d 300a 	strb.w	r3, [sp, #10]
 8000c2e:	f89d 300b 	ldrb.w	r3, [sp, #11]
 8000c32:	f103 0301 	add.w	r3, r3, #1	; 0x1
 8000c36:	f88d 300b 	strb.w	r3, [sp, #11]
 8000c3a:	4b8c      	ldr	r3, [pc, #560]	(8000e6c <SummerTimeCorrection+0x390>)
 8000c3c:	785a      	ldrb	r2, [r3, #1]
 8000c3e:	f89d 300b 	ldrb.w	r3, [sp, #11]
 8000c42:	4293      	cmp	r3, r2
 8000c44:	d9c0      	bls.n	8000bc8 <SummerTimeCorrection+0xec>
 8000c46:	e09e      	b.n	8000d86 <SummerTimeCorrection+0x2aa>
 8000c48:	4b87      	ldr	r3, [pc, #540]	(8000e68 <SummerTimeCorrection+0x38c>)
 8000c4a:	881b      	ldrh	r3, [r3, #0]
 8000c4c:	b21b      	sxth	r3, r3
 8000c4e:	2b00      	cmp	r3, #0
 8000c50:	f280 8099 	bge.w	8000d86 <SummerTimeCorrection+0x2aa>
 8000c54:	4b85      	ldr	r3, [pc, #532]	(8000e6c <SummerTimeCorrection+0x390>)
 8000c56:	781b      	ldrb	r3, [r3, #0]
 8000c58:	2b03      	cmp	r3, #3
 8000c5a:	d13a      	bne.n	8000cd2 <SummerTimeCorrection+0x1f6>
 8000c5c:	4b83      	ldr	r3, [pc, #524]	(8000e6c <SummerTimeCorrection+0x390>)
 8000c5e:	785b      	ldrb	r3, [r3, #1]
 8000c60:	2b18      	cmp	r3, #24
 8000c62:	d936      	bls.n	8000cd2 <SummerTimeCorrection+0x1f6>
 8000c64:	f04f 0319 	mov.w	r3, #25	; 0x19
 8000c68:	f88d 300b 	strb.w	r3, [sp, #11]
 8000c6c:	e02a      	b.n	8000cc4 <SummerTimeCorrection+0x1e8>
 8000c6e:	4b7f      	ldr	r3, [pc, #508]	(8000e6c <SummerTimeCorrection+0x390>)
 8000c70:	885b      	ldrh	r3, [r3, #2]
 8000c72:	4619      	mov	r1, r3
 8000c74:	4b7d      	ldr	r3, [pc, #500]	(8000e6c <SummerTimeCorrection+0x390>)
 8000c76:	781b      	ldrb	r3, [r3, #0]
 8000c78:	f89d 200b 	ldrb.w	r2, [sp, #11]
 8000c7c:	4608      	mov	r0, r1
 8000c7e:	4619      	mov	r1, r3
 8000c80:	f000 fb88 	bl	8001394 <WeekDay>
 8000c84:	4603      	mov	r3, r0
 8000c86:	2b00      	cmp	r3, #0
 8000c88:	d116      	bne.n	8000cb8 <SummerTimeCorrection+0x1dc>
 8000c8a:	4b78      	ldr	r3, [pc, #480]	(8000e6c <SummerTimeCorrection+0x390>)
 8000c8c:	785a      	ldrb	r2, [r3, #1]
 8000c8e:	f89d 300b 	ldrb.w	r3, [sp, #11]
 8000c92:	4293      	cmp	r3, r2
 8000c94:	d10b      	bne.n	8000cae <SummerTimeCorrection+0x1d2>
 8000c96:	f7ff fe4f 	bl	8000938 <get_sec_counter>
 8000c9a:	4602      	mov	r2, r0
 8000c9c:	f641 431e 	movw	r3, #7198	; 0x1c1e
 8000ca0:	429a      	cmp	r2, r3
 8000ca2:	d970      	bls.n	8000d86 <SummerTimeCorrection+0x2aa>
 8000ca4:	f04f 0301 	mov.w	r3, #1	; 0x1
 8000ca8:	f88d 300a 	strb.w	r3, [sp, #10]
 8000cac:	e06b      	b.n	8000d86 <SummerTimeCorrection+0x2aa>
 8000cae:	f04f 0301 	mov.w	r3, #1	; 0x1
 8000cb2:	f88d 300a 	strb.w	r3, [sp, #10]
 8000cb6:	e066      	b.n	8000d86 <SummerTimeCorrection+0x2aa>
 8000cb8:	f89d 300b 	ldrb.w	r3, [sp, #11]
 8000cbc:	f103 0301 	add.w	r3, r3, #1	; 0x1
 8000cc0:	f88d 300b 	strb.w	r3, [sp, #11]
 8000cc4:	4b69      	ldr	r3, [pc, #420]	(8000e6c <SummerTimeCorrection+0x390>)
 8000cc6:	785a      	ldrb	r2, [r3, #1]
 8000cc8:	f89d 300b 	ldrb.w	r3, [sp, #11]
 8000ccc:	4293      	cmp	r3, r2
 8000cce:	d9ce      	bls.n	8000c6e <SummerTimeCorrection+0x192>
 8000cd0:	e059      	b.n	8000d86 <SummerTimeCorrection+0x2aa>
 8000cd2:	4b66      	ldr	r3, [pc, #408]	(8000e6c <SummerTimeCorrection+0x390>)
 8000cd4:	781b      	ldrb	r3, [r3, #0]
 8000cd6:	2b03      	cmp	r3, #3
 8000cd8:	d908      	bls.n	8000cec <SummerTimeCorrection+0x210>
 8000cda:	4b64      	ldr	r3, [pc, #400]	(8000e6c <SummerTimeCorrection+0x390>)
 8000cdc:	781b      	ldrb	r3, [r3, #0]
 8000cde:	2b09      	cmp	r3, #9
 8000ce0:	d804      	bhi.n	8000cec <SummerTimeCorrection+0x210>
 8000ce2:	f04f 0301 	mov.w	r3, #1	; 0x1
 8000ce6:	f88d 300a 	strb.w	r3, [sp, #10]
 8000cea:	e04c      	b.n	8000d86 <SummerTimeCorrection+0x2aa>
 8000cec:	4b5f      	ldr	r3, [pc, #380]	(8000e6c <SummerTimeCorrection+0x390>)
 8000cee:	781b      	ldrb	r3, [r3, #0]
 8000cf0:	2b0a      	cmp	r3, #10
 8000cf2:	d148      	bne.n	8000d86 <SummerTimeCorrection+0x2aa>
 8000cf4:	4b5d      	ldr	r3, [pc, #372]	(8000e6c <SummerTimeCorrection+0x390>)
 8000cf6:	785b      	ldrb	r3, [r3, #1]
 8000cf8:	2b17      	cmp	r3, #23
 8000cfa:	d804      	bhi.n	8000d06 <SummerTimeCorrection+0x22a>
 8000cfc:	f04f 0301 	mov.w	r3, #1	; 0x1
 8000d00:	f88d 300a 	strb.w	r3, [sp, #10]
 8000d04:	e03f      	b.n	8000d86 <SummerTimeCorrection+0x2aa>
 8000d06:	f04f 0318 	mov.w	r3, #24	; 0x18
 8000d0a:	f88d 300b 	strb.w	r3, [sp, #11]
 8000d0e:	e034      	b.n	8000d7a <SummerTimeCorrection+0x29e>
 8000d10:	4b56      	ldr	r3, [pc, #344]	(8000e6c <SummerTimeCorrection+0x390>)
 8000d12:	885b      	ldrh	r3, [r3, #2]
 8000d14:	4619      	mov	r1, r3
 8000d16:	4b55      	ldr	r3, [pc, #340]	(8000e6c <SummerTimeCorrection+0x390>)
 8000d18:	781b      	ldrb	r3, [r3, #0]
 8000d1a:	f89d 200b 	ldrb.w	r2, [sp, #11]
 8000d1e:	4608      	mov	r0, r1
 8000d20:	4619      	mov	r1, r3
 8000d22:	f000 fb37 	bl	8001394 <WeekDay>
 8000d26:	4603      	mov	r3, r0
 8000d28:	2b00      	cmp	r3, #0
 8000d2a:	d120      	bne.n	8000d6e <SummerTimeCorrection+0x292>
 8000d2c:	4b4f      	ldr	r3, [pc, #316]	(8000e6c <SummerTimeCorrection+0x390>)
 8000d2e:	785a      	ldrb	r2, [r3, #1]
 8000d30:	f89d 300b 	ldrb.w	r3, [sp, #11]
 8000d34:	4293      	cmp	r3, r2
 8000d36:	d11a      	bne.n	8000d6e <SummerTimeCorrection+0x292>
 8000d38:	f7ff fdfe 	bl	8000938 <get_sec_counter>
 8000d3c:	4602      	mov	r2, r0
 8000d3e:	f641 431e 	movw	r3, #7198	; 0x1c1e
 8000d42:	429a      	cmp	r2, r3
 8000d44:	d80e      	bhi.n	8000d64 <SummerTimeCorrection+0x288>
 8000d46:	4b48      	ldr	r3, [pc, #288]	(8000e68 <SummerTimeCorrection+0x38c>)
 8000d48:	881b      	ldrh	r3, [r3, #0]
 8000d4a:	ea4f 4283 	mov.w	r2, r3, lsl #18
 8000d4e:	ea4f 4292 	mov.w	r2, r2, lsr #18
 8000d52:	4b46      	ldr	r3, [pc, #280]	(8000e6c <SummerTimeCorrection+0x390>)
 8000d54:	885b      	ldrh	r3, [r3, #2]
 8000d56:	429a      	cmp	r2, r3
 8000d58:	d004      	beq.n	8000d64 <SummerTimeCorrection+0x288>
 8000d5a:	f04f 0301 	mov.w	r3, #1	; 0x1
 8000d5e:	f88d 300a 	strb.w	r3, [sp, #10]
 8000d62:	e010      	b.n	8000d86 <SummerTimeCorrection+0x2aa>
 8000d64:	f04f 0300 	mov.w	r3, #0	; 0x0
 8000d68:	f88d 300a 	strb.w	r3, [sp, #10]
 8000d6c:	e00b      	b.n	8000d86 <SummerTimeCorrection+0x2aa>
 8000d6e:	f89d 300b 	ldrb.w	r3, [sp, #11]
 8000d72:	f103 0301 	add.w	r3, r3, #1	; 0x1
 8000d76:	f88d 300b 	strb.w	r3, [sp, #11]
 8000d7a:	4b3c      	ldr	r3, [pc, #240]	(8000e6c <SummerTimeCorrection+0x390>)
 8000d7c:	785a      	ldrb	r2, [r3, #1]
 8000d7e:	f89d 300b 	ldrb.w	r3, [sp, #11]
 8000d82:	4293      	cmp	r3, r2
 8000d84:	d9c4      	bls.n	8000d10 <SummerTimeCorrection+0x234>
 8000d86:	f89d 300a 	ldrb.w	r3, [sp, #10]
 8000d8a:	2b01      	cmp	r3, #1
 8000d8c:	d169      	bne.n	8000e62 <SummerTimeCorrection+0x386>
 8000d8e:	4b36      	ldr	r3, [pc, #216]	(8000e68 <SummerTimeCorrection+0x38c>)
 8000d90:	881b      	ldrh	r3, [r3, #0]
 8000d92:	f403 4380 	and.w	r3, r3, #16384	; 0x4000
 8000d96:	2b00      	cmp	r3, #0
 8000d98:	d030      	beq.n	8000dfc <SummerTimeCorrection+0x320>
 8000d9a:	f7ff fdcd 	bl	8000938 <get_sec_counter>
 8000d9e:	4603      	mov	r3, r0
 8000da0:	f5a3 6360 	sub.w	r3, r3, #3584	; 0xe00
 8000da4:	f1a3 030f 	sub.w	r3, r3, #15	; 0xf
 8000da8:	4618      	mov	r0, r3
 8000daa:	f7ff fdcb 	bl	8000944 <set_sec_counter>
 8000dae:	4b2e      	ldr	r3, [pc, #184]	(8000e68 <SummerTimeCorrection+0x38c>)
 8000db0:	881b      	ldrh	r3, [r3, #0]
 8000db2:	9300      	str	r3, [sp, #0]
 8000db4:	f64b 73ff 	movw	r3, #49151	; 0xbfff
 8000db8:	9900      	ldr	r1, [sp, #0]
 8000dba:	ea01 0303 	and.w	r3, r1, r3
 8000dbe:	9300      	str	r3, [sp, #0]
 8000dc0:	4a29      	ldr	r2, [pc, #164]	(8000e68 <SummerTimeCorrection+0x38c>)
 8000dc2:	9900      	ldr	r1, [sp, #0]
 8000dc4:	460b      	mov	r3, r1
 8000dc6:	8013      	strh	r3, [r2, #0]
 8000dc8:	4b27      	ldr	r3, [pc, #156]	(8000e68 <SummerTimeCorrection+0x38c>)
 8000dca:	881b      	ldrh	r3, [r3, #0]
 8000dcc:	ea6f 4343 	mvn.w	r3, r3, lsl #17
 8000dd0:	ea6f 4353 	mvn.w	r3, r3, lsr #17
 8000dd4:	b29b      	uxth	r3, r3
 8000dd6:	4a24      	ldr	r2, [pc, #144]	(8000e68 <SummerTimeCorrection+0x38c>)
 8000dd8:	8013      	strh	r3, [r2, #0]
 8000dda:	4b24      	ldr	r3, [pc, #144]	(8000e6c <SummerTimeCorrection+0x390>)
 8000ddc:	885a      	ldrh	r2, [r3, #2]
 8000dde:	4b22      	ldr	r3, [pc, #136]	(8000e68 <SummerTimeCorrection+0x38c>)
 8000de0:	881b      	ldrh	r3, [r3, #0]
 8000de2:	ea42 0303 	orr.w	r3, r2, r3
 8000de6:	b29b      	uxth	r3, r3
 8000de8:	4a1f      	ldr	r2, [pc, #124]	(8000e68 <SummerTimeCorrection+0x38c>)
 8000dea:	8013      	strh	r3, [r2, #0]
 8000dec:	4b1e      	ldr	r3, [pc, #120]	(8000e68 <SummerTimeCorrection+0x38c>)
 8000dee:	881b      	ldrh	r3, [r3, #0]
 8000df0:	f04f 001c 	mov.w	r0, #28	; 0x1c
 8000df4:	4619      	mov	r1, r3
 8000df6:	f002 fc81 	bl	80036fc <BKP_WriteBackupRegister>
 8000dfa:	e032      	b.n	8000e62 <SummerTimeCorrection+0x386>
 8000dfc:	4b1a      	ldr	r3, [pc, #104]	(8000e68 <SummerTimeCorrection+0x38c>)
 8000dfe:	881b      	ldrh	r3, [r3, #0]
 8000e00:	b21b      	sxth	r3, r3
 8000e02:	2b00      	cmp	r3, #0
 8000e04:	da2d      	bge.n	8000e62 <SummerTimeCorrection+0x386>
 8000e06:	f7ff fd97 	bl	8000938 <get_sec_counter>
 8000e0a:	4603      	mov	r3, r0
 8000e0c:	f503 6360 	add.w	r3, r3, #3584	; 0xe00
 8000e10:	f103 0311 	add.w	r3, r3, #17	; 0x11
 8000e14:	4618      	mov	r0, r3
 8000e16:	f7ff fd95 	bl	8000944 <set_sec_counter>
 8000e1a:	4b13      	ldr	r3, [pc, #76]	(8000e68 <SummerTimeCorrection+0x38c>)
 8000e1c:	881b      	ldrh	r3, [r3, #0]
 8000e1e:	9301      	str	r3, [sp, #4]
 8000e20:	9a01      	ldr	r2, [sp, #4]
 8000e22:	ea4f 4342 	mov.w	r3, r2, lsl #17
 8000e26:	ea4f 4353 	mov.w	r3, r3, lsr #17
 8000e2a:	9301      	str	r3, [sp, #4]
 8000e2c:	4a0e      	ldr	r2, [pc, #56]	(8000e68 <SummerTimeCorrection+0x38c>)
 8000e2e:	9901      	ldr	r1, [sp, #4]
 8000e30:	460b      	mov	r3, r1
 8000e32:	8013      	strh	r3, [r2, #0]
 8000e34:	4b0c      	ldr	r3, [pc, #48]	(8000e68 <SummerTimeCorrection+0x38c>)
 8000e36:	881b      	ldrh	r3, [r3, #0]
 8000e38:	f443 4380 	orr.w	r3, r3, #16384	; 0x4000
 8000e3c:	b29b      	uxth	r3, r3
 8000e3e:	4a0a      	ldr	r2, [pc, #40]	(8000e68 <SummerTimeCorrection+0x38c>)
 8000e40:	8013      	strh	r3, [r2, #0]
 8000e42:	4b0a      	ldr	r3, [pc, #40]	(8000e6c <SummerTimeCorrection+0x390>)
 8000e44:	885a      	ldrh	r2, [r3, #2]
 8000e46:	4b08      	ldr	r3, [pc, #32]	(8000e68 <SummerTimeCorrection+0x38c>)
 8000e48:	881b      	ldrh	r3, [r3, #0]
 8000e4a:	ea42 0303 	orr.w	r3, r2, r3
 8000e4e:	b29b      	uxth	r3, r3
 8000e50:	4a05      	ldr	r2, [pc, #20]	(8000e68 <SummerTimeCorrection+0x38c>)
 8000e52:	8013      	strh	r3, [r2, #0]
 8000e54:	4b04      	ldr	r3, [pc, #16]	(8000e68 <SummerTimeCorrection+0x38c>)
 8000e56:	881b      	ldrh	r3, [r3, #0]
 8000e58:	f04f 001c 	mov.w	r0, #28	; 0x1c
 8000e5c:	4619      	mov	r1, r3
 8000e5e:	f002 fc4d 	bl	80036fc <BKP_WriteBackupRegister>
 8000e62:	b003      	add	sp, #12
 8000e64:	bd00      	pop	{pc}
 8000e66:	46c0      	nop			(mov r8, r8)
 8000e68:	200000f4 	.word	0x200000f4
 8000e6c:	200000e4 	.word	0x200000e4

08000e70 <rtc_Init>:
 8000e70:	4a02      	ldr	r2, [pc, #8]	(8000e7c <rtc_Init+0xc>)
 8000e72:	f04f 0300 	mov.w	r3, #0	; 0x0
 8000e76:	6013      	str	r3, [r2, #0]
 8000e78:	4770      	bx	lr
 8000e7a:	46c0      	nop			(mov r8, r8)
 8000e7c:	200000dc 	.word	0x200000dc

08000e80 <SetTime>:
 8000e80:	b500      	push	{lr}
 8000e82:	b085      	sub	sp, #20
 8000e84:	9003      	str	r0, [sp, #12]
 8000e86:	4618      	mov	r0, r3
 8000e88:	460b      	mov	r3, r1
 8000e8a:	f88d 3008 	strb.w	r3, [sp, #8]
 8000e8e:	4613      	mov	r3, r2
 8000e90:	f88d 3004 	strb.w	r3, [sp, #4]
 8000e94:	4603      	mov	r3, r0
 8000e96:	f88d 3000 	strb.w	r3, [sp]
 8000e9a:	f89d 3008 	ldrb.w	r3, [sp, #8]
 8000e9e:	2b17      	cmp	r3, #23
 8000ea0:	d807      	bhi.n	8000eb2 <SetTime+0x32>
 8000ea2:	f89d 3004 	ldrb.w	r3, [sp, #4]
 8000ea6:	2b3b      	cmp	r3, #59
 8000ea8:	d803      	bhi.n	8000eb2 <SetTime+0x32>
 8000eaa:	f89d 3000 	ldrb.w	r3, [sp]
 8000eae:	2b38      	cmp	r3, #56
 8000eb0:	d903      	bls.n	8000eba <SetTime+0x3a>
 8000eb2:	481b      	ldr	r0, [pc, #108]	(8000f20 <SetTime+0xa0>)
 8000eb4:	f7ff fba0 	bl	80005f8 <puts>
 8000eb8:	e030      	b.n	8000f1c <SetTime+0x9c>
 8000eba:	f89d 3008 	ldrb.w	r3, [sp, #8]
 8000ebe:	ea4f 1203 	mov.w	r2, r3, lsl #4
 8000ec2:	ea4f 1302 	mov.w	r3, r2, lsl #4
 8000ec6:	ebc2 0303 	rsb	r3, r2, r3
 8000eca:	ea4f 1203 	mov.w	r2, r3, lsl #4
 8000ece:	ebc3 0102 	rsb	r1, r3, r2
 8000ed2:	f89d 3004 	ldrb.w	r3, [sp, #4]
 8000ed6:	ea4f 0283 	mov.w	r2, r3, lsl #2
 8000eda:	ea4f 1302 	mov.w	r3, r2, lsl #4
 8000ede:	ebc2 0303 	rsb	r3, r2, r3
 8000ee2:	eb01 0203 	add.w	r2, r1, r3
 8000ee6:	f89d 3000 	ldrb.w	r3, [sp]
 8000eea:	4413      	add	r3, r2
 8000eec:	9304      	str	r3, [sp, #16]
 8000eee:	9b03      	ldr	r3, [sp, #12]
 8000ef0:	2b00      	cmp	r3, #0
 8000ef2:	d103      	bne.n	8000efc <SetTime+0x7c>
 8000ef4:	9804      	ldr	r0, [sp, #16]
 8000ef6:	f7ff fd25 	bl	8000944 <set_sec_counter>
 8000efa:	e00f      	b.n	8000f1c <SetTime+0x9c>
 8000efc:	9b04      	ldr	r3, [sp, #16]
 8000efe:	ea4f 4313 	mov.w	r3, r3, lsr #16
 8000f02:	b29b      	uxth	r3, r3
 8000f04:	f04f 0040 	mov.w	r0, #64	; 0x40
 8000f08:	4619      	mov	r1, r3
 8000f0a:	f002 fbf7 	bl	80036fc <BKP_WriteBackupRegister>
 8000f0e:	9b04      	ldr	r3, [sp, #16]
 8000f10:	b29b      	uxth	r3, r3
 8000f12:	f04f 0044 	mov.w	r0, #68	; 0x44
 8000f16:	4619      	mov	r1, r3
 8000f18:	f002 fbf0 	bl	80036fc <BKP_WriteBackupRegister>
 8000f1c:	b005      	add	sp, #20
 8000f1e:	bd00      	pop	{pc}
 8000f20:	080092c0 	.word	0x080092c0

08000f24 <SetDate>:
 8000f24:	b500      	push	{lr}
 8000f26:	b084      	sub	sp, #16
 8000f28:	9003      	str	r0, [sp, #12]
 8000f2a:	4618      	mov	r0, r3
 8000f2c:	460b      	mov	r3, r1
 8000f2e:	f88d 3008 	strb.w	r3, [sp, #8]
 8000f32:	4613      	mov	r3, r2
 8000f34:	f88d 3004 	strb.w	r3, [sp, #4]
 8000f38:	4603      	mov	r3, r0
 8000f3a:	f8ad 3000 	strh.w	r3, [sp]
 8000f3e:	f89d 3004 	ldrb.w	r3, [sp, #4]
 8000f42:	2b04      	cmp	r3, #4
 8000f44:	d00b      	beq.n	8000f5e <SetDate+0x3a>
 8000f46:	f89d 3004 	ldrb.w	r3, [sp, #4]
 8000f4a:	2b06      	cmp	r3, #6
 8000f4c:	d007      	beq.n	8000f5e <SetDate+0x3a>
 8000f4e:	f89d 3004 	ldrb.w	r3, [sp, #4]
 8000f52:	2b09      	cmp	r3, #9
 8000f54:	d003      	beq.n	8000f5e <SetDate+0x3a>
 8000f56:	f89d 3004 	ldrb.w	r3, [sp, #4]
 8000f5a:	2b0b      	cmp	r3, #11
 8000f5c:	d103      	bne.n	8000f66 <SetDate+0x42>
 8000f5e:	f89d 3008 	ldrb.w	r3, [sp, #8]
 8000f62:	2b1f      	cmp	r3, #31
 8000f64:	d017      	beq.n	8000f96 <SetDate+0x72>
 8000f66:	f89d 3004 	ldrb.w	r3, [sp, #4]
 8000f6a:	2b02      	cmp	r3, #2
 8000f6c:	d103      	bne.n	8000f76 <SetDate+0x52>
 8000f6e:	f89d 3008 	ldrb.w	r3, [sp, #8]
 8000f72:	2b1d      	cmp	r3, #29
 8000f74:	d80f      	bhi.n	8000f96 <SetDate+0x72>
 8000f76:	f89d 3004 	ldrb.w	r3, [sp, #4]
 8000f7a:	2b02      	cmp	r3, #2
 8000f7c:	d10f      	bne.n	8000f9e <SetDate+0x7a>
 8000f7e:	f89d 3008 	ldrb.w	r3, [sp, #8]
 8000f82:	2b1d      	cmp	r3, #29
 8000f84:	d10b      	bne.n	8000f9e <SetDate+0x7a>
 8000f86:	f8bd 3000 	ldrh.w	r3, [sp]
 8000f8a:	4618      	mov	r0, r3
 8000f8c:	f000 f9ba 	bl	8001304 <CheckLeap>
 8000f90:	4603      	mov	r3, r0
 8000f92:	2b00      	cmp	r3, #0
 8000f94:	d103      	bne.n	8000f9e <SetDate+0x7a>
 8000f96:	4827      	ldr	r0, [pc, #156]	(8001034 <SetDate+0x110>)
 8000f98:	f7ff fb2e 	bl	80005f8 <puts>
 8000f9c:	e047      	b.n	800102e <SetDate+0x10a>
 8000f9e:	9b03      	ldr	r3, [sp, #12]
 8000fa0:	2b00      	cmp	r3, #0
 8000fa2:	d121      	bne.n	8000fe8 <SetDate+0xc4>
 8000fa4:	4a24      	ldr	r2, [pc, #144]	(8001038 <SetDate+0x114>)
 8000fa6:	f8bd 3000 	ldrh.w	r3, [sp]
 8000faa:	8053      	strh	r3, [r2, #2]
 8000fac:	4a22      	ldr	r2, [pc, #136]	(8001038 <SetDate+0x114>)
 8000fae:	f89d 3004 	ldrb.w	r3, [sp, #4]
 8000fb2:	7013      	strb	r3, [r2, #0]
 8000fb4:	4a20      	ldr	r2, [pc, #128]	(8001038 <SetDate+0x114>)
 8000fb6:	f89d 3008 	ldrb.w	r3, [sp, #8]
 8000fba:	7053      	strb	r3, [r2, #1]
 8000fbc:	f89d 3004 	ldrb.w	r3, [sp, #4]
 8000fc0:	f04f 0008 	mov.w	r0, #8	; 0x8
 8000fc4:	4619      	mov	r1, r3
 8000fc6:	f002 fb99 	bl	80036fc <BKP_WriteBackupRegister>
 8000fca:	f89d 3008 	ldrb.w	r3, [sp, #8]
 8000fce:	f04f 000c 	mov.w	r0, #12	; 0xc
 8000fd2:	4619      	mov	r1, r3
 8000fd4:	f002 fb92 	bl	80036fc <BKP_WriteBackupRegister>
 8000fd8:	f8bd 3000 	ldrh.w	r3, [sp]
 8000fdc:	f04f 0010 	mov.w	r0, #16	; 0x10
 8000fe0:	4619      	mov	r1, r3
 8000fe2:	f002 fb8b 	bl	80036fc <BKP_WriteBackupRegister>
 8000fe6:	e022      	b.n	800102e <SetDate+0x10a>
 8000fe8:	4a14      	ldr	r2, [pc, #80]	(800103c <SetDate+0x118>)
 8000fea:	f8bd 3000 	ldrh.w	r3, [sp]
 8000fee:	8053      	strh	r3, [r2, #2]
 8000ff0:	4a12      	ldr	r2, [pc, #72]	(800103c <SetDate+0x118>)
 8000ff2:	f89d 3004 	ldrb.w	r3, [sp, #4]
 8000ff6:	7013      	strb	r3, [r2, #0]
 8000ff8:	4a10      	ldr	r2, [pc, #64]	(800103c <SetDate+0x118>)
 8000ffa:	f89d 3008 	ldrb.w	r3, [sp, #8]
 8000ffe:	7053      	strb	r3, [r2, #1]
 8001000:	f89d 3004 	ldrb.w	r3, [sp, #4]
 8001004:	f04f 0020 	mov.w	r0, #32	; 0x20
 8001008:	4619      	mov	r1, r3
 800100a:	f002 fb77 	bl	80036fc <BKP_WriteBackupRegister>
 800100e:	f89d 3008 	ldrb.w	r3, [sp, #8]
 8001012:	f04f 0024 	mov.w	r0, #36	; 0x24
 8001016:	4619      	mov	r1, r3
 8001018:	f002 fb70 	bl	80036fc <BKP_WriteBackupRegister>
 800101c:	f8bd 3000 	ldrh.w	r3, [sp]
 8001020:	f04f 0028 	mov.w	r0, #40	; 0x28
 8001024:	4619      	mov	r1, r3
 8001026:	f002 fb69 	bl	80036fc <BKP_WriteBackupRegister>
 800102a:	f7ff fd57 	bl	8000adc <SummerTimeCorrection>
 800102e:	b004      	add	sp, #16
 8001030:	bd00      	pop	{pc}
 8001032:	46c0      	nop			(mov r8, r8)
 8001034:	080092d4 	.word	0x080092d4
 8001038:	200000e4 	.word	0x200000e4
 800103c:	200000ec 	.word	0x200000ec

08001040 <check_alarm>:
 8001040:	b510      	push	{r4, lr}
 8001042:	f04f 0028 	mov.w	r0, #40	; 0x28
 8001046:	f002 fb6d 	bl	8003724 <BKP_ReadBackupRegister>
 800104a:	4603      	mov	r3, r0
 800104c:	461c      	mov	r4, r3
 800104e:	f04f 0010 	mov.w	r0, #16	; 0x10
 8001052:	f002 fb67 	bl	8003724 <BKP_ReadBackupRegister>
 8001056:	4603      	mov	r3, r0
 8001058:	429c      	cmp	r4, r3
 800105a:	d130      	bne.n	80010be <check_alarm+0x7e>
 800105c:	f04f 0024 	mov.w	r0, #36	; 0x24
 8001060:	f002 fb60 	bl	8003724 <BKP_ReadBackupRegister>
 8001064:	4603      	mov	r3, r0
 8001066:	461c      	mov	r4, r3
 8001068:	f04f 000c 	mov.w	r0, #12	; 0xc
 800106c:	f002 fb5a 	bl	8003724 <BKP_ReadBackupRegister>
 8001070:	4603      	mov	r3, r0
 8001072:	429c      	cmp	r4, r3
 8001074:	d123      	bne.n	80010be <check_alarm+0x7e>
 8001076:	f04f 0020 	mov.w	r0, #32	; 0x20
 800107a:	f002 fb53 	bl	8003724 <BKP_ReadBackupRegister>
 800107e:	4603      	mov	r3, r0
 8001080:	461c      	mov	r4, r3
 8001082:	f04f 0008 	mov.w	r0, #8	; 0x8
 8001086:	f002 fb4d 	bl	8003724 <BKP_ReadBackupRegister>
 800108a:	4603      	mov	r3, r0
 800108c:	429c      	cmp	r4, r3
 800108e:	d116      	bne.n	80010be <check_alarm+0x7e>
 8001090:	f04f 0040 	mov.w	r0, #64	; 0x40
 8001094:	f002 fb46 	bl	8003724 <BKP_ReadBackupRegister>
 8001098:	4603      	mov	r3, r0
 800109a:	ea4f 4403 	mov.w	r4, r3, lsl #16
 800109e:	f04f 0044 	mov.w	r0, #68	; 0x44
 80010a2:	f002 fb3f 	bl	8003724 <BKP_ReadBackupRegister>
 80010a6:	4603      	mov	r3, r0
 80010a8:	ea44 0403 	orr.w	r4, r4, r3
 80010ac:	f7ff fc44 	bl	8000938 <get_sec_counter>
 80010b0:	4603      	mov	r3, r0
 80010b2:	429c      	cmp	r4, r3
 80010b4:	d103      	bne.n	80010be <check_alarm+0x7e>
 80010b6:	4a02      	ldr	r2, [pc, #8]	(80010c0 <check_alarm+0x80>)
 80010b8:	f04f 0302 	mov.w	r3, #2	; 0x2
 80010bc:	6013      	str	r3, [r2, #0]
 80010be:	bd10      	pop	{r4, pc}
 80010c0:	200000dc 	.word	0x200000dc

080010c4 <alarm_Mgmt>:
 80010c4:	b500      	push	{lr}
 80010c6:	b081      	sub	sp, #4
 80010c8:	f7ff ffba 	bl	8001040 <check_alarm>
 80010cc:	4b1a      	ldr	r3, [pc, #104]	(8001138 <alarm_Mgmt+0x74>)
 80010ce:	681b      	ldr	r3, [r3, #0]
 80010d0:	2b00      	cmp	r3, #0
 80010d2:	d02e      	beq.n	8001132 <alarm_Mgmt+0x6e>
 80010d4:	4b18      	ldr	r3, [pc, #96]	(8001138 <alarm_Mgmt+0x74>)
 80010d6:	681b      	ldr	r3, [r3, #0]
 80010d8:	9300      	str	r3, [sp, #0]
 80010da:	9b00      	ldr	r3, [sp, #0]
 80010dc:	2b02      	cmp	r3, #2
 80010de:	d003      	beq.n	80010e8 <alarm_Mgmt+0x24>
 80010e0:	9b00      	ldr	r3, [sp, #0]
 80010e2:	2b03      	cmp	r3, #3
 80010e4:	d00f      	beq.n	8001106 <alarm_Mgmt+0x42>
 80010e6:	e024      	b.n	8001132 <alarm_Mgmt+0x6e>
 80010e8:	4814      	ldr	r0, [pc, #80]	(800113c <alarm_Mgmt+0x78>)
 80010ea:	f04f 0140 	mov.w	r1, #64	; 0x40
 80010ee:	f003 f9b5 	bl	800445c <GPIO_SetBits>
 80010f2:	f7ff fc21 	bl	8000938 <get_sec_counter>
 80010f6:	4602      	mov	r2, r0
 80010f8:	4b11      	ldr	r3, [pc, #68]	(8001140 <alarm_Mgmt+0x7c>)
 80010fa:	601a      	str	r2, [r3, #0]
 80010fc:	4a0e      	ldr	r2, [pc, #56]	(8001138 <alarm_Mgmt+0x74>)
 80010fe:	f04f 0303 	mov.w	r3, #3	; 0x3
 8001102:	6013      	str	r3, [r2, #0]
 8001104:	e015      	b.n	8001132 <alarm_Mgmt+0x6e>
 8001106:	f7ff fc17 	bl	8000938 <get_sec_counter>
 800110a:	4602      	mov	r2, r0
 800110c:	4b0c      	ldr	r3, [pc, #48]	(8001140 <alarm_Mgmt+0x7c>)
 800110e:	681b      	ldr	r3, [r3, #0]
 8001110:	ebc3 0302 	rsb	r3, r3, r2
 8001114:	2b04      	cmp	r3, #4
 8001116:	d10c      	bne.n	8001132 <alarm_Mgmt+0x6e>
 8001118:	4808      	ldr	r0, [pc, #32]	(800113c <alarm_Mgmt+0x78>)
 800111a:	f04f 0140 	mov.w	r1, #64	; 0x40
 800111e:	f003 f9a9 	bl	8004474 <GPIO_ResetBits>
 8001122:	4a07      	ldr	r2, [pc, #28]	(8001140 <alarm_Mgmt+0x7c>)
 8001124:	f04f 0300 	mov.w	r3, #0	; 0x0
 8001128:	6013      	str	r3, [r2, #0]
 800112a:	4a03      	ldr	r2, [pc, #12]	(8001138 <alarm_Mgmt+0x74>)
 800112c:	f04f 0301 	mov.w	r3, #1	; 0x1
 8001130:	6013      	str	r3, [r2, #0]
 8001132:	b001      	add	sp, #4
 8001134:	bd00      	pop	{pc}
 8001136:	46c0      	nop			(mov r8, r8)
 8001138:	200000dc 	.word	0x200000dc
 800113c:	40011000 	.word	0x40011000
 8001140:	200000e0 	.word	0x200000e0

08001144 <DateUpdate>:
 8001144:	b500      	push	{lr}
 8001146:	f04f 0008 	mov.w	r0, #8	; 0x8
 800114a:	f002 faeb 	bl	8003724 <BKP_ReadBackupRegister>
 800114e:	4603      	mov	r3, r0
 8001150:	b2db      	uxtb	r3, r3
 8001152:	4a6b      	ldr	r2, [pc, #428]	(8001300 <DateUpdate+0x1bc>)
 8001154:	7013      	strb	r3, [r2, #0]
 8001156:	f04f 0010 	mov.w	r0, #16	; 0x10
 800115a:	f002 fae3 	bl	8003724 <BKP_ReadBackupRegister>
 800115e:	4603      	mov	r3, r0
 8001160:	4a67      	ldr	r2, [pc, #412]	(8001300 <DateUpdate+0x1bc>)
 8001162:	8053      	strh	r3, [r2, #2]
 8001164:	f04f 000c 	mov.w	r0, #12	; 0xc
 8001168:	f002 fadc 	bl	8003724 <BKP_ReadBackupRegister>
 800116c:	4603      	mov	r3, r0
 800116e:	b2db      	uxtb	r3, r3
 8001170:	4a63      	ldr	r2, [pc, #396]	(8001300 <DateUpdate+0x1bc>)
 8001172:	7053      	strb	r3, [r2, #1]
 8001174:	4b62      	ldr	r3, [pc, #392]	(8001300 <DateUpdate+0x1bc>)
 8001176:	781b      	ldrb	r3, [r3, #0]
 8001178:	2b01      	cmp	r3, #1
 800117a:	d017      	beq.n	80011ac <DateUpdate+0x68>
 800117c:	4b60      	ldr	r3, [pc, #384]	(8001300 <DateUpdate+0x1bc>)
 800117e:	781b      	ldrb	r3, [r3, #0]
 8001180:	2b03      	cmp	r3, #3
 8001182:	d013      	beq.n	80011ac <DateUpdate+0x68>
 8001184:	4b5e      	ldr	r3, [pc, #376]	(8001300 <DateUpdate+0x1bc>)
 8001186:	781b      	ldrb	r3, [r3, #0]
 8001188:	2b05      	cmp	r3, #5
 800118a:	d00f      	beq.n	80011ac <DateUpdate+0x68>
 800118c:	4b5c      	ldr	r3, [pc, #368]	(8001300 <DateUpdate+0x1bc>)
 800118e:	781b      	ldrb	r3, [r3, #0]
 8001190:	2b07      	cmp	r3, #7
 8001192:	d00b      	beq.n	80011ac <DateUpdate+0x68>
 8001194:	4b5a      	ldr	r3, [pc, #360]	(8001300 <DateUpdate+0x1bc>)
 8001196:	781b      	ldrb	r3, [r3, #0]
 8001198:	2b08      	cmp	r3, #8
 800119a:	d007      	beq.n	80011ac <DateUpdate+0x68>
 800119c:	4b58      	ldr	r3, [pc, #352]	(8001300 <DateUpdate+0x1bc>)
 800119e:	781b      	ldrb	r3, [r3, #0]
 80011a0:	2b0a      	cmp	r3, #10
 80011a2:	d003      	beq.n	80011ac <DateUpdate+0x68>
 80011a4:	4b56      	ldr	r3, [pc, #344]	(8001300 <DateUpdate+0x1bc>)
 80011a6:	781b      	ldrb	r3, [r3, #0]
 80011a8:	2b0c      	cmp	r3, #12
 80011aa:	d12b      	bne.n	8001204 <DateUpdate+0xc0>
 80011ac:	4b54      	ldr	r3, [pc, #336]	(8001300 <DateUpdate+0x1bc>)
 80011ae:	785b      	ldrb	r3, [r3, #1]
 80011b0:	2b1e      	cmp	r3, #30
 80011b2:	d807      	bhi.n	80011c4 <DateUpdate+0x80>
 80011b4:	4b52      	ldr	r3, [pc, #328]	(8001300 <DateUpdate+0x1bc>)
 80011b6:	785b      	ldrb	r3, [r3, #1]
 80011b8:	f103 0301 	add.w	r3, r3, #1	; 0x1
 80011bc:	b2db      	uxtb	r3, r3
 80011be:	4a50      	ldr	r2, [pc, #320]	(8001300 <DateUpdate+0x1bc>)
 80011c0:	7053      	strb	r3, [r2, #1]
 80011c2:	e086      	b.n	80012d2 <DateUpdate+0x18e>
 80011c4:	4b4e      	ldr	r3, [pc, #312]	(8001300 <DateUpdate+0x1bc>)
 80011c6:	781b      	ldrb	r3, [r3, #0]
 80011c8:	2b0c      	cmp	r3, #12
 80011ca:	d00b      	beq.n	80011e4 <DateUpdate+0xa0>
 80011cc:	4b4c      	ldr	r3, [pc, #304]	(8001300 <DateUpdate+0x1bc>)
 80011ce:	781b      	ldrb	r3, [r3, #0]
 80011d0:	f103 0301 	add.w	r3, r3, #1	; 0x1
 80011d4:	b2db      	uxtb	r3, r3
 80011d6:	4a4a      	ldr	r2, [pc, #296]	(8001300 <DateUpdate+0x1bc>)
 80011d8:	7013      	strb	r3, [r2, #0]
 80011da:	4a49      	ldr	r2, [pc, #292]	(8001300 <DateUpdate+0x1bc>)
 80011dc:	f04f 0301 	mov.w	r3, #1	; 0x1
 80011e0:	7053      	strb	r3, [r2, #1]
 80011e2:	e076      	b.n	80012d2 <DateUpdate+0x18e>
 80011e4:	4a46      	ldr	r2, [pc, #280]	(8001300 <DateUpdate+0x1bc>)
 80011e6:	f04f 0301 	mov.w	r3, #1	; 0x1
 80011ea:	7013      	strb	r3, [r2, #0]
 80011ec:	4a44      	ldr	r2, [pc, #272]	(8001300 <DateUpdate+0x1bc>)
 80011ee:	f04f 0301 	mov.w	r3, #1	; 0x1
 80011f2:	7053      	strb	r3, [r2, #1]
 80011f4:	4b42      	ldr	r3, [pc, #264]	(8001300 <DateUpdate+0x1bc>)
 80011f6:	885b      	ldrh	r3, [r3, #2]
 80011f8:	f103 0301 	add.w	r3, r3, #1	; 0x1
 80011fc:	b29b      	uxth	r3, r3
 80011fe:	4a40      	ldr	r2, [pc, #256]	(8001300 <DateUpdate+0x1bc>)
 8001200:	8053      	strh	r3, [r2, #2]
 8001202:	e066      	b.n	80012d2 <DateUpdate+0x18e>
 8001204:	4b3e      	ldr	r3, [pc, #248]	(8001300 <DateUpdate+0x1bc>)
 8001206:	781b      	ldrb	r3, [r3, #0]
 8001208:	2b04      	cmp	r3, #4
 800120a:	d00b      	beq.n	8001224 <DateUpdate+0xe0>
 800120c:	4b3c      	ldr	r3, [pc, #240]	(8001300 <DateUpdate+0x1bc>)
 800120e:	781b      	ldrb	r3, [r3, #0]
 8001210:	2b06      	cmp	r3, #6
 8001212:	d007      	beq.n	8001224 <DateUpdate+0xe0>
 8001214:	4b3a      	ldr	r3, [pc, #232]	(8001300 <DateUpdate+0x1bc>)
 8001216:	781b      	ldrb	r3, [r3, #0]
 8001218:	2b09      	cmp	r3, #9
 800121a:	d003      	beq.n	8001224 <DateUpdate+0xe0>
 800121c:	4b38      	ldr	r3, [pc, #224]	(8001300 <DateUpdate+0x1bc>)
 800121e:	781b      	ldrb	r3, [r3, #0]
 8001220:	2b0b      	cmp	r3, #11
 8001222:	d117      	bne.n	8001254 <DateUpdate+0x110>
 8001224:	4b36      	ldr	r3, [pc, #216]	(8001300 <DateUpdate+0x1bc>)
 8001226:	785b      	ldrb	r3, [r3, #1]
 8001228:	2b1d      	cmp	r3, #29
 800122a:	d807      	bhi.n	800123c <DateUpdate+0xf8>
 800122c:	4b34      	ldr	r3, [pc, #208]	(8001300 <DateUpdate+0x1bc>)
 800122e:	785b      	ldrb	r3, [r3, #1]
 8001230:	f103 0301 	add.w	r3, r3, #1	; 0x1
 8001234:	b2db      	uxtb	r3, r3
 8001236:	4a32      	ldr	r2, [pc, #200]	(8001300 <DateUpdate+0x1bc>)
 8001238:	7053      	strb	r3, [r2, #1]
 800123a:	e04a      	b.n	80012d2 <DateUpdate+0x18e>
 800123c:	4b30      	ldr	r3, [pc, #192]	(8001300 <DateUpdate+0x1bc>)
 800123e:	781b      	ldrb	r3, [r3, #0]
 8001240:	f103 0301 	add.w	r3, r3, #1	; 0x1
 8001244:	b2db      	uxtb	r3, r3
 8001246:	4a2e      	ldr	r2, [pc, #184]	(8001300 <DateUpdate+0x1bc>)
 8001248:	7013      	strb	r3, [r2, #0]
 800124a:	4a2d      	ldr	r2, [pc, #180]	(8001300 <DateUpdate+0x1bc>)
 800124c:	f04f 0301 	mov.w	r3, #1	; 0x1
 8001250:	7053      	strb	r3, [r2, #1]
 8001252:	e03e      	b.n	80012d2 <DateUpdate+0x18e>
 8001254:	4b2a      	ldr	r3, [pc, #168]	(8001300 <DateUpdate+0x1bc>)
 8001256:	781b      	ldrb	r3, [r3, #0]
 8001258:	2b02      	cmp	r3, #2
 800125a:	d13a      	bne.n	80012d2 <DateUpdate+0x18e>
 800125c:	4b28      	ldr	r3, [pc, #160]	(8001300 <DateUpdate+0x1bc>)
 800125e:	785b      	ldrb	r3, [r3, #1]
 8001260:	2b1b      	cmp	r3, #27
 8001262:	d807      	bhi.n	8001274 <DateUpdate+0x130>
 8001264:	4b26      	ldr	r3, [pc, #152]	(8001300 <DateUpdate+0x1bc>)
 8001266:	785b      	ldrb	r3, [r3, #1]
 8001268:	f103 0301 	add.w	r3, r3, #1	; 0x1
 800126c:	b2db      	uxtb	r3, r3
 800126e:	4a24      	ldr	r2, [pc, #144]	(8001300 <DateUpdate+0x1bc>)
 8001270:	7053      	strb	r3, [r2, #1]
 8001272:	e02e      	b.n	80012d2 <DateUpdate+0x18e>
 8001274:	4b22      	ldr	r3, [pc, #136]	(8001300 <DateUpdate+0x1bc>)
 8001276:	785b      	ldrb	r3, [r3, #1]
 8001278:	2b1c      	cmp	r3, #28
 800127a:	d11b      	bne.n	80012b4 <DateUpdate+0x170>
 800127c:	4b20      	ldr	r3, [pc, #128]	(8001300 <DateUpdate+0x1bc>)
 800127e:	885b      	ldrh	r3, [r3, #2]
 8001280:	4618      	mov	r0, r3
 8001282:	f000 f83f 	bl	8001304 <CheckLeap>
 8001286:	4603      	mov	r3, r0
 8001288:	2b00      	cmp	r3, #0
 800128a:	d007      	beq.n	800129c <DateUpdate+0x158>
 800128c:	4b1c      	ldr	r3, [pc, #112]	(8001300 <DateUpdate+0x1bc>)
 800128e:	785b      	ldrb	r3, [r3, #1]
 8001290:	f103 0301 	add.w	r3, r3, #1	; 0x1
 8001294:	b2db      	uxtb	r3, r3
 8001296:	4a1a      	ldr	r2, [pc, #104]	(8001300 <DateUpdate+0x1bc>)
 8001298:	7053      	strb	r3, [r2, #1]
 800129a:	e01a      	b.n	80012d2 <DateUpdate+0x18e>
 800129c:	4b18      	ldr	r3, [pc, #96]	(8001300 <DateUpdate+0x1bc>)
 800129e:	781b      	ldrb	r3, [r3, #0]
 80012a0:	f103 0301 	add.w	r3, r3, #1	; 0x1
 80012a4:	b2db      	uxtb	r3, r3
 80012a6:	4a16      	ldr	r2, [pc, #88]	(8001300 <DateUpdate+0x1bc>)
 80012a8:	7013      	strb	r3, [r2, #0]
 80012aa:	4a15      	ldr	r2, [pc, #84]	(8001300 <DateUpdate+0x1bc>)
 80012ac:	f04f 0301 	mov.w	r3, #1	; 0x1
 80012b0:	7053      	strb	r3, [r2, #1]
 80012b2:	e00e      	b.n	80012d2 <DateUpdate+0x18e>
 80012b4:	4b12      	ldr	r3, [pc, #72]	(8001300 <DateUpdate+0x1bc>)
 80012b6:	785b      	ldrb	r3, [r3, #1]
 80012b8:	2b1d      	cmp	r3, #29
 80012ba:	d10a      	bne.n	80012d2 <DateUpdate+0x18e>
 80012bc:	4b10      	ldr	r3, [pc, #64]	(8001300 <DateUpdate+0x1bc>)
 80012be:	781b      	ldrb	r3, [r3, #0]
 80012c0:	f103 0301 	add.w	r3, r3, #1	; 0x1
 80012c4:	b2db      	uxtb	r3, r3
 80012c6:	4a0e      	ldr	r2, [pc, #56]	(8001300 <DateUpdate+0x1bc>)
 80012c8:	7013      	strb	r3, [r2, #0]
 80012ca:	4a0d      	ldr	r2, [pc, #52]	(8001300 <DateUpdate+0x1bc>)
 80012cc:	f04f 0301 	mov.w	r3, #1	; 0x1
 80012d0:	7053      	strb	r3, [r2, #1]
 80012d2:	4b0b      	ldr	r3, [pc, #44]	(8001300 <DateUpdate+0x1bc>)
 80012d4:	781b      	ldrb	r3, [r3, #0]
 80012d6:	f04f 0008 	mov.w	r0, #8	; 0x8
 80012da:	4619      	mov	r1, r3
 80012dc:	f002 fa0e 	bl	80036fc <BKP_WriteBackupRegister>
 80012e0:	4b07      	ldr	r3, [pc, #28]	(8001300 <DateUpdate+0x1bc>)
 80012e2:	785b      	ldrb	r3, [r3, #1]
 80012e4:	f04f 000c 	mov.w	r0, #12	; 0xc
 80012e8:	4619      	mov	r1, r3
 80012ea:	f002 fa07 	bl	80036fc <BKP_WriteBackupRegister>
 80012ee:	4b04      	ldr	r3, [pc, #16]	(8001300 <DateUpdate+0x1bc>)
 80012f0:	885b      	ldrh	r3, [r3, #2]
 80012f2:	f04f 0010 	mov.w	r0, #16	; 0x10
 80012f6:	4619      	mov	r1, r3
 80012f8:	f002 fa00 	bl	80036fc <BKP_WriteBackupRegister>
 80012fc:	bd00      	pop	{pc}
 80012fe:	46c0      	nop			(mov r8, r8)
 8001300:	200000e4 	.word	0x200000e4

08001304 <CheckLeap>:
 8001304:	b082      	sub	sp, #8
 8001306:	4603      	mov	r3, r0
 8001308:	f8ad 3004 	strh.w	r3, [sp, #4]
 800130c:	f8bd 1004 	ldrh.w	r1, [sp, #4]
 8001310:	4b1f      	ldr	r3, [pc, #124]	(8001390 <CheckLeap+0x8c>)
 8001312:	fba3 2301 	umull	r2, r3, r3, r1
 8001316:	ea4f 13d3 	mov.w	r3, r3, lsr #7
 800131a:	ea4f 1303 	mov.w	r3, r3, lsl #4
 800131e:	ea4f 0283 	mov.w	r2, r3, lsl #2
 8001322:	4413      	add	r3, r2
 8001324:	ea4f 0283 	mov.w	r2, r3, lsl #2
 8001328:	4413      	add	r3, r2
 800132a:	ebc3 0301 	rsb	r3, r3, r1
 800132e:	b29b      	uxth	r3, r3
 8001330:	2b00      	cmp	r3, #0
 8001332:	d103      	bne.n	800133c <CheckLeap+0x38>
 8001334:	f04f 0301 	mov.w	r3, #1	; 0x1
 8001338:	9300      	str	r3, [sp, #0]
 800133a:	e024      	b.n	8001386 <CheckLeap+0x82>
 800133c:	f8bd 1004 	ldrh.w	r1, [sp, #4]
 8001340:	4b13      	ldr	r3, [pc, #76]	(8001390 <CheckLeap+0x8c>)
 8001342:	fba3 2301 	umull	r2, r3, r3, r1
 8001346:	ea4f 1353 	mov.w	r3, r3, lsr #5
 800134a:	ea4f 0383 	mov.w	r3, r3, lsl #2
 800134e:	ea4f 0283 	mov.w	r2, r3, lsl #2
 8001352:	4413      	add	r3, r2
 8001354:	ea4f 0283 	mov.w	r2, r3, lsl #2
 8001358:	4413      	add	r3, r2
 800135a:	ebc3 0301 	rsb	r3, r3, r1
 800135e:	b29b      	uxth	r3, r3
 8001360:	2b00      	cmp	r3, #0
 8001362:	d103      	bne.n	800136c <CheckLeap+0x68>
 8001364:	f04f 0300 	mov.w	r3, #0	; 0x0
 8001368:	9300      	str	r3, [sp, #0]
 800136a:	e00c      	b.n	8001386 <CheckLeap+0x82>
 800136c:	f8bd 3004 	ldrh.w	r3, [sp, #4]
 8001370:	f003 0303 	and.w	r3, r3, #3	; 0x3
 8001374:	2b00      	cmp	r3, #0
 8001376:	d103      	bne.n	8001380 <CheckLeap+0x7c>
 8001378:	f04f 0201 	mov.w	r2, #1	; 0x1
 800137c:	9200      	str	r2, [sp, #0]
 800137e:	e002      	b.n	8001386 <CheckLeap+0x82>
 8001380:	f04f 0300 	mov.w	r3, #0	; 0x0
 8001384:	9300      	str	r3, [sp, #0]
 8001386:	9b00      	ldr	r3, [sp, #0]
 8001388:	4618      	mov	r0, r3
 800138a:	b002      	add	sp, #8
 800138c:	4770      	bx	lr
 800138e:	46c0      	nop			(mov r8, r8)
 8001390:	51eb851f 	.word	0x51eb851f

08001394 <WeekDay>:
 8001394:	b086      	sub	sp, #24
 8001396:	4603      	mov	r3, r0
 8001398:	f8ad 3008 	strh.w	r3, [sp, #8]
 800139c:	460b      	mov	r3, r1
 800139e:	f88d 3004 	strb.w	r3, [sp, #4]
 80013a2:	4613      	mov	r3, r2
 80013a4:	f88d 3000 	strb.w	r3, [sp]
 80013a8:	f89d 3004 	ldrb.w	r3, [sp, #4]
 80013ac:	2b02      	cmp	r3, #2
 80013ae:	d80b      	bhi.n	80013c8 <WeekDay+0x34>
 80013b0:	f89d 3004 	ldrb.w	r3, [sp, #4]
 80013b4:	f103 030c 	add.w	r3, r3, #12	; 0xc
 80013b8:	f88d 3004 	strb.w	r3, [sp, #4]
 80013bc:	f8bd 3008 	ldrh.w	r3, [sp, #8]
 80013c0:	f103 33ff 	add.w	r3, r3, #4294967295	; 0xffffffff
 80013c4:	f8ad 3008 	strh.w	r3, [sp, #8]
 80013c8:	f89d 3004 	ldrb.w	r3, [sp, #4]
 80013cc:	f103 0301 	add.w	r3, r3, #1	; 0x1
 80013d0:	ea4f 0243 	mov.w	r2, r3, lsl #1
 80013d4:	ea4f 0382 	mov.w	r3, r2, lsl #2
 80013d8:	ebc2 0103 	rsb	r1, r2, r3
 80013dc:	4b2f      	ldr	r3, [pc, #188]	(800149c <WeekDay+0x108>)
 80013de:	fb83 0301 	smull	r0, r3, r3, r1
 80013e2:	ea4f 02a3 	mov.w	r2, r3, asr #2
 80013e6:	ea4f 73e1 	mov.w	r3, r1, asr #31
 80013ea:	ebc3 0302 	rsb	r3, r3, r2
 80013ee:	f8ad 300e 	strh.w	r3, [sp, #14]
 80013f2:	f8bd 3008 	ldrh.w	r3, [sp, #8]
 80013f6:	ea4f 0393 	mov.w	r3, r3, lsr #2
 80013fa:	f8ad 3010 	strh.w	r3, [sp, #16]
 80013fe:	f8bd 2008 	ldrh.w	r2, [sp, #8]
 8001402:	4b27      	ldr	r3, [pc, #156]	(80014a0 <WeekDay+0x10c>)
 8001404:	fba3 1302 	umull	r1, r3, r3, r2
 8001408:	ea4f 1353 	mov.w	r3, r3, lsr #5
 800140c:	f8ad 3012 	strh.w	r3, [sp, #18]
 8001410:	f8bd 2008 	ldrh.w	r2, [sp, #8]
 8001414:	4b22      	ldr	r3, [pc, #136]	(80014a0 <WeekDay+0x10c>)
 8001416:	fba3 0302 	umull	r0, r3, r3, r2
 800141a:	ea4f 13d3 	mov.w	r3, r3, lsr #7
 800141e:	f8ad 3014 	strh.w	r3, [sp, #20]
 8001422:	f89d 2000 	ldrb.w	r2, [sp]
 8001426:	f89d 3004 	ldrb.w	r3, [sp, #4]
 800142a:	ea4f 0343 	mov.w	r3, r3, lsl #1
 800142e:	b29b      	uxth	r3, r3
 8001430:	4413      	add	r3, r2
 8001432:	b29a      	uxth	r2, r3
 8001434:	f8bd 300e 	ldrh.w	r3, [sp, #14]
 8001438:	4413      	add	r3, r2
 800143a:	b29a      	uxth	r2, r3
 800143c:	f8bd 3008 	ldrh.w	r3, [sp, #8]
 8001440:	4413      	add	r3, r2
 8001442:	b29a      	uxth	r2, r3
 8001444:	f8bd 3010 	ldrh.w	r3, [sp, #16]
 8001448:	4413      	add	r3, r2
 800144a:	b29a      	uxth	r2, r3
 800144c:	f8bd 3012 	ldrh.w	r3, [sp, #18]
 8001450:	ebc3 0302 	rsb	r3, r3, r2
 8001454:	b29a      	uxth	r2, r3
 8001456:	f8bd 3014 	ldrh.w	r3, [sp, #20]
 800145a:	4413      	add	r3, r2
 800145c:	b29b      	uxth	r3, r3
 800145e:	f103 0301 	add.w	r3, r3, #1	; 0x1
 8001462:	f8ad 3016 	strh.w	r3, [sp, #22]
 8001466:	f8bd 1016 	ldrh.w	r1, [sp, #22]
 800146a:	4b0e      	ldr	r3, [pc, #56]	(80014a4 <WeekDay+0x110>)
 800146c:	fba3 0201 	umull	r0, r2, r3, r1
 8001470:	ebc2 0301 	rsb	r3, r2, r1
 8001474:	ea4f 0353 	mov.w	r3, r3, lsr #1
 8001478:	4413      	add	r3, r2
 800147a:	ea4f 0293 	mov.w	r2, r3, lsr #2
 800147e:	4613      	mov	r3, r2
 8001480:	ea4f 03c3 	mov.w	r3, r3, lsl #3
 8001484:	ebc2 0303 	rsb	r3, r2, r3
 8001488:	ebc3 0301 	rsb	r3, r3, r1
 800148c:	f8ad 3016 	strh.w	r3, [sp, #22]
 8001490:	f8bd 3016 	ldrh.w	r3, [sp, #22]
 8001494:	4618      	mov	r0, r3
 8001496:	b006      	add	sp, #24
 8001498:	4770      	bx	lr
 800149a:	46c0      	nop			(mov r8, r8)
 800149c:	66666667 	.word	0x66666667
 80014a0:	51eb851f 	.word	0x51eb851f
 80014a4:	24924925 	.word	0x24924925

080014a8 <CalculateTime>:
 80014a8:	b500      	push	{lr}
 80014aa:	b081      	sub	sp, #4
 80014ac:	f7ff fa44 	bl	8000938 <get_sec_counter>
 80014b0:	4603      	mov	r3, r0
 80014b2:	9300      	str	r3, [sp, #0]
 80014b4:	9900      	ldr	r1, [sp, #0]
 80014b6:	4b06      	ldr	r3, [pc, #24]	(80014d0 <CalculateTime+0x28>)
 80014b8:	fba3 2301 	umull	r2, r3, r3, r1
 80014bc:	ea4f 4213 	mov.w	r2, r3, lsr #16
 80014c0:	4b04      	ldr	r3, [pc, #16]	(80014d4 <CalculateTime+0x2c>)
 80014c2:	fb03 f302 	mul.w	r3, r3, r2
 80014c6:	ebc3 0301 	rsb	r3, r3, r1
 80014ca:	9300      	str	r3, [sp, #0]
 80014cc:	b001      	add	sp, #4
 80014ce:	bd00      	pop	{pc}
 80014d0:	c22e4507 	.word	0xc22e4507
 80014d4:	00015180 	.word	0x00015180

080014d8 <CheckForDaysElapsed>:
 80014d8:	b510      	push	{r4, lr}
 80014da:	b082      	sub	sp, #8
 80014dc:	f7ff fa2c 	bl	8000938 <get_sec_counter>
 80014e0:	4602      	mov	r2, r0
 80014e2:	4b1d      	ldr	r3, [pc, #116]	(8001558 <CheckForDaysElapsed+0x80>)
 80014e4:	429a      	cmp	r2, r3
 80014e6:	d935      	bls.n	8001554 <CheckForDaysElapsed+0x7c>
 80014e8:	f04f 0300 	mov.w	r3, #0	; 0x0
 80014ec:	f88d 3007 	strb.w	r3, [sp, #7]
 80014f0:	e007      	b.n	8001502 <CheckForDaysElapsed+0x2a>
 80014f2:	f7ff fe27 	bl	8001144 <DateUpdate>
 80014f6:	f89d 3007 	ldrb.w	r3, [sp, #7]
 80014fa:	f103 0301 	add.w	r3, r3, #1	; 0x1
 80014fe:	f88d 3007 	strb.w	r3, [sp, #7]
 8001502:	f89d 4007 	ldrb.w	r4, [sp, #7]
 8001506:	f7ff fa17 	bl	8000938 <get_sec_counter>
 800150a:	4602      	mov	r2, r0
 800150c:	4b13      	ldr	r3, [pc, #76]	(800155c <CheckForDaysElapsed+0x84>)
 800150e:	fba3 0102 	umull	r0, r1, r3, r2
 8001512:	ebc1 0302 	rsb	r3, r1, r2
 8001516:	ea4f 0353 	mov.w	r3, r3, lsr #1
 800151a:	440b      	add	r3, r1
 800151c:	ea4f 4313 	mov.w	r3, r3, lsr #16
 8001520:	429c      	cmp	r4, r3
 8001522:	d3e6      	bcc.n	80014f2 <CheckForDaysElapsed+0x1a>
 8001524:	f7ff fa08 	bl	8000938 <get_sec_counter>
 8001528:	4601      	mov	r1, r0
 800152a:	4b0c      	ldr	r3, [pc, #48]	(800155c <CheckForDaysElapsed+0x84>)
 800152c:	fba3 0201 	umull	r0, r2, r3, r1
 8001530:	ebc2 0301 	rsb	r3, r2, r1
 8001534:	ea4f 0353 	mov.w	r3, r3, lsr #1
 8001538:	4413      	add	r3, r2
 800153a:	ea4f 4313 	mov.w	r3, r3, lsr #16
 800153e:	9300      	str	r3, [sp, #0]
 8001540:	4b07      	ldr	r3, [pc, #28]	(8001560 <CheckForDaysElapsed+0x88>)
 8001542:	9a00      	ldr	r2, [sp, #0]
 8001544:	fb03 f302 	mul.w	r3, r3, r2
 8001548:	ebc3 0301 	rsb	r3, r3, r1
 800154c:	9300      	str	r3, [sp, #0]
 800154e:	9800      	ldr	r0, [sp, #0]
 8001550:	f7ff f9f8 	bl	8000944 <set_sec_counter>
 8001554:	b002      	add	sp, #8
 8001556:	bd10      	pop	{r4, pc}
 8001558:	0001517e 	.word	0x0001517e
 800155c:	845db0a3 	.word	0x845db0a3
 8001560:	0001517f 	.word	0x0001517f

08001564 <Set_System>:
 8001564:	b500      	push	{lr}
 8001566:	f000 fb91 	bl	8001c8c <SystemInit>
 800156a:	4b24      	ldr	r3, [pc, #144]	(80015fc <Set_System+0x98>)
 800156c:	681b      	ldr	r3, [r3, #0]
 800156e:	461a      	mov	r2, r3
 8001570:	4b23      	ldr	r3, [pc, #140]	(8001600 <Set_System+0x9c>)
 8001572:	601a      	str	r2, [r3, #0]
 8001574:	4b22      	ldr	r3, [pc, #136]	(8001600 <Set_System+0x9c>)
 8001576:	6819      	ldr	r1, [r3, #0]
 8001578:	4b22      	ldr	r3, [pc, #136]	(8001604 <Set_System+0xa0>)
 800157a:	fb83 2301 	smull	r2, r3, r3, r1
 800157e:	ea4f 12a3 	mov.w	r2, r3, asr #6
 8001582:	ea4f 73e1 	mov.w	r3, r1, asr #31
 8001586:	ebc3 0302 	rsb	r3, r3, r2
 800158a:	4618      	mov	r0, r3
 800158c:	f000 f83e 	bl	800160c <SysTick_Config>
 8001590:	481d      	ldr	r0, [pc, #116]	(8001608 <Set_System+0xa4>)
 8001592:	f7ff f88d 	bl	80006b0 <printf_init>
 8001596:	f04f 50c0 	mov.w	r0, #402653184	; 0x18000000
 800159a:	f04f 0101 	mov.w	r1, #1	; 0x1
 800159e:	f001 ff59 	bl	8003454 <RCC_APB1PeriphClockCmd>
 80015a2:	f44f 4080 	mov.w	r0, #16384	; 0x4000
 80015a6:	f04f 0101 	mov.w	r1, #1	; 0x1
 80015aa:	f001 ff37 	bl	800341c <RCC_APB2PeriphClockCmd>
 80015ae:	f04f 0004 	mov.w	r0, #4	; 0x4
 80015b2:	f04f 0101 	mov.w	r1, #1	; 0x1
 80015b6:	f001 ff31 	bl	800341c <RCC_APB2PeriphClockCmd>
 80015ba:	f04f 0008 	mov.w	r0, #8	; 0x8
 80015be:	f04f 0101 	mov.w	r1, #1	; 0x1
 80015c2:	f001 ff2b 	bl	800341c <RCC_APB2PeriphClockCmd>
 80015c6:	f04f 0010 	mov.w	r0, #16	; 0x10
 80015ca:	f04f 0101 	mov.w	r1, #1	; 0x1
 80015ce:	f001 ff25 	bl	800341c <RCC_APB2PeriphClockCmd>
 80015d2:	f04f 0020 	mov.w	r0, #32	; 0x20
 80015d6:	f04f 0101 	mov.w	r1, #1	; 0x1
 80015da:	f001 ff1f 	bl	800341c <RCC_APB2PeriphClockCmd>
 80015de:	f04f 001c 	mov.w	r0, #28	; 0x1c
 80015e2:	f04f 0100 	mov.w	r1, #0	; 0x0
 80015e6:	f001 ff51 	bl	800348c <RCC_APB2PeriphResetCmd>
 80015ea:	f000 f9bb 	bl	8001964 <GPIO_Configuration>
 80015ee:	f000 f88d 	bl	800170c <USART_Config>
 80015f2:	f000 f857 	bl	80016a4 <Interrupts_Config>
 80015f6:	f006 fd79 	bl	80080ec <FLASH_Unlock>
 80015fa:	bd00      	pop	{pc}
 80015fc:	080092e8 	.word	0x080092e8
 8001600:	200000f8 	.word	0x200000f8
 8001604:	10624dd3 	.word	0x10624dd3
 8001608:	080018fd 	.word	0x080018fd

0800160c <SysTick_Config>:
 800160c:	b500      	push	{lr}
 800160e:	b082      	sub	sp, #8
 8001610:	9001      	str	r0, [sp, #4]
 8001612:	9a01      	ldr	r2, [sp, #4]
 8001614:	f06f 437f 	mvn.w	r3, #4278190080	; 0xff000000
 8001618:	429a      	cmp	r2, r3
 800161a:	d903      	bls.n	8001624 <SysTick_Config+0x18>
 800161c:	f04f 0301 	mov.w	r3, #1	; 0x1
 8001620:	9300      	str	r3, [sp, #0]
 8001622:	e017      	b.n	8001654 <SysTick_Config+0x48>
 8001624:	4a0d      	ldr	r2, [pc, #52]	(800165c <SysTick_Config+0x50>)
 8001626:	9b01      	ldr	r3, [sp, #4]
 8001628:	f023 437f 	bic.w	r3, r3, #4278190080	; 0xff000000
 800162c:	f103 33ff 	add.w	r3, r3, #4294967295	; 0xffffffff
 8001630:	6053      	str	r3, [r2, #4]
 8001632:	f04f 30ff 	mov.w	r0, #4294967295	; 0xffffffff
 8001636:	f04f 010f 	mov.w	r1, #15	; 0xf
 800163a:	f000 f811 	bl	8001660 <NVIC_SetPriority>
 800163e:	4a07      	ldr	r2, [pc, #28]	(800165c <SysTick_Config+0x50>)
 8001640:	f04f 0300 	mov.w	r3, #0	; 0x0
 8001644:	6093      	str	r3, [r2, #8]
 8001646:	4a05      	ldr	r2, [pc, #20]	(800165c <SysTick_Config+0x50>)
 8001648:	f04f 0307 	mov.w	r3, #7	; 0x7
 800164c:	6013      	str	r3, [r2, #0]
 800164e:	f04f 0300 	mov.w	r3, #0	; 0x0
 8001652:	9300      	str	r3, [sp, #0]
 8001654:	9b00      	ldr	r3, [sp, #0]
 8001656:	4618      	mov	r0, r3
 8001658:	b002      	add	sp, #8
 800165a:	bd00      	pop	{pc}
 800165c:	e000e010 	.word	0xe000e010

08001660 <NVIC_SetPriority>:
 8001660:	b082      	sub	sp, #8
 8001662:	9001      	str	r0, [sp, #4]
 8001664:	9100      	str	r1, [sp, #0]
 8001666:	9b01      	ldr	r3, [sp, #4]
 8001668:	2b00      	cmp	r3, #0
 800166a:	da0c      	bge.n	8001686 <NVIC_SetPriority+0x26>
 800166c:	490b      	ldr	r1, [pc, #44]	(800169c <NVIC_SetPriority+0x3c>)
 800166e:	9b01      	ldr	r3, [sp, #4]
 8001670:	f003 030f 	and.w	r3, r3, #15	; 0xf
 8001674:	f1a3 0204 	sub.w	r2, r3, #4	; 0x4
 8001678:	9b00      	ldr	r3, [sp, #0]
 800167a:	ea4f 1303 	mov.w	r3, r3, lsl #4
 800167e:	b2db      	uxtb	r3, r3
 8001680:	440a      	add	r2, r1
 8001682:	7613      	strb	r3, [r2, #24]
 8001684:	e008      	b.n	8001698 <NVIC_SetPriority+0x38>
 8001686:	4a06      	ldr	r2, [pc, #24]	(80016a0 <NVIC_SetPriority+0x40>)
 8001688:	9901      	ldr	r1, [sp, #4]
 800168a:	9b00      	ldr	r3, [sp, #0]
 800168c:	ea4f 1303 	mov.w	r3, r3, lsl #4
 8001690:	b2db      	uxtb	r3, r3
 8001692:	440a      	add	r2, r1
 8001694:	f882 3300 	strb.w	r3, [r2, #768]
 8001698:	b002      	add	sp, #8
 800169a:	4770      	bx	lr
 800169c:	e000ed00 	.word	0xe000ed00
 80016a0:	e000e100 	.word	0xe000e100

080016a4 <Interrupts_Config>:
 80016a4:	b500      	push	{lr}
 80016a6:	b082      	sub	sp, #8
 80016a8:	f04f 6000 	mov.w	r0, #134217728	; 0x8000000
 80016ac:	f04f 0100 	mov.w	r1, #0	; 0x0
 80016b0:	f000 fc24 	bl	8001efc <NVIC_SetVectorTable>
 80016b4:	f44f 60a0 	mov.w	r0, #1280	; 0x500
 80016b8:	f000 fba8 	bl	8001e0c <NVIC_PriorityGroupConfig>
 80016bc:	f04f 0303 	mov.w	r3, #3	; 0x3
 80016c0:	f88d 3000 	strb.w	r3, [sp]
 80016c4:	f04f 0303 	mov.w	r3, #3	; 0x3
 80016c8:	f88d 3001 	strb.w	r3, [sp, #1]
 80016cc:	f04f 0300 	mov.w	r3, #0	; 0x0
 80016d0:	f88d 3002 	strb.w	r3, [sp, #2]
 80016d4:	f04f 0301 	mov.w	r3, #1	; 0x1
 80016d8:	9301      	str	r3, [sp, #4]
 80016da:	466b      	mov	r3, sp
 80016dc:	4618      	mov	r0, r3
 80016de:	f000 fba3 	bl	8001e28 <NVIC_Init>
 80016e2:	f04f 0325 	mov.w	r3, #37	; 0x25
 80016e6:	f88d 3000 	strb.w	r3, [sp]
 80016ea:	f04f 0300 	mov.w	r3, #0	; 0x0
 80016ee:	f88d 3001 	strb.w	r3, [sp, #1]
 80016f2:	f04f 0300 	mov.w	r3, #0	; 0x0
 80016f6:	f88d 3002 	strb.w	r3, [sp, #2]
 80016fa:	f04f 0301 	mov.w	r3, #1	; 0x1
 80016fe:	9301      	str	r3, [sp, #4]
 8001700:	466b      	mov	r3, sp
 8001702:	4618      	mov	r0, r3
 8001704:	f000 fb90 	bl	8001e28 <NVIC_Init>
 8001708:	b002      	add	sp, #8
 800170a:	bd00      	pop	{pc}

0800170c <USART_Config>:
 800170c:	b500      	push	{lr}
 800170e:	b084      	sub	sp, #16
 8001710:	4816      	ldr	r0, [pc, #88]	(800176c <USART_Config+0x60>)
 8001712:	f002 fff5 	bl	8004700 <USART_DeInit>
 8001716:	f44f 33e1 	mov.w	r3, #115200	; 0x1c200
 800171a:	9300      	str	r3, [sp, #0]
 800171c:	f04f 0300 	mov.w	r3, #0	; 0x0
 8001720:	f8ad 3004 	strh.w	r3, [sp, #4]
 8001724:	f04f 0300 	mov.w	r3, #0	; 0x0
 8001728:	f8ad 3006 	strh.w	r3, [sp, #6]
 800172c:	f04f 0300 	mov.w	r3, #0	; 0x0
 8001730:	f8ad 3008 	strh.w	r3, [sp, #8]
 8001734:	f04f 0300 	mov.w	r3, #0	; 0x0
 8001738:	f8ad 300c 	strh.w	r3, [sp, #12]
 800173c:	f04f 0308 	mov.w	r3, #8	; 0x8
 8001740:	f8ad 300a 	strh.w	r3, [sp, #10]
 8001744:	466b      	mov	r3, sp
 8001746:	4809      	ldr	r0, [pc, #36]	(800176c <USART_Config+0x60>)
 8001748:	4619      	mov	r1, r3
 800174a:	f003 f845 	bl	80047d8 <USART_Init>
 800174e:	4a08      	ldr	r2, [pc, #32]	(8001770 <USART_Config+0x64>)
 8001750:	f04f 0300 	mov.w	r3, #0	; 0x0
 8001754:	8013      	strh	r3, [r2, #0]
 8001756:	4a07      	ldr	r2, [pc, #28]	(8001774 <USART_Config+0x68>)
 8001758:	f04f 0300 	mov.w	r3, #0	; 0x0
 800175c:	8013      	strh	r3, [r2, #0]
 800175e:	4803      	ldr	r0, [pc, #12]	(800176c <USART_Config+0x60>)
 8001760:	f04f 0101 	mov.w	r1, #1	; 0x1
 8001764:	f003 f944 	bl	80049f0 <USART_Cmd>
 8001768:	b004      	add	sp, #16
 800176a:	bd00      	pop	{pc}
 800176c:	40013800 	.word	0x40013800
 8001770:	2000017c 	.word	0x2000017c
 8001774:	2000017e 	.word	0x2000017e

08001778 <USART_Wait_Empty>:
 8001778:	4b04      	ldr	r3, [pc, #16]	(800178c <USART_Wait_Empty+0x14>)
 800177a:	881b      	ldrh	r3, [r3, #0]
 800177c:	b29a      	uxth	r2, r3
 800177e:	4b04      	ldr	r3, [pc, #16]	(8001790 <USART_Wait_Empty+0x18>)
 8001780:	881b      	ldrh	r3, [r3, #0]
 8001782:	b29b      	uxth	r3, r3
 8001784:	429a      	cmp	r2, r3
 8001786:	d1f7      	bne.n	8001778 <USART_Wait_Empty>
 8001788:	4770      	bx	lr
 800178a:	46c0      	nop			(mov r8, r8)
 800178c:	2000017e 	.word	0x2000017e
 8001790:	2000017c 	.word	0x2000017c

08001794 <USART_Send_Char>:
 8001794:	b500      	push	{lr}
 8001796:	b082      	sub	sp, #8
 8001798:	4603      	mov	r3, r0
 800179a:	f88d 3004 	strb.w	r3, [sp, #4]
 800179e:	4b26      	ldr	r3, [pc, #152]	(8001838 <USART_Send_Char+0xa4>)
 80017a0:	881b      	ldrh	r3, [r3, #0]
 80017a2:	b29a      	uxth	r2, r3
 80017a4:	4b25      	ldr	r3, [pc, #148]	(800183c <USART_Send_Char+0xa8>)
 80017a6:	881b      	ldrh	r3, [r3, #0]
 80017a8:	b29b      	uxth	r3, r3
 80017aa:	429a      	cmp	r2, r3
 80017ac:	d90f      	bls.n	80017ce <USART_Send_Char+0x3a>
 80017ae:	4b22      	ldr	r3, [pc, #136]	(8001838 <USART_Send_Char+0xa4>)
 80017b0:	881b      	ldrh	r3, [r3, #0]
 80017b2:	b29b      	uxth	r3, r3
 80017b4:	461a      	mov	r2, r3
 80017b6:	4b21      	ldr	r3, [pc, #132]	(800183c <USART_Send_Char+0xa8>)
 80017b8:	881b      	ldrh	r3, [r3, #0]
 80017ba:	b29b      	uxth	r3, r3
 80017bc:	ebc3 0302 	rsb	r3, r3, r2
 80017c0:	2b7f      	cmp	r3, #127
 80017c2:	bf14      	ite	ne
 80017c4:	2300      	movne	r3, #0
 80017c6:	2301      	moveq	r3, #1
 80017c8:	b2db      	uxtb	r3, r3
 80017ca:	9300      	str	r3, [sp, #0]
 80017cc:	e00e      	b.n	80017ec <USART_Send_Char+0x58>
 80017ce:	4b1b      	ldr	r3, [pc, #108]	(800183c <USART_Send_Char+0xa8>)
 80017d0:	881b      	ldrh	r3, [r3, #0]
 80017d2:	b29b      	uxth	r3, r3
 80017d4:	461a      	mov	r2, r3
 80017d6:	4b18      	ldr	r3, [pc, #96]	(8001838 <USART_Send_Char+0xa4>)
 80017d8:	881b      	ldrh	r3, [r3, #0]
 80017da:	b29b      	uxth	r3, r3
 80017dc:	ebc3 0302 	rsb	r3, r3, r2
 80017e0:	2b01      	cmp	r3, #1
 80017e2:	bf14      	ite	ne
 80017e4:	2300      	movne	r3, #0
 80017e6:	2301      	moveq	r3, #1
 80017e8:	b2db      	uxtb	r3, r3
 80017ea:	9300      	str	r3, [sp, #0]
 80017ec:	9b00      	ldr	r3, [sp, #0]
 80017ee:	2b00      	cmp	r3, #0
 80017f0:	d1d5      	bne.n	800179e <USART_Send_Char+0xa>
 80017f2:	4b11      	ldr	r3, [pc, #68]	(8001838 <USART_Send_Char+0xa4>)
 80017f4:	881b      	ldrh	r3, [r3, #0]
 80017f6:	b29b      	uxth	r3, r3
 80017f8:	4619      	mov	r1, r3
 80017fa:	4a11      	ldr	r2, [pc, #68]	(8001840 <USART_Send_Char+0xac>)
 80017fc:	f89d 3004 	ldrb.w	r3, [sp, #4]
 8001800:	5453      	strb	r3, [r2, r1]
 8001802:	4b0d      	ldr	r3, [pc, #52]	(8001838 <USART_Send_Char+0xa4>)
 8001804:	881b      	ldrh	r3, [r3, #0]
 8001806:	b29b      	uxth	r3, r3
 8001808:	2b7f      	cmp	r3, #127
 800180a:	d104      	bne.n	8001816 <USART_Send_Char+0x82>
 800180c:	4b0a      	ldr	r3, [pc, #40]	(8001838 <USART_Send_Char+0xa4>)
 800180e:	f04f 0200 	mov.w	r2, #0	; 0x0
 8001812:	801a      	strh	r2, [r3, #0]
 8001814:	e007      	b.n	8001826 <USART_Send_Char+0x92>
 8001816:	4b08      	ldr	r3, [pc, #32]	(8001838 <USART_Send_Char+0xa4>)
 8001818:	881b      	ldrh	r3, [r3, #0]
 800181a:	b29b      	uxth	r3, r3
 800181c:	f103 0301 	add.w	r3, r3, #1	; 0x1
 8001820:	b29b      	uxth	r3, r3
 8001822:	4a05      	ldr	r2, [pc, #20]	(8001838 <USART_Send_Char+0xa4>)
 8001824:	8013      	strh	r3, [r2, #0]
 8001826:	4807      	ldr	r0, [pc, #28]	(8001844 <USART_Send_Char+0xb0>)
 8001828:	f240 7127 	movw	r1, #1831	; 0x727
 800182c:	f04f 0201 	mov.w	r2, #1	; 0x1
 8001830:	f003 f8fe 	bl	8004a30 <USART_ITConfig>
 8001834:	b002      	add	sp, #8
 8001836:	bd00      	pop	{pc}
 8001838:	2000017e 	.word	0x2000017e
 800183c:	2000017c 	.word	0x2000017c
 8001840:	200000fc 	.word	0x200000fc
 8001844:	40013800 	.word	0x40013800

08001848 <USART1_GetFifo>:
 8001848:	b082      	sub	sp, #8
 800184a:	9001      	str	r0, [sp, #4]
 800184c:	4b16      	ldr	r3, [pc, #88]	(80018a8 <USART1_GetFifo+0x60>)
 800184e:	881b      	ldrh	r3, [r3, #0]
 8001850:	b29a      	uxth	r2, r3
 8001852:	4b16      	ldr	r3, [pc, #88]	(80018ac <USART1_GetFifo+0x64>)
 8001854:	881b      	ldrh	r3, [r3, #0]
 8001856:	b29b      	uxth	r3, r3
 8001858:	429a      	cmp	r2, r3
 800185a:	d103      	bne.n	8001864 <USART1_GetFifo+0x1c>
 800185c:	f04f 0300 	mov.w	r3, #0	; 0x0
 8001860:	9300      	str	r3, [sp, #0]
 8001862:	e01d      	b.n	80018a0 <USART1_GetFifo+0x58>
 8001864:	4b11      	ldr	r3, [pc, #68]	(80018ac <USART1_GetFifo+0x64>)
 8001866:	881b      	ldrh	r3, [r3, #0]
 8001868:	b29b      	uxth	r3, r3
 800186a:	461a      	mov	r2, r3
 800186c:	4b10      	ldr	r3, [pc, #64]	(80018b0 <USART1_GetFifo+0x68>)
 800186e:	5c9b      	ldrb	r3, [r3, r2]
 8001870:	b2db      	uxtb	r3, r3
 8001872:	9a01      	ldr	r2, [sp, #4]
 8001874:	7013      	strb	r3, [r2, #0]
 8001876:	4b0d      	ldr	r3, [pc, #52]	(80018ac <USART1_GetFifo+0x64>)
 8001878:	881b      	ldrh	r3, [r3, #0]
 800187a:	b29b      	uxth	r3, r3
 800187c:	2b7f      	cmp	r3, #127
 800187e:	d104      	bne.n	800188a <USART1_GetFifo+0x42>
 8001880:	4b0a      	ldr	r3, [pc, #40]	(80018ac <USART1_GetFifo+0x64>)
 8001882:	f04f 0200 	mov.w	r2, #0	; 0x0
 8001886:	801a      	strh	r2, [r3, #0]
 8001888:	e007      	b.n	800189a <USART1_GetFifo+0x52>
 800188a:	4b08      	ldr	r3, [pc, #32]	(80018ac <USART1_GetFifo+0x64>)
 800188c:	881b      	ldrh	r3, [r3, #0]
 800188e:	b29b      	uxth	r3, r3
 8001890:	f103 0301 	add.w	r3, r3, #1	; 0x1
 8001894:	b29b      	uxth	r3, r3
 8001896:	4a05      	ldr	r2, [pc, #20]	(80018ac <USART1_GetFifo+0x64>)
 8001898:	8013      	strh	r3, [r2, #0]
 800189a:	f04f 0301 	mov.w	r3, #1	; 0x1
 800189e:	9300      	str	r3, [sp, #0]
 80018a0:	9b00      	ldr	r3, [sp, #0]
 80018a2:	4618      	mov	r0, r3
 80018a4:	b002      	add	sp, #8
 80018a6:	4770      	bx	lr
 80018a8:	2000017e 	.word	0x2000017e
 80018ac:	2000017c 	.word	0x2000017c
 80018b0:	200000fc 	.word	0x200000fc

080018b4 <USART1_Istr>:
 80018b4:	b500      	push	{lr}
 80018b6:	b081      	sub	sp, #4
 80018b8:	480f      	ldr	r0, [pc, #60]	(80018f8 <USART1_Istr+0x44>)
 80018ba:	f240 7127 	movw	r1, #1831	; 0x727
 80018be:	f003 fafd 	bl	8004ebc <USART_GetITStatus>
 80018c2:	4603      	mov	r3, r0
 80018c4:	2b00      	cmp	r3, #0
 80018c6:	d015      	beq.n	80018f4 <USART1_Istr+0x40>
 80018c8:	f10d 0303 	add.w	r3, sp, #3	; 0x3
 80018cc:	4618      	mov	r0, r3
 80018ce:	f7ff ffbb 	bl	8001848 <USART1_GetFifo>
 80018d2:	4603      	mov	r3, r0
 80018d4:	2b01      	cmp	r3, #1
 80018d6:	d106      	bne.n	80018e6 <USART1_Istr+0x32>
 80018d8:	f89d 3003 	ldrb.w	r3, [sp, #3]
 80018dc:	4806      	ldr	r0, [pc, #24]	(80018f8 <USART1_Istr+0x44>)
 80018de:	4619      	mov	r1, r3
 80018e0:	f003 f9bc 	bl	8004c5c <USART_SendData>
 80018e4:	e006      	b.n	80018f4 <USART1_Istr+0x40>
 80018e6:	4804      	ldr	r0, [pc, #16]	(80018f8 <USART1_Istr+0x44>)
 80018e8:	f240 7127 	movw	r1, #1831	; 0x727
 80018ec:	f04f 0200 	mov.w	r2, #0	; 0x0
 80018f0:	f003 f89e 	bl	8004a30 <USART_ITConfig>
 80018f4:	b001      	add	sp, #4
 80018f6:	bd00      	pop	{pc}
 80018f8:	40013800 	.word	0x40013800

080018fc <USART_Send_Buffer>:
 80018fc:	b500      	push	{lr}
 80018fe:	b083      	sub	sp, #12
 8001900:	9001      	str	r0, [sp, #4]
 8001902:	460b      	mov	r3, r1
 8001904:	f88d 3000 	strb.w	r3, [sp]
 8001908:	f04f 0300 	mov.w	r3, #0	; 0x0
 800190c:	9302      	str	r3, [sp, #8]
 800190e:	e01f      	b.n	8001950 <USART_Send_Buffer+0x54>
 8001910:	9a01      	ldr	r2, [sp, #4]
 8001912:	9b02      	ldr	r3, [sp, #8]
 8001914:	4413      	add	r3, r2
 8001916:	781b      	ldrb	r3, [r3, #0]
 8001918:	2b0a      	cmp	r3, #10
 800191a:	d104      	bne.n	8001926 <USART_Send_Buffer+0x2a>
 800191c:	f04f 000d 	mov.w	r0, #13	; 0xd
 8001920:	f7ff ff38 	bl	8001794 <USART_Send_Char>
 8001924:	e009      	b.n	800193a <USART_Send_Buffer+0x3e>
 8001926:	9a01      	ldr	r2, [sp, #4]
 8001928:	9b02      	ldr	r3, [sp, #8]
 800192a:	4413      	add	r3, r2
 800192c:	781b      	ldrb	r3, [r3, #0]
 800192e:	2b0d      	cmp	r3, #13
 8001930:	d103      	bne.n	800193a <USART_Send_Buffer+0x3e>
 8001932:	f04f 000a 	mov.w	r0, #10	; 0xa
 8001936:	f7ff ff2d 	bl	8001794 <USART_Send_Char>
 800193a:	9a01      	ldr	r2, [sp, #4]
 800193c:	9b02      	ldr	r3, [sp, #8]
 800193e:	4413      	add	r3, r2
 8001940:	781b      	ldrb	r3, [r3, #0]
 8001942:	4618      	mov	r0, r3
 8001944:	f7ff ff26 	bl	8001794 <USART_Send_Char>
 8001948:	9b02      	ldr	r3, [sp, #8]
 800194a:	f103 0301 	add.w	r3, r3, #1	; 0x1
 800194e:	9302      	str	r3, [sp, #8]
 8001950:	f89d 2000 	ldrb.w	r2, [sp]
 8001954:	9b02      	ldr	r3, [sp, #8]
 8001956:	429a      	cmp	r2, r3
 8001958:	d8da      	bhi.n	8001910 <USART_Send_Buffer+0x14>
 800195a:	f89d 3000 	ldrb.w	r3, [sp]
 800195e:	4618      	mov	r0, r3
 8001960:	b003      	add	sp, #12
 8001962:	bd00      	pop	{pc}

08001964 <GPIO_Configuration>:
 8001964:	b500      	push	{lr}
 8001966:	b083      	sub	sp, #12
 8001968:	f04f 0303 	mov.w	r3, #3	; 0x3
 800196c:	9301      	str	r3, [sp, #4]
 800196e:	f04f 0004 	mov.w	r0, #4	; 0x4
 8001972:	f04f 0100 	mov.w	r1, #0	; 0x0
 8001976:	f002 fdfd 	bl	8004574 <GPIO_PinRemapConfig>
 800197a:	f44f 6380 	mov.w	r3, #1024	; 0x400
 800197e:	f8ad 3000 	strh.w	r3, [sp]
 8001982:	f04f 0304 	mov.w	r3, #4	; 0x4
 8001986:	9302      	str	r3, [sp, #8]
 8001988:	466b      	mov	r3, sp
 800198a:	4819      	ldr	r0, [pc, #100]	(80019f0 <GPIO_Configuration+0x8c>)
 800198c:	4619      	mov	r1, r3
 800198e:	f002 fc27 	bl	80041e0 <GPIO_Init>
 8001992:	f44f 7300 	mov.w	r3, #512	; 0x200
 8001996:	f8ad 3000 	strh.w	r3, [sp]
 800199a:	f04f 0318 	mov.w	r3, #24	; 0x18
 800199e:	9302      	str	r3, [sp, #8]
 80019a0:	466b      	mov	r3, sp
 80019a2:	4813      	ldr	r0, [pc, #76]	(80019f0 <GPIO_Configuration+0x8c>)
 80019a4:	4619      	mov	r1, r3
 80019a6:	f002 fc1b 	bl	80041e0 <GPIO_Init>
 80019aa:	f44f 5380 	mov.w	r3, #4096	; 0x1000
 80019ae:	f8ad 3000 	strh.w	r3, [sp]
 80019b2:	f04f 0303 	mov.w	r3, #3	; 0x3
 80019b6:	9301      	str	r3, [sp, #4]
 80019b8:	f04f 0310 	mov.w	r3, #16	; 0x10
 80019bc:	9302      	str	r3, [sp, #8]
 80019be:	466b      	mov	r3, sp
 80019c0:	480c      	ldr	r0, [pc, #48]	(80019f4 <GPIO_Configuration+0x90>)
 80019c2:	4619      	mov	r1, r3
 80019c4:	f002 fc0c 	bl	80041e0 <GPIO_Init>
 80019c8:	480a      	ldr	r0, [pc, #40]	(80019f4 <GPIO_Configuration+0x90>)
 80019ca:	f44f 5180 	mov.w	r1, #4096	; 0x1000
 80019ce:	f002 fd45 	bl	800445c <GPIO_SetBits>
 80019d2:	f04f 0301 	mov.w	r3, #1	; 0x1
 80019d6:	f8ad 3000 	strh.w	r3, [sp]
 80019da:	f04f 0304 	mov.w	r3, #4	; 0x4
 80019de:	9302      	str	r3, [sp, #8]
 80019e0:	466b      	mov	r3, sp
 80019e2:	4803      	ldr	r0, [pc, #12]	(80019f0 <GPIO_Configuration+0x8c>)
 80019e4:	4619      	mov	r1, r3
 80019e6:	f002 fbfb 	bl	80041e0 <GPIO_Init>
 80019ea:	b003      	add	sp, #12
 80019ec:	bd00      	pop	{pc}
 80019ee:	46c0      	nop			(mov r8, r8)
 80019f0:	40010800 	.word	0x40010800
 80019f4:	40011000 	.word	0x40011000

080019f8 <ndelay>:
 80019f8:	b081      	sub	sp, #4
 80019fa:	4603      	mov	r3, r0
 80019fc:	f8ad 3000 	strh.w	r3, [sp]
 8001a00:	f8bd 3000 	ldrh.w	r3, [sp]
 8001a04:	2b00      	cmp	r3, #0
 8001a06:	bf0c      	ite	eq
 8001a08:	2300      	moveq	r3, #0
 8001a0a:	2301      	movne	r3, #1
 8001a0c:	b2da      	uxtb	r2, r3
 8001a0e:	f8bd 3000 	ldrh.w	r3, [sp]
 8001a12:	f103 33ff 	add.w	r3, r3, #4294967295	; 0xffffffff
 8001a16:	f8ad 3000 	strh.w	r3, [sp]
 8001a1a:	2a00      	cmp	r2, #0
 8001a1c:	d1f0      	bne.n	8001a00 <ndelay+0x8>
 8001a1e:	b001      	add	sp, #4
 8001a20:	4770      	bx	lr
 8001a22:	46c0      	nop			(mov r8, r8)

08001a24 <udelay>:
 8001a24:	b083      	sub	sp, #12
 8001a26:	4603      	mov	r3, r0
 8001a28:	f8ad 3000 	strh.w	r3, [sp]
 8001a2c:	4b1e      	ldr	r3, [pc, #120]	(8001aa8 <udelay+0x84>)
 8001a2e:	689b      	ldr	r3, [r3, #8]
 8001a30:	9301      	str	r3, [sp, #4]
 8001a32:	4b1e      	ldr	r3, [pc, #120]	(8001aac <udelay+0x88>)
 8001a34:	6819      	ldr	r1, [r3, #0]
 8001a36:	4b1e      	ldr	r3, [pc, #120]	(8001ab0 <udelay+0x8c>)
 8001a38:	fb83 2301 	smull	r2, r3, r3, r1
 8001a3c:	ea4f 42a3 	mov.w	r2, r3, asr #18
 8001a40:	ea4f 73e1 	mov.w	r3, r1, asr #31
 8001a44:	ebc3 0302 	rsb	r3, r3, r2
 8001a48:	9302      	str	r3, [sp, #8]
 8001a4a:	f8bd 2000 	ldrh.w	r2, [sp]
 8001a4e:	9b02      	ldr	r3, [sp, #8]
 8001a50:	fb02 f303 	mul.w	r3, r2, r3
 8001a54:	9302      	str	r3, [sp, #8]
 8001a56:	9b02      	ldr	r3, [sp, #8]
 8001a58:	2b01      	cmp	r3, #1
 8001a5a:	d922      	bls.n	8001aa2 <udelay+0x7e>
 8001a5c:	9b02      	ldr	r3, [sp, #8]
 8001a5e:	f1a3 0302 	sub.w	r3, r3, #2	; 0x2
 8001a62:	9302      	str	r3, [sp, #8]
 8001a64:	9a02      	ldr	r2, [sp, #8]
 8001a66:	9b01      	ldr	r3, [sp, #4]
 8001a68:	429a      	cmp	r2, r3
 8001a6a:	d910      	bls.n	8001a8e <udelay+0x6a>
 8001a6c:	4b0e      	ldr	r3, [pc, #56]	(8001aa8 <udelay+0x84>)
 8001a6e:	689a      	ldr	r2, [r3, #8]
 8001a70:	9b01      	ldr	r3, [sp, #4]
 8001a72:	429a      	cmp	r2, r3
 8001a74:	d3fa      	bcc.n	8001a6c <udelay+0x48>
 8001a76:	9a02      	ldr	r2, [sp, #8]
 8001a78:	9b01      	ldr	r3, [sp, #4]
 8001a7a:	ebc3 0302 	rsb	r3, r3, r2
 8001a7e:	9302      	str	r3, [sp, #8]
 8001a80:	4b09      	ldr	r3, [pc, #36]	(8001aa8 <udelay+0x84>)
 8001a82:	685a      	ldr	r2, [r3, #4]
 8001a84:	9b02      	ldr	r3, [sp, #8]
 8001a86:	ebc3 0302 	rsb	r3, r3, r2
 8001a8a:	9301      	str	r3, [sp, #4]
 8001a8c:	e004      	b.n	8001a98 <udelay+0x74>
 8001a8e:	9b01      	ldr	r3, [sp, #4]
 8001a90:	9a02      	ldr	r2, [sp, #8]
 8001a92:	ebc2 0303 	rsb	r3, r2, r3
 8001a96:	9301      	str	r3, [sp, #4]
 8001a98:	4b03      	ldr	r3, [pc, #12]	(8001aa8 <udelay+0x84>)
 8001a9a:	689a      	ldr	r2, [r3, #8]
 8001a9c:	9b01      	ldr	r3, [sp, #4]
 8001a9e:	429a      	cmp	r2, r3
 8001aa0:	d8fa      	bhi.n	8001a98 <udelay+0x74>
 8001aa2:	b003      	add	sp, #12
 8001aa4:	4770      	bx	lr
 8001aa6:	46c0      	nop			(mov r8, r8)
 8001aa8:	e000e010 	.word	0xe000e010
 8001aac:	200000f8 	.word	0x200000f8
 8001ab0:	431bde83 	.word	0x431bde83

08001ab4 <mdelay>:
 8001ab4:	b500      	push	{lr}
 8001ab6:	b081      	sub	sp, #4
 8001ab8:	4603      	mov	r3, r0
 8001aba:	f8ad 3000 	strh.w	r3, [sp]
 8001abe:	e003      	b.n	8001ac8 <mdelay+0x14>
 8001ac0:	f44f 707a 	mov.w	r0, #1000	; 0x3e8
 8001ac4:	f7ff ffae 	bl	8001a24 <udelay>
 8001ac8:	f8bd 3000 	ldrh.w	r3, [sp]
 8001acc:	2b00      	cmp	r3, #0
 8001ace:	bf0c      	ite	eq
 8001ad0:	2300      	moveq	r3, #0
 8001ad2:	2301      	movne	r3, #1
 8001ad4:	b2da      	uxtb	r2, r3
 8001ad6:	f8bd 3000 	ldrh.w	r3, [sp]
 8001ada:	f103 33ff 	add.w	r3, r3, #4294967295	; 0xffffffff
 8001ade:	f8ad 3000 	strh.w	r3, [sp]
 8001ae2:	2a00      	cmp	r2, #0
 8001ae4:	d1ec      	bne.n	8001ac0 <mdelay+0xc>
 8001ae6:	b001      	add	sp, #4
 8001ae8:	bd00      	pop	{pc}
 8001aea:	46c0      	nop			(mov r8, r8)

08001aec <stepping_switch>:
 8001aec:	b500      	push	{lr}
 8001aee:	b081      	sub	sp, #4
 8001af0:	9000      	str	r0, [sp, #0]
 8001af2:	f000 f8bb 	bl	8001c6c <__disable_irq>
 8001af6:	4a56      	ldr	r2, [pc, #344]	(8001c50 <stepping_switch+0x164>)
 8001af8:	4b55      	ldr	r3, [pc, #340]	(8001c50 <stepping_switch+0x164>)
 8001afa:	681b      	ldr	r3, [r3, #0]
 8001afc:	f043 0301 	orr.w	r3, r3, #1	; 0x1
 8001b00:	6013      	str	r3, [r2, #0]
 8001b02:	4b53      	ldr	r3, [pc, #332]	(8001c50 <stepping_switch+0x164>)
 8001b04:	681b      	ldr	r3, [r3, #0]
 8001b06:	f003 0302 	and.w	r3, r3, #2	; 0x2
 8001b0a:	2b00      	cmp	r3, #0
 8001b0c:	d0f9      	beq.n	8001b02 <stepping_switch+0x16>
 8001b0e:	4a50      	ldr	r2, [pc, #320]	(8001c50 <stepping_switch+0x164>)
 8001b10:	4b4f      	ldr	r3, [pc, #316]	(8001c50 <stepping_switch+0x164>)
 8001b12:	685b      	ldr	r3, [r3, #4]
 8001b14:	f023 0303 	bic.w	r3, r3, #3	; 0x3
 8001b18:	6053      	str	r3, [r2, #4]
 8001b1a:	4a4d      	ldr	r2, [pc, #308]	(8001c50 <stepping_switch+0x164>)
 8001b1c:	4b4c      	ldr	r3, [pc, #304]	(8001c50 <stepping_switch+0x164>)
 8001b1e:	685b      	ldr	r3, [r3, #4]
 8001b20:	6053      	str	r3, [r2, #4]
 8001b22:	4b4b      	ldr	r3, [pc, #300]	(8001c50 <stepping_switch+0x164>)
 8001b24:	685b      	ldr	r3, [r3, #4]
 8001b26:	f003 030c 	and.w	r3, r3, #12	; 0xc
 8001b2a:	2b00      	cmp	r3, #0
 8001b2c:	d1f9      	bne.n	8001b22 <stepping_switch+0x36>
 8001b2e:	4a48      	ldr	r2, [pc, #288]	(8001c50 <stepping_switch+0x164>)
 8001b30:	4b47      	ldr	r3, [pc, #284]	(8001c50 <stepping_switch+0x164>)
 8001b32:	681b      	ldr	r3, [r3, #0]
 8001b34:	f023 7380 	bic.w	r3, r3, #16777216	; 0x1000000
 8001b38:	6013      	str	r3, [r2, #0]
 8001b3a:	9b00      	ldr	r3, [sp, #0]
 8001b3c:	2b00      	cmp	r3, #0
 8001b3e:	d03f      	beq.n	8001bc0 <stepping_switch+0xd4>
 8001b40:	4b44      	ldr	r3, [pc, #272]	(8001c54 <stepping_switch+0x168>)
 8001b42:	681b      	ldr	r3, [r3, #0]
 8001b44:	461a      	mov	r2, r3
 8001b46:	4b44      	ldr	r3, [pc, #272]	(8001c58 <stepping_switch+0x16c>)
 8001b48:	601a      	str	r2, [r3, #0]
 8001b4a:	4a44      	ldr	r2, [pc, #272]	(8001c5c <stepping_switch+0x170>)
 8001b4c:	4b43      	ldr	r3, [pc, #268]	(8001c5c <stepping_switch+0x170>)
 8001b4e:	681b      	ldr	r3, [r3, #0]
 8001b50:	f023 0303 	bic.w	r3, r3, #3	; 0x3
 8001b54:	6013      	str	r3, [r2, #0]
 8001b56:	4a41      	ldr	r2, [pc, #260]	(8001c5c <stepping_switch+0x170>)
 8001b58:	4b40      	ldr	r3, [pc, #256]	(8001c5c <stepping_switch+0x170>)
 8001b5a:	681b      	ldr	r3, [r3, #0]
 8001b5c:	f043 0302 	orr.w	r3, r3, #2	; 0x2
 8001b60:	6013      	str	r3, [r2, #0]
 8001b62:	4a3b      	ldr	r2, [pc, #236]	(8001c50 <stepping_switch+0x164>)
 8001b64:	4b3a      	ldr	r3, [pc, #232]	(8001c50 <stepping_switch+0x164>)
 8001b66:	685b      	ldr	r3, [r3, #4]
 8001b68:	f423 137c 	bic.w	r3, r3, #4128768	; 0x3f0000
 8001b6c:	6053      	str	r3, [r2, #4]
 8001b6e:	4a38      	ldr	r2, [pc, #224]	(8001c50 <stepping_switch+0x164>)
 8001b70:	4b37      	ldr	r3, [pc, #220]	(8001c50 <stepping_switch+0x164>)
 8001b72:	685b      	ldr	r3, [r3, #4]
 8001b74:	f443 13e8 	orr.w	r3, r3, #1900544	; 0x1d0000
 8001b78:	6053      	str	r3, [r2, #4]
 8001b7a:	4a35      	ldr	r2, [pc, #212]	(8001c50 <stepping_switch+0x164>)
 8001b7c:	4b34      	ldr	r3, [pc, #208]	(8001c50 <stepping_switch+0x164>)
 8001b7e:	681b      	ldr	r3, [r3, #0]
 8001b80:	f043 7380 	orr.w	r3, r3, #16777216	; 0x1000000
 8001b84:	6013      	str	r3, [r2, #0]
 8001b86:	4b32      	ldr	r3, [pc, #200]	(8001c50 <stepping_switch+0x164>)
 8001b88:	681b      	ldr	r3, [r3, #0]
 8001b8a:	f003 7300 	and.w	r3, r3, #33554432	; 0x2000000
 8001b8e:	2b00      	cmp	r3, #0
 8001b90:	d0f9      	beq.n	8001b86 <stepping_switch+0x9a>
 8001b92:	4a2f      	ldr	r2, [pc, #188]	(8001c50 <stepping_switch+0x164>)
 8001b94:	4b2e      	ldr	r3, [pc, #184]	(8001c50 <stepping_switch+0x164>)
 8001b96:	685b      	ldr	r3, [r3, #4]
 8001b98:	f023 0303 	bic.w	r3, r3, #3	; 0x3
 8001b9c:	6053      	str	r3, [r2, #4]
 8001b9e:	4a2c      	ldr	r2, [pc, #176]	(8001c50 <stepping_switch+0x164>)
 8001ba0:	4b2b      	ldr	r3, [pc, #172]	(8001c50 <stepping_switch+0x164>)
 8001ba2:	685b      	ldr	r3, [r3, #4]
 8001ba4:	f043 0302 	orr.w	r3, r3, #2	; 0x2
 8001ba8:	6053      	str	r3, [r2, #4]
 8001baa:	4b29      	ldr	r3, [pc, #164]	(8001c50 <stepping_switch+0x164>)
 8001bac:	685b      	ldr	r3, [r3, #4]
 8001bae:	f003 030c 	and.w	r3, r3, #12	; 0xc
 8001bb2:	2b08      	cmp	r3, #8
 8001bb4:	d1f9      	bne.n	8001baa <stepping_switch+0xbe>
 8001bb6:	4b2a      	ldr	r3, [pc, #168]	(8001c60 <stepping_switch+0x174>)
 8001bb8:	f240 2271 	movw	r2, #625	; 0x271
 8001bbc:	811a      	strh	r2, [r3, #8]
 8001bbe:	e034      	b.n	8001c2a <stepping_switch+0x13e>
 8001bc0:	4a25      	ldr	r2, [pc, #148]	(8001c58 <stepping_switch+0x16c>)
 8001bc2:	4b28      	ldr	r3, [pc, #160]	(8001c64 <stepping_switch+0x178>)
 8001bc4:	6013      	str	r3, [r2, #0]
 8001bc6:	4a25      	ldr	r2, [pc, #148]	(8001c5c <stepping_switch+0x170>)
 8001bc8:	4b24      	ldr	r3, [pc, #144]	(8001c5c <stepping_switch+0x170>)
 8001bca:	681b      	ldr	r3, [r3, #0]
 8001bcc:	f023 0303 	bic.w	r3, r3, #3	; 0x3
 8001bd0:	6013      	str	r3, [r2, #0]
 8001bd2:	4a22      	ldr	r2, [pc, #136]	(8001c5c <stepping_switch+0x170>)
 8001bd4:	4b21      	ldr	r3, [pc, #132]	(8001c5c <stepping_switch+0x170>)
 8001bd6:	681b      	ldr	r3, [r3, #0]
 8001bd8:	6013      	str	r3, [r2, #0]
 8001bda:	4a1d      	ldr	r2, [pc, #116]	(8001c50 <stepping_switch+0x164>)
 8001bdc:	4b1c      	ldr	r3, [pc, #112]	(8001c50 <stepping_switch+0x164>)
 8001bde:	685b      	ldr	r3, [r3, #4]
 8001be0:	f423 3340 	bic.w	r3, r3, #196608	; 0x30000
 8001be4:	6053      	str	r3, [r2, #4]
 8001be6:	4a1a      	ldr	r2, [pc, #104]	(8001c50 <stepping_switch+0x164>)
 8001be8:	4b19      	ldr	r3, [pc, #100]	(8001c50 <stepping_switch+0x164>)
 8001bea:	685b      	ldr	r3, [r3, #4]
 8001bec:	f443 1374 	orr.w	r3, r3, #3997696	; 0x3d0000
 8001bf0:	6053      	str	r3, [r2, #4]
 8001bf2:	4a17      	ldr	r2, [pc, #92]	(8001c50 <stepping_switch+0x164>)
 8001bf4:	4b16      	ldr	r3, [pc, #88]	(8001c50 <stepping_switch+0x164>)
 8001bf6:	681b      	ldr	r3, [r3, #0]
 8001bf8:	f043 7380 	orr.w	r3, r3, #16777216	; 0x1000000
 8001bfc:	6013      	str	r3, [r2, #0]
 8001bfe:	4a14      	ldr	r2, [pc, #80]	(8001c50 <stepping_switch+0x164>)
 8001c00:	4b13      	ldr	r3, [pc, #76]	(8001c50 <stepping_switch+0x164>)
 8001c02:	685b      	ldr	r3, [r3, #4]
 8001c04:	f023 0303 	bic.w	r3, r3, #3	; 0x3
 8001c08:	6053      	str	r3, [r2, #4]
 8001c0a:	4a11      	ldr	r2, [pc, #68]	(8001c50 <stepping_switch+0x164>)
 8001c0c:	4b10      	ldr	r3, [pc, #64]	(8001c50 <stepping_switch+0x164>)
 8001c0e:	685b      	ldr	r3, [r3, #4]
 8001c10:	f043 0302 	orr.w	r3, r3, #2	; 0x2
 8001c14:	6053      	str	r3, [r2, #4]
 8001c16:	4b0e      	ldr	r3, [pc, #56]	(8001c50 <stepping_switch+0x164>)
 8001c18:	685b      	ldr	r3, [r3, #4]
 8001c1a:	f003 030c 	and.w	r3, r3, #12	; 0xc
 8001c1e:	2b08      	cmp	r3, #8
 8001c20:	d1f9      	bne.n	8001c16 <stepping_switch+0x12a>
 8001c22:	4b0f      	ldr	r3, [pc, #60]	(8001c60 <stepping_switch+0x174>)
 8001c24:	f04f 028b 	mov.w	r2, #139	; 0x8b
 8001c28:	811a      	strh	r2, [r3, #8]
 8001c2a:	4b0b      	ldr	r3, [pc, #44]	(8001c58 <stepping_switch+0x16c>)
 8001c2c:	6819      	ldr	r1, [r3, #0]
 8001c2e:	4b0e      	ldr	r3, [pc, #56]	(8001c68 <stepping_switch+0x17c>)
 8001c30:	fb83 2301 	smull	r2, r3, r3, r1
 8001c34:	ea4f 12a3 	mov.w	r2, r3, asr #6
 8001c38:	ea4f 73e1 	mov.w	r3, r1, asr #31
 8001c3c:	ebc3 0302 	rsb	r3, r3, r2
 8001c40:	4618      	mov	r0, r3
 8001c42:	f7ff fce3 	bl	800160c <SysTick_Config>
 8001c46:	f000 f813 	bl	8001c70 <__enable_irq>
 8001c4a:	b001      	add	sp, #4
 8001c4c:	bd00      	pop	{pc}
 8001c4e:	46c0      	nop			(mov r8, r8)
 8001c50:	40021000 	.word	0x40021000
 8001c54:	080092e8 	.word	0x080092e8
 8001c58:	200000f8 	.word	0x200000f8
 8001c5c:	40022000 	.word	0x40022000
 8001c60:	40013800 	.word	0x40013800
 8001c64:	00f42400 	.word	0x00f42400
 8001c68:	10624dd3 	.word	0x10624dd3

08001c6c <__disable_irq>:
 8001c6c:	b672      	cpsid	i
 8001c6e:	4770      	bx	lr

08001c70 <__enable_irq>:
 8001c70:	b662      	cpsie	i
 8001c72:	4770      	bx	lr

08001c74 <cpu_reset>:
 8001c74:	b500      	push	{lr}
 8001c76:	f44f 6000 	mov.w	r0, #2048	; 0x800
 8001c7a:	f04f 0101 	mov.w	r1, #1	; 0x1
 8001c7e:	f001 fbe9 	bl	8003454 <RCC_APB1PeriphClockCmd>
 8001c82:	f04f 004f 	mov.w	r0, #79	; 0x4f
 8001c86:	f006 fe8b 	bl	80089a0 <WWDG_Enable>
 8001c8a:	e7fe      	b.n	8001c8a <cpu_reset+0x16>

08001c8c <SystemInit>:
 8001c8c:	b500      	push	{lr}
 8001c8e:	f001 f929 	bl	8002ee4 <RCC_DeInit>
 8001c92:	4a1a      	ldr	r2, [pc, #104]	(8001cfc <SystemInit+0x70>)
 8001c94:	4b19      	ldr	r3, [pc, #100]	(8001cfc <SystemInit+0x70>)
 8001c96:	681b      	ldr	r3, [r3, #0]
 8001c98:	f043 0301 	orr.w	r3, r3, #1	; 0x1
 8001c9c:	6013      	str	r3, [r2, #0]
 8001c9e:	4b17      	ldr	r3, [pc, #92]	(8001cfc <SystemInit+0x70>)
 8001ca0:	681b      	ldr	r3, [r3, #0]
 8001ca2:	f003 0302 	and.w	r3, r3, #2	; 0x2
 8001ca6:	2b00      	cmp	r3, #0
 8001ca8:	d0f9      	beq.n	8001c9e <SystemInit+0x12>
 8001caa:	4914      	ldr	r1, [pc, #80]	(8001cfc <SystemInit+0x70>)
 8001cac:	4b13      	ldr	r3, [pc, #76]	(8001cfc <SystemInit+0x70>)
 8001cae:	685a      	ldr	r2, [r3, #4]
 8001cb0:	4b13      	ldr	r3, [pc, #76]	(8001d00 <SystemInit+0x74>)
 8001cb2:	ea02 0303 	and.w	r3, r2, r3
 8001cb6:	604b      	str	r3, [r1, #4]
 8001cb8:	4a10      	ldr	r2, [pc, #64]	(8001cfc <SystemInit+0x70>)
 8001cba:	4b10      	ldr	r3, [pc, #64]	(8001cfc <SystemInit+0x70>)
 8001cbc:	681b      	ldr	r3, [r3, #0]
 8001cbe:	f023 7384 	bic.w	r3, r3, #17301504	; 0x1080000
 8001cc2:	f423 3380 	bic.w	r3, r3, #65536	; 0x10000
 8001cc6:	6013      	str	r3, [r2, #0]
 8001cc8:	4a0c      	ldr	r2, [pc, #48]	(8001cfc <SystemInit+0x70>)
 8001cca:	4b0c      	ldr	r3, [pc, #48]	(8001cfc <SystemInit+0x70>)
 8001ccc:	681b      	ldr	r3, [r3, #0]
 8001cce:	f023 7380 	bic.w	r3, r3, #16777216	; 0x1000000
 8001cd2:	6013      	str	r3, [r2, #0]
 8001cd4:	4a09      	ldr	r2, [pc, #36]	(8001cfc <SystemInit+0x70>)
 8001cd6:	4b09      	ldr	r3, [pc, #36]	(8001cfc <SystemInit+0x70>)
 8001cd8:	681b      	ldr	r3, [r3, #0]
 8001cda:	f423 2380 	bic.w	r3, r3, #262144	; 0x40000
 8001cde:	6013      	str	r3, [r2, #0]
 8001ce0:	4a06      	ldr	r2, [pc, #24]	(8001cfc <SystemInit+0x70>)
 8001ce2:	4b06      	ldr	r3, [pc, #24]	(8001cfc <SystemInit+0x70>)
 8001ce4:	685b      	ldr	r3, [r3, #4]
 8001ce6:	f423 03fe 	bic.w	r3, r3, #8323072	; 0x7f0000
 8001cea:	6053      	str	r3, [r2, #4]
 8001cec:	4a03      	ldr	r2, [pc, #12]	(8001cfc <SystemInit+0x70>)
 8001cee:	f44f 031f 	mov.w	r3, #10420224	; 0x9f0000
 8001cf2:	6093      	str	r3, [r2, #8]
 8001cf4:	f000 f806 	bl	8001d04 <SetSysClock>
 8001cf8:	bd00      	pop	{pc}
 8001cfa:	46c0      	nop			(mov r8, r8)
 8001cfc:	40021000 	.word	0x40021000
 8001d00:	f8ff0000 	.word	0xf8ff0000

08001d04 <SetSysClock>:
 8001d04:	b500      	push	{lr}
 8001d06:	f000 f801 	bl	8001d0c <SetSysClockTo72>
 8001d0a:	bd00      	pop	{pc}

08001d0c <SetSysClockTo72>:
 8001d0c:	b082      	sub	sp, #8
 8001d0e:	f04f 0300 	mov.w	r3, #0	; 0x0
 8001d12:	9301      	str	r3, [sp, #4]
 8001d14:	f04f 0300 	mov.w	r3, #0	; 0x0
 8001d18:	9300      	str	r3, [sp, #0]
 8001d1a:	4a3a      	ldr	r2, [pc, #232]	(8001e04 <SetSysClockTo72+0xf8>)
 8001d1c:	4b39      	ldr	r3, [pc, #228]	(8001e04 <SetSysClockTo72+0xf8>)
 8001d1e:	681b      	ldr	r3, [r3, #0]
 8001d20:	f443 3380 	orr.w	r3, r3, #65536	; 0x10000
 8001d24:	6013      	str	r3, [r2, #0]
 8001d26:	4b37      	ldr	r3, [pc, #220]	(8001e04 <SetSysClockTo72+0xf8>)
 8001d28:	681b      	ldr	r3, [r3, #0]
 8001d2a:	f403 3300 	and.w	r3, r3, #131072	; 0x20000
 8001d2e:	9300      	str	r3, [sp, #0]
 8001d30:	9b01      	ldr	r3, [sp, #4]
 8001d32:	f103 0301 	add.w	r3, r3, #1	; 0x1
 8001d36:	9301      	str	r3, [sp, #4]
 8001d38:	9b00      	ldr	r3, [sp, #0]
 8001d3a:	2b00      	cmp	r3, #0
 8001d3c:	d103      	bne.n	8001d46 <SetSysClockTo72+0x3a>
 8001d3e:	9b01      	ldr	r3, [sp, #4]
 8001d40:	f5b3 6fa0 	cmp.w	r3, #1280	; 0x500
 8001d44:	d1ef      	bne.n	8001d26 <SetSysClockTo72+0x1a>
 8001d46:	4b2f      	ldr	r3, [pc, #188]	(8001e04 <SetSysClockTo72+0xf8>)
 8001d48:	681b      	ldr	r3, [r3, #0]
 8001d4a:	f403 3300 	and.w	r3, r3, #131072	; 0x20000
 8001d4e:	2b00      	cmp	r3, #0
 8001d50:	d003      	beq.n	8001d5a <SetSysClockTo72+0x4e>
 8001d52:	f04f 0301 	mov.w	r3, #1	; 0x1
 8001d56:	9300      	str	r3, [sp, #0]
 8001d58:	e002      	b.n	8001d60 <SetSysClockTo72+0x54>
 8001d5a:	f04f 0300 	mov.w	r3, #0	; 0x0
 8001d5e:	9300      	str	r3, [sp, #0]
 8001d60:	9b00      	ldr	r3, [sp, #0]
 8001d62:	2b01      	cmp	r3, #1
 8001d64:	d14a      	bne.n	8001dfc <SetSysClockTo72+0xf0>
 8001d66:	4a28      	ldr	r2, [pc, #160]	(8001e08 <SetSysClockTo72+0xfc>)
 8001d68:	4b27      	ldr	r3, [pc, #156]	(8001e08 <SetSysClockTo72+0xfc>)
 8001d6a:	681b      	ldr	r3, [r3, #0]
 8001d6c:	f043 0310 	orr.w	r3, r3, #16	; 0x10
 8001d70:	6013      	str	r3, [r2, #0]
 8001d72:	4a25      	ldr	r2, [pc, #148]	(8001e08 <SetSysClockTo72+0xfc>)
 8001d74:	4b24      	ldr	r3, [pc, #144]	(8001e08 <SetSysClockTo72+0xfc>)
 8001d76:	681b      	ldr	r3, [r3, #0]
 8001d78:	f023 0303 	bic.w	r3, r3, #3	; 0x3
 8001d7c:	6013      	str	r3, [r2, #0]
 8001d7e:	4a22      	ldr	r2, [pc, #136]	(8001e08 <SetSysClockTo72+0xfc>)
 8001d80:	4b21      	ldr	r3, [pc, #132]	(8001e08 <SetSysClockTo72+0xfc>)
 8001d82:	681b      	ldr	r3, [r3, #0]
 8001d84:	f043 0302 	orr.w	r3, r3, #2	; 0x2
 8001d88:	6013      	str	r3, [r2, #0]
 8001d8a:	4a1e      	ldr	r2, [pc, #120]	(8001e04 <SetSysClockTo72+0xf8>)
 8001d8c:	4b1d      	ldr	r3, [pc, #116]	(8001e04 <SetSysClockTo72+0xf8>)
 8001d8e:	685b      	ldr	r3, [r3, #4]
 8001d90:	6053      	str	r3, [r2, #4]
 8001d92:	4a1c      	ldr	r2, [pc, #112]	(8001e04 <SetSysClockTo72+0xf8>)
 8001d94:	4b1b      	ldr	r3, [pc, #108]	(8001e04 <SetSysClockTo72+0xf8>)
 8001d96:	685b      	ldr	r3, [r3, #4]
 8001d98:	6053      	str	r3, [r2, #4]
 8001d9a:	4a1a      	ldr	r2, [pc, #104]	(8001e04 <SetSysClockTo72+0xf8>)
 8001d9c:	4b19      	ldr	r3, [pc, #100]	(8001e04 <SetSysClockTo72+0xf8>)
 8001d9e:	685b      	ldr	r3, [r3, #4]
 8001da0:	f443 6380 	orr.w	r3, r3, #1024	; 0x400
 8001da4:	6053      	str	r3, [r2, #4]
 8001da6:	4a17      	ldr	r2, [pc, #92]	(8001e04 <SetSysClockTo72+0xf8>)
 8001da8:	4b16      	ldr	r3, [pc, #88]	(8001e04 <SetSysClockTo72+0xf8>)
 8001daa:	685b      	ldr	r3, [r3, #4]
 8001dac:	f423 137c 	bic.w	r3, r3, #4128768	; 0x3f0000
 8001db0:	6053      	str	r3, [r2, #4]
 8001db2:	4a14      	ldr	r2, [pc, #80]	(8001e04 <SetSysClockTo72+0xf8>)
 8001db4:	4b13      	ldr	r3, [pc, #76]	(8001e04 <SetSysClockTo72+0xf8>)
 8001db6:	685b      	ldr	r3, [r3, #4]
 8001db8:	f443 13e8 	orr.w	r3, r3, #1900544	; 0x1d0000
 8001dbc:	6053      	str	r3, [r2, #4]
 8001dbe:	4a11      	ldr	r2, [pc, #68]	(8001e04 <SetSysClockTo72+0xf8>)
 8001dc0:	4b10      	ldr	r3, [pc, #64]	(8001e04 <SetSysClockTo72+0xf8>)
 8001dc2:	681b      	ldr	r3, [r3, #0]
 8001dc4:	f043 7380 	orr.w	r3, r3, #16777216	; 0x1000000
 8001dc8:	6013      	str	r3, [r2, #0]
 8001dca:	4b0e      	ldr	r3, [pc, #56]	(8001e04 <SetSysClockTo72+0xf8>)
 8001dcc:	681b      	ldr	r3, [r3, #0]
 8001dce:	f003 7300 	and.w	r3, r3, #33554432	; 0x2000000
 8001dd2:	2b00      	cmp	r3, #0
 8001dd4:	d0f9      	beq.n	8001dca <SetSysClockTo72+0xbe>
 8001dd6:	4a0b      	ldr	r2, [pc, #44]	(8001e04 <SetSysClockTo72+0xf8>)
 8001dd8:	4b0a      	ldr	r3, [pc, #40]	(8001e04 <SetSysClockTo72+0xf8>)
 8001dda:	685b      	ldr	r3, [r3, #4]
 8001ddc:	f023 0303 	bic.w	r3, r3, #3	; 0x3
 8001de0:	6053      	str	r3, [r2, #4]
 8001de2:	4a08      	ldr	r2, [pc, #32]	(8001e04 <SetSysClockTo72+0xf8>)
 8001de4:	4b07      	ldr	r3, [pc, #28]	(8001e04 <SetSysClockTo72+0xf8>)
 8001de6:	685b      	ldr	r3, [r3, #4]
 8001de8:	f043 0302 	orr.w	r3, r3, #2	; 0x2
 8001dec:	6053      	str	r3, [r2, #4]
 8001dee:	4b05      	ldr	r3, [pc, #20]	(8001e04 <SetSysClockTo72+0xf8>)
 8001df0:	685b      	ldr	r3, [r3, #4]
 8001df2:	f003 030c 	and.w	r3, r3, #12	; 0xc
 8001df6:	2b08      	cmp	r3, #8
 8001df8:	d1f9      	bne.n	8001dee <SetSysClockTo72+0xe2>
 8001dfa:	e000      	b.n	8001dfe <SetSysClockTo72+0xf2>
 8001dfc:	e7fe      	b.n	8001dfc <SetSysClockTo72+0xf0>
 8001dfe:	b002      	add	sp, #8
 8001e00:	4770      	bx	lr
 8001e02:	46c0      	nop			(mov r8, r8)
 8001e04:	40021000 	.word	0x40021000
 8001e08:	40022000 	.word	0x40022000

08001e0c <NVIC_PriorityGroupConfig>:
 8001e0c:	b081      	sub	sp, #4
 8001e0e:	9000      	str	r0, [sp, #0]
 8001e10:	4a04      	ldr	r2, [pc, #16]	(8001e24 <NVIC_PriorityGroupConfig+0x18>)
 8001e12:	9b00      	ldr	r3, [sp, #0]
 8001e14:	f043 63be 	orr.w	r3, r3, #99614720	; 0x5f00000
 8001e18:	f443 2320 	orr.w	r3, r3, #655360	; 0xa0000
 8001e1c:	60d3      	str	r3, [r2, #12]
 8001e1e:	b001      	add	sp, #4
 8001e20:	4770      	bx	lr
 8001e22:	46c0      	nop			(mov r8, r8)
 8001e24:	e000ed00 	.word	0xe000ed00

08001e28 <NVIC_Init>:
 8001e28:	b084      	sub	sp, #16
 8001e2a:	9000      	str	r0, [sp, #0]
 8001e2c:	f04f 0300 	mov.w	r3, #0	; 0x0
 8001e30:	9301      	str	r3, [sp, #4]
 8001e32:	f04f 0300 	mov.w	r3, #0	; 0x0
 8001e36:	9302      	str	r3, [sp, #8]
 8001e38:	f04f 030f 	mov.w	r3, #15	; 0xf
 8001e3c:	9303      	str	r3, [sp, #12]
 8001e3e:	9b00      	ldr	r3, [sp, #0]
 8001e40:	685b      	ldr	r3, [r3, #4]
 8001e42:	2b00      	cmp	r3, #0
 8001e44:	d041      	beq.n	8001eca <NVIC_Init+0xa2>
 8001e46:	4b2b      	ldr	r3, [pc, #172]	(8001ef4 <NVIC_Init+0xcc>)
 8001e48:	68db      	ldr	r3, [r3, #12]
 8001e4a:	ea6f 0303 	mvn.w	r3, r3
 8001e4e:	f403 63e0 	and.w	r3, r3, #1792	; 0x700
 8001e52:	ea4f 2313 	mov.w	r3, r3, lsr #8
 8001e56:	9301      	str	r3, [sp, #4]
 8001e58:	9b01      	ldr	r3, [sp, #4]
 8001e5a:	f1c3 0304 	rsb	r3, r3, #4	; 0x4
 8001e5e:	9302      	str	r3, [sp, #8]
 8001e60:	9a01      	ldr	r2, [sp, #4]
 8001e62:	9b03      	ldr	r3, [sp, #12]
 8001e64:	fa23 f302 	lsr.w	r3, r3, r2
 8001e68:	9303      	str	r3, [sp, #12]
 8001e6a:	9b00      	ldr	r3, [sp, #0]
 8001e6c:	785b      	ldrb	r3, [r3, #1]
 8001e6e:	461a      	mov	r2, r3
 8001e70:	9b02      	ldr	r3, [sp, #8]
 8001e72:	fa02 f303 	lsl.w	r3, r2, r3
 8001e76:	9301      	str	r3, [sp, #4]
 8001e78:	9b00      	ldr	r3, [sp, #0]
 8001e7a:	789b      	ldrb	r3, [r3, #2]
 8001e7c:	461a      	mov	r2, r3
 8001e7e:	9b03      	ldr	r3, [sp, #12]
 8001e80:	ea02 0203 	and.w	r2, r2, r3
 8001e84:	9b01      	ldr	r3, [sp, #4]
 8001e86:	ea43 0302 	orr.w	r3, r3, r2
 8001e8a:	9301      	str	r3, [sp, #4]
 8001e8c:	9b01      	ldr	r3, [sp, #4]
 8001e8e:	ea4f 1303 	mov.w	r3, r3, lsl #4
 8001e92:	9301      	str	r3, [sp, #4]
 8001e94:	4918      	ldr	r1, [pc, #96]	(8001ef8 <NVIC_Init+0xd0>)
 8001e96:	9b00      	ldr	r3, [sp, #0]
 8001e98:	781b      	ldrb	r3, [r3, #0]
 8001e9a:	461a      	mov	r2, r3
 8001e9c:	9b01      	ldr	r3, [sp, #4]
 8001e9e:	b2db      	uxtb	r3, r3
 8001ea0:	440a      	add	r2, r1
 8001ea2:	f882 3300 	strb.w	r3, [r2, #768]
 8001ea6:	4814      	ldr	r0, [pc, #80]	(8001ef8 <NVIC_Init+0xd0>)
 8001ea8:	9b00      	ldr	r3, [sp, #0]
 8001eaa:	781b      	ldrb	r3, [r3, #0]
 8001eac:	ea4f 1353 	mov.w	r3, r3, lsr #5
 8001eb0:	b2db      	uxtb	r3, r3
 8001eb2:	4619      	mov	r1, r3
 8001eb4:	9b00      	ldr	r3, [sp, #0]
 8001eb6:	781b      	ldrb	r3, [r3, #0]
 8001eb8:	f003 021f 	and.w	r2, r3, #31	; 0x1f
 8001ebc:	f04f 0301 	mov.w	r3, #1	; 0x1
 8001ec0:	fa03 f302 	lsl.w	r3, r3, r2
 8001ec4:	f840 3021 	str.w	r3, [r0, r1, lsl #2]
 8001ec8:	e012      	b.n	8001ef0 <NVIC_Init+0xc8>
 8001eca:	480b      	ldr	r0, [pc, #44]	(8001ef8 <NVIC_Init+0xd0>)
 8001ecc:	9b00      	ldr	r3, [sp, #0]
 8001ece:	781b      	ldrb	r3, [r3, #0]
 8001ed0:	ea4f 1353 	mov.w	r3, r3, lsr #5
 8001ed4:	b2db      	uxtb	r3, r3
 8001ed6:	4619      	mov	r1, r3
 8001ed8:	9b00      	ldr	r3, [sp, #0]
 8001eda:	781b      	ldrb	r3, [r3, #0]
 8001edc:	f003 021f 	and.w	r2, r3, #31	; 0x1f
 8001ee0:	f04f 0301 	mov.w	r3, #1	; 0x1
 8001ee4:	fa03 f202 	lsl.w	r2, r3, r2
 8001ee8:	f101 0320 	add.w	r3, r1, #32	; 0x20
 8001eec:	f840 2023 	str.w	r2, [r0, r3, lsl #2]
 8001ef0:	b004      	add	sp, #16
 8001ef2:	4770      	bx	lr
 8001ef4:	e000ed00 	.word	0xe000ed00
 8001ef8:	e000e100 	.word	0xe000e100

08001efc <NVIC_SetVectorTable>:
 8001efc:	b082      	sub	sp, #8
 8001efe:	9001      	str	r0, [sp, #4]
 8001f00:	9100      	str	r1, [sp, #0]
 8001f02:	4906      	ldr	r1, [pc, #24]	(8001f1c <NVIC_SetVectorTable+0x20>)
 8001f04:	9b00      	ldr	r3, [sp, #0]
 8001f06:	f023 4360 	bic.w	r3, r3, #3758096384	; 0xe0000000
 8001f0a:	f023 037f 	bic.w	r3, r3, #127	; 0x7f
 8001f0e:	9a01      	ldr	r2, [sp, #4]
 8001f10:	ea43 0302 	orr.w	r3, r3, r2
 8001f14:	608b      	str	r3, [r1, #8]
 8001f16:	b002      	add	sp, #8
 8001f18:	4770      	bx	lr
 8001f1a:	46c0      	nop			(mov r8, r8)
 8001f1c:	e000ed00 	.word	0xe000ed00

08001f20 <NVIC_SystemLPConfig>:
 8001f20:	b082      	sub	sp, #8
 8001f22:	4603      	mov	r3, r0
 8001f24:	9100      	str	r1, [sp, #0]
 8001f26:	f88d 3004 	strb.w	r3, [sp, #4]
 8001f2a:	9b00      	ldr	r3, [sp, #0]
 8001f2c:	2b00      	cmp	r3, #0
 8001f2e:	d008      	beq.n	8001f42 <NVIC_SystemLPConfig+0x22>
 8001f30:	490a      	ldr	r1, [pc, #40]	(8001f5c <NVIC_SystemLPConfig+0x3c>)
 8001f32:	4b0a      	ldr	r3, [pc, #40]	(8001f5c <NVIC_SystemLPConfig+0x3c>)
 8001f34:	691a      	ldr	r2, [r3, #16]
 8001f36:	f89d 3004 	ldrb.w	r3, [sp, #4]
 8001f3a:	ea42 0303 	orr.w	r3, r2, r3
 8001f3e:	610b      	str	r3, [r1, #16]
 8001f40:	e009      	b.n	8001f56 <NVIC_SystemLPConfig+0x36>
 8001f42:	4906      	ldr	r1, [pc, #24]	(8001f5c <NVIC_SystemLPConfig+0x3c>)
 8001f44:	4b05      	ldr	r3, [pc, #20]	(8001f5c <NVIC_SystemLPConfig+0x3c>)
 8001f46:	691a      	ldr	r2, [r3, #16]
 8001f48:	f89d 3004 	ldrb.w	r3, [sp, #4]
 8001f4c:	ea6f 0303 	mvn.w	r3, r3
 8001f50:	ea02 0303 	and.w	r3, r2, r3
 8001f54:	610b      	str	r3, [r1, #16]
 8001f56:	b002      	add	sp, #8
 8001f58:	4770      	bx	lr
 8001f5a:	46c0      	nop			(mov r8, r8)
 8001f5c:	e000ed00 	.word	0xe000ed00

08001f60 <SysTick_CLKSourceConfig>:
 8001f60:	b081      	sub	sp, #4
 8001f62:	9000      	str	r0, [sp, #0]
 8001f64:	9b00      	ldr	r3, [sp, #0]
 8001f66:	2b04      	cmp	r3, #4
 8001f68:	d106      	bne.n	8001f78 <SysTick_CLKSourceConfig+0x18>
 8001f6a:	4a07      	ldr	r2, [pc, #28]	(8001f88 <SysTick_CLKSourceConfig+0x28>)
 8001f6c:	4b06      	ldr	r3, [pc, #24]	(8001f88 <SysTick_CLKSourceConfig+0x28>)
 8001f6e:	681b      	ldr	r3, [r3, #0]
 8001f70:	f043 0304 	orr.w	r3, r3, #4	; 0x4
 8001f74:	6013      	str	r3, [r2, #0]
 8001f76:	e005      	b.n	8001f84 <SysTick_CLKSourceConfig+0x24>
 8001f78:	4a03      	ldr	r2, [pc, #12]	(8001f88 <SysTick_CLKSourceConfig+0x28>)
 8001f7a:	4b03      	ldr	r3, [pc, #12]	(8001f88 <SysTick_CLKSourceConfig+0x28>)
 8001f7c:	681b      	ldr	r3, [r3, #0]
 8001f7e:	f023 0304 	bic.w	r3, r3, #4	; 0x4
 8001f82:	6013      	str	r3, [r2, #0]
 8001f84:	b001      	add	sp, #4
 8001f86:	4770      	bx	lr
 8001f88:	e000e010 	.word	0xe000e010

08001f8c <Reset_Handler>:
 8001f8c:	4668      	mov	r0, sp
 8001f8e:	f020 0107 	bic.w	r1, r0, #7	; 0x7
 8001f92:	468d      	mov	sp, r1
 8001f94:	b501      	push	{r0, lr}
 8001f96:	b081      	sub	sp, #4
 8001f98:	4b0b      	ldr	r3, [pc, #44]	(8001fc8 <Reset_Handler+0x3c>)
 8001f9a:	9300      	str	r3, [sp, #0]
 8001f9c:	e007      	b.n	8001fae <Reset_Handler+0x22>
 8001f9e:	9a00      	ldr	r2, [sp, #0]
 8001fa0:	f04f 0300 	mov.w	r3, #0	; 0x0
 8001fa4:	7013      	strb	r3, [r2, #0]
 8001fa6:	9b00      	ldr	r3, [sp, #0]
 8001fa8:	f103 0301 	add.w	r3, r3, #1	; 0x1
 8001fac:	9300      	str	r3, [sp, #0]
 8001fae:	466a      	mov	r2, sp
 8001fb0:	9b00      	ldr	r3, [sp, #0]
 8001fb2:	429a      	cmp	r2, r3
 8001fb4:	d8f3      	bhi.n	8001f9e <Reset_Handler+0x12>
 8001fb6:	f000 f809 	bl	8001fcc <__Init_Data>
 8001fba:	f7fe fc31 	bl	8000820 <main>
 8001fbe:	b001      	add	sp, #4
 8001fc0:	e8bd 4001 	ldmia.w	sp!, {r0, lr}
 8001fc4:	4685      	mov	sp, r0
 8001fc6:	4770      	bx	lr
 8001fc8:	20000190 	.word	0x20000190

08001fcc <__Init_Data>:
 8001fcc:	b082      	sub	sp, #8
 8001fce:	4b13      	ldr	r3, [pc, #76]	(800201c <__Init_Data+0x50>)
 8001fd0:	9300      	str	r3, [sp, #0]
 8001fd2:	4b13      	ldr	r3, [pc, #76]	(8002020 <__Init_Data+0x54>)
 8001fd4:	9301      	str	r3, [sp, #4]
 8001fd6:	e00b      	b.n	8001ff0 <__Init_Data+0x24>
 8001fd8:	9b00      	ldr	r3, [sp, #0]
 8001fda:	681a      	ldr	r2, [r3, #0]
 8001fdc:	9b01      	ldr	r3, [sp, #4]
 8001fde:	601a      	str	r2, [r3, #0]
 8001fe0:	9b01      	ldr	r3, [sp, #4]
 8001fe2:	f103 0304 	add.w	r3, r3, #4	; 0x4
 8001fe6:	9301      	str	r3, [sp, #4]
 8001fe8:	9b00      	ldr	r3, [sp, #0]
 8001fea:	f103 0304 	add.w	r3, r3, #4	; 0x4
 8001fee:	9300      	str	r3, [sp, #0]
 8001ff0:	9a01      	ldr	r2, [sp, #4]
 8001ff2:	4b0c      	ldr	r3, [pc, #48]	(8002024 <__Init_Data+0x58>)
 8001ff4:	429a      	cmp	r2, r3
 8001ff6:	d3ef      	bcc.n	8001fd8 <__Init_Data+0xc>
 8001ff8:	4b0b      	ldr	r3, [pc, #44]	(8002028 <__Init_Data+0x5c>)
 8001ffa:	9301      	str	r3, [sp, #4]
 8001ffc:	e007      	b.n	800200e <__Init_Data+0x42>
 8001ffe:	9a01      	ldr	r2, [sp, #4]
 8002000:	f04f 0300 	mov.w	r3, #0	; 0x0
 8002004:	6013      	str	r3, [r2, #0]
 8002006:	9b01      	ldr	r3, [sp, #4]
 8002008:	f103 0304 	add.w	r3, r3, #4	; 0x4
 800200c:	9301      	str	r3, [sp, #4]
 800200e:	9a01      	ldr	r2, [sp, #4]
 8002010:	4b06      	ldr	r3, [pc, #24]	(800202c <__Init_Data+0x60>)
 8002012:	429a      	cmp	r2, r3
 8002014:	d3f3      	bcc.n	8001ffe <__Init_Data+0x32>
 8002016:	b002      	add	sp, #8
 8002018:	4770      	bx	lr
 800201a:	46c0      	nop			(mov r8, r8)
 800201c:	08009360 	.word	0x08009360
 8002020:	20000000 	.word	0x20000000
 8002024:	2000004c 	.word	0x2000004c
 8002028:	2000004c 	.word	0x2000004c
 800202c:	20000190 	.word	0x20000190

08002030 <Default_Handler>:
 8002030:	e7fe      	b.n	8002030 <Default_Handler>
 8002032:	46c0      	nop			(mov r8, r8)

08002034 <Halt>:
 8002034:	b081      	sub	sp, #4
 8002036:	f04f 0300 	mov.w	r3, #0	; 0x0
 800203a:	9300      	str	r3, [sp, #0]
 800203c:	9a00      	ldr	r2, [sp, #0]
 800203e:	f04f 0300 	mov.w	r3, #0	; 0x0
 8002042:	6013      	str	r3, [r2, #0]
 8002044:	b001      	add	sp, #4
 8002046:	4770      	bx	lr

08002048 <EE_ReadUShort>:
 8002048:	b500      	push	{lr}
 800204a:	b082      	sub	sp, #8
 800204c:	4603      	mov	r3, r0
 800204e:	9100      	str	r1, [sp, #0]
 8002050:	f8ad 3004 	strh.w	r3, [sp, #4]
 8002054:	f8bd 3004 	ldrh.w	r3, [sp, #4]
 8002058:	4618      	mov	r0, r3
 800205a:	9900      	ldr	r1, [sp, #0]
 800205c:	f000 fbea 	bl	8002834 <EE_ReadVariable>
 8002060:	4603      	mov	r3, r0
 8002062:	2b00      	cmp	r3, #0
 8002064:	bf14      	ite	ne
 8002066:	2300      	movne	r3, #0
 8002068:	2301      	moveq	r3, #1
 800206a:	4618      	mov	r0, r3
 800206c:	b002      	add	sp, #8
 800206e:	bd00      	pop	{pc}

08002070 <EE_WriteUShort>:
 8002070:	b500      	push	{lr}
 8002072:	b082      	sub	sp, #8
 8002074:	4603      	mov	r3, r0
 8002076:	460a      	mov	r2, r1
 8002078:	f8ad 3004 	strh.w	r3, [sp, #4]
 800207c:	4613      	mov	r3, r2
 800207e:	f8ad 3000 	strh.w	r3, [sp]
 8002082:	f8bd 3004 	ldrh.w	r3, [sp, #4]
 8002086:	f8bd 2000 	ldrh.w	r2, [sp]
 800208a:	4618      	mov	r0, r3
 800208c:	4611      	mov	r1, r2
 800208e:	f000 fc2f 	bl	80028f0 <EE_WriteVariable>
 8002092:	4603      	mov	r3, r0
 8002094:	2b04      	cmp	r3, #4
 8002096:	bf14      	ite	ne
 8002098:	2300      	movne	r3, #0
 800209a:	2301      	moveq	r3, #1
 800209c:	4618      	mov	r0, r3
 800209e:	b002      	add	sp, #8
 80020a0:	bd00      	pop	{pc}
 80020a2:	46c0      	nop			(mov r8, r8)

080020a4 <EE_ReadShort>:
 80020a4:	b500      	push	{lr}
 80020a6:	b082      	sub	sp, #8
 80020a8:	4603      	mov	r3, r0
 80020aa:	9100      	str	r1, [sp, #0]
 80020ac:	f8ad 3004 	strh.w	r3, [sp, #4]
 80020b0:	f8bd 3004 	ldrh.w	r3, [sp, #4]
 80020b4:	9a00      	ldr	r2, [sp, #0]
 80020b6:	4618      	mov	r0, r3
 80020b8:	4611      	mov	r1, r2
 80020ba:	f000 fbbb 	bl	8002834 <EE_ReadVariable>
 80020be:	4603      	mov	r3, r0
 80020c0:	2b00      	cmp	r3, #0
 80020c2:	bf14      	ite	ne
 80020c4:	2300      	movne	r3, #0
 80020c6:	2301      	moveq	r3, #1
 80020c8:	4618      	mov	r0, r3
 80020ca:	b002      	add	sp, #8
 80020cc:	bd00      	pop	{pc}
 80020ce:	46c0      	nop			(mov r8, r8)

080020d0 <EE_WriteShort>:
 80020d0:	b500      	push	{lr}
 80020d2:	b082      	sub	sp, #8
 80020d4:	4603      	mov	r3, r0
 80020d6:	460a      	mov	r2, r1
 80020d8:	f8ad 3004 	strh.w	r3, [sp, #4]
 80020dc:	4613      	mov	r3, r2
 80020de:	f8ad 3000 	strh.w	r3, [sp]
 80020e2:	f8bd 2004 	ldrh.w	r2, [sp, #4]
 80020e6:	f8bd 3000 	ldrh.w	r3, [sp]
 80020ea:	4610      	mov	r0, r2
 80020ec:	4619      	mov	r1, r3
 80020ee:	f000 fbff 	bl	80028f0 <EE_WriteVariable>
 80020f2:	4603      	mov	r3, r0
 80020f4:	2b04      	cmp	r3, #4
 80020f6:	bf14      	ite	ne
 80020f8:	2300      	movne	r3, #0
 80020fa:	2301      	moveq	r3, #1
 80020fc:	4618      	mov	r0, r3
 80020fe:	b002      	add	sp, #8
 8002100:	bd00      	pop	{pc}
 8002102:	46c0      	nop			(mov r8, r8)

08002104 <EE_ReadUChar>:
 8002104:	b500      	push	{lr}
 8002106:	b084      	sub	sp, #16
 8002108:	4603      	mov	r3, r0
 800210a:	9100      	str	r1, [sp, #0]
 800210c:	f8ad 3004 	strh.w	r3, [sp, #4]
 8002110:	f8bd 3004 	ldrh.w	r3, [sp, #4]
 8002114:	f10d 020a 	add.w	r2, sp, #10	; 0xa
 8002118:	4618      	mov	r0, r3
 800211a:	4611      	mov	r1, r2
 800211c:	f000 fb8a 	bl	8002834 <EE_ReadVariable>
 8002120:	4603      	mov	r3, r0
 8002122:	2b00      	cmp	r3, #0
 8002124:	bf14      	ite	ne
 8002126:	2300      	movne	r3, #0
 8002128:	2301      	moveq	r3, #1
 800212a:	9303      	str	r3, [sp, #12]
 800212c:	f8bd 300a 	ldrh.w	r3, [sp, #10]
 8002130:	b2db      	uxtb	r3, r3
 8002132:	9a00      	ldr	r2, [sp, #0]
 8002134:	7013      	strb	r3, [r2, #0]
 8002136:	9b03      	ldr	r3, [sp, #12]
 8002138:	4618      	mov	r0, r3
 800213a:	b004      	add	sp, #16
 800213c:	bd00      	pop	{pc}
 800213e:	46c0      	nop			(mov r8, r8)

08002140 <EE_WriteUChar>:
 8002140:	b500      	push	{lr}
 8002142:	b082      	sub	sp, #8
 8002144:	4603      	mov	r3, r0
 8002146:	460a      	mov	r2, r1
 8002148:	f8ad 3004 	strh.w	r3, [sp, #4]
 800214c:	4613      	mov	r3, r2
 800214e:	f88d 3000 	strb.w	r3, [sp]
 8002152:	f8bd 3004 	ldrh.w	r3, [sp, #4]
 8002156:	f89d 2000 	ldrb.w	r2, [sp]
 800215a:	4618      	mov	r0, r3
 800215c:	4611      	mov	r1, r2
 800215e:	f000 fbc7 	bl	80028f0 <EE_WriteVariable>
 8002162:	4603      	mov	r3, r0
 8002164:	2b04      	cmp	r3, #4
 8002166:	bf14      	ite	ne
 8002168:	2300      	movne	r3, #0
 800216a:	2301      	moveq	r3, #1
 800216c:	4618      	mov	r0, r3
 800216e:	b002      	add	sp, #8
 8002170:	bd00      	pop	{pc}
 8002172:	46c0      	nop			(mov r8, r8)

08002174 <EE_ReadChar>:
 8002174:	b500      	push	{lr}
 8002176:	b084      	sub	sp, #16
 8002178:	4603      	mov	r3, r0
 800217a:	9100      	str	r1, [sp, #0]
 800217c:	f8ad 3004 	strh.w	r3, [sp, #4]
 8002180:	f8bd 3004 	ldrh.w	r3, [sp, #4]
 8002184:	f10d 020a 	add.w	r2, sp, #10	; 0xa
 8002188:	4618      	mov	r0, r3
 800218a:	4611      	mov	r1, r2
 800218c:	f000 fb52 	bl	8002834 <EE_ReadVariable>
 8002190:	4603      	mov	r3, r0
 8002192:	2b00      	cmp	r3, #0
 8002194:	bf14      	ite	ne
 8002196:	2300      	movne	r3, #0
 8002198:	2301      	moveq	r3, #1
 800219a:	9303      	str	r3, [sp, #12]
 800219c:	f8bd 300a 	ldrh.w	r3, [sp, #10]
 80021a0:	b2db      	uxtb	r3, r3
 80021a2:	9a00      	ldr	r2, [sp, #0]
 80021a4:	7013      	strb	r3, [r2, #0]
 80021a6:	9b03      	ldr	r3, [sp, #12]
 80021a8:	4618      	mov	r0, r3
 80021aa:	b004      	add	sp, #16
 80021ac:	bd00      	pop	{pc}
 80021ae:	46c0      	nop			(mov r8, r8)

080021b0 <EE_WriteChar>:
 80021b0:	b500      	push	{lr}
 80021b2:	b082      	sub	sp, #8
 80021b4:	4603      	mov	r3, r0
 80021b6:	460a      	mov	r2, r1
 80021b8:	f8ad 3004 	strh.w	r3, [sp, #4]
 80021bc:	4613      	mov	r3, r2
 80021be:	f88d 3000 	strb.w	r3, [sp]
 80021c2:	f8bd 2004 	ldrh.w	r2, [sp, #4]
 80021c6:	f99d 3000 	ldrsb.w	r3, [sp]
 80021ca:	b29b      	uxth	r3, r3
 80021cc:	4610      	mov	r0, r2
 80021ce:	4619      	mov	r1, r3
 80021d0:	f000 fb8e 	bl	80028f0 <EE_WriteVariable>
 80021d4:	4603      	mov	r3, r0
 80021d6:	2b04      	cmp	r3, #4
 80021d8:	bf14      	ite	ne
 80021da:	2300      	movne	r3, #0
 80021dc:	2301      	moveq	r3, #1
 80021de:	4618      	mov	r0, r3
 80021e0:	b002      	add	sp, #8
 80021e2:	bd00      	pop	{pc}

080021e4 <EE_ReadULong>:
 80021e4:	b500      	push	{lr}
 80021e6:	b085      	sub	sp, #20
 80021e8:	4603      	mov	r3, r0
 80021ea:	9101      	str	r1, [sp, #4]
 80021ec:	f8ad 3008 	strh.w	r3, [sp, #8]
 80021f0:	f8bd 2008 	ldrh.w	r2, [sp, #8]
 80021f4:	f8bd 3008 	ldrh.w	r3, [sp, #8]
 80021f8:	f103 0301 	add.w	r3, r3, #1	; 0x1
 80021fc:	f8ad 3008 	strh.w	r3, [sp, #8]
 8002200:	f10d 030e 	add.w	r3, sp, #14	; 0xe
 8002204:	4610      	mov	r0, r2
 8002206:	4619      	mov	r1, r3
 8002208:	f000 fb14 	bl	8002834 <EE_ReadVariable>
 800220c:	4603      	mov	r3, r0
 800220e:	2b00      	cmp	r3, #0
 8002210:	bf14      	ite	ne
 8002212:	2300      	movne	r3, #0
 8002214:	2301      	moveq	r3, #1
 8002216:	9304      	str	r3, [sp, #16]
 8002218:	9b04      	ldr	r3, [sp, #16]
 800221a:	2b01      	cmp	r3, #1
 800221c:	d002      	beq.n	8002224 <EE_ReadULong+0x40>
 800221e:	9b04      	ldr	r3, [sp, #16]
 8002220:	9300      	str	r3, [sp, #0]
 8002222:	e027      	b.n	8002274 <EE_ReadULong+0x90>
 8002224:	f8bd 3008 	ldrh.w	r3, [sp, #8]
 8002228:	aa03      	add	r2, sp, #12
 800222a:	4618      	mov	r0, r3
 800222c:	4611      	mov	r1, r2
 800222e:	f000 fb01 	bl	8002834 <EE_ReadVariable>
 8002232:	4603      	mov	r3, r0
 8002234:	2b00      	cmp	r3, #0
 8002236:	bf14      	ite	ne
 8002238:	2300      	movne	r3, #0
 800223a:	2301      	moveq	r3, #1
 800223c:	9304      	str	r3, [sp, #16]
 800223e:	9b04      	ldr	r3, [sp, #16]
 8002240:	2b01      	cmp	r3, #1
 8002242:	d002      	beq.n	800224a <EE_ReadULong+0x66>
 8002244:	9b04      	ldr	r3, [sp, #16]
 8002246:	9300      	str	r3, [sp, #0]
 8002248:	e014      	b.n	8002274 <EE_ReadULong+0x90>
 800224a:	f8bd 300c 	ldrh.w	r3, [sp, #12]
 800224e:	461a      	mov	r2, r3
 8002250:	9b01      	ldr	r3, [sp, #4]
 8002252:	601a      	str	r2, [r3, #0]
 8002254:	9b01      	ldr	r3, [sp, #4]
 8002256:	681b      	ldr	r3, [r3, #0]
 8002258:	ea4f 4203 	mov.w	r2, r3, lsl #16
 800225c:	9b01      	ldr	r3, [sp, #4]
 800225e:	601a      	str	r2, [r3, #0]
 8002260:	9b01      	ldr	r3, [sp, #4]
 8002262:	681a      	ldr	r2, [r3, #0]
 8002264:	f8bd 300e 	ldrh.w	r3, [sp, #14]
 8002268:	ea42 0203 	orr.w	r2, r2, r3
 800226c:	9b01      	ldr	r3, [sp, #4]
 800226e:	601a      	str	r2, [r3, #0]
 8002270:	9b04      	ldr	r3, [sp, #16]
 8002272:	9300      	str	r3, [sp, #0]
 8002274:	9b00      	ldr	r3, [sp, #0]
 8002276:	4618      	mov	r0, r3
 8002278:	b005      	add	sp, #20
 800227a:	bd00      	pop	{pc}

0800227c <EE_WriteULong>:
 800227c:	b500      	push	{lr}
 800227e:	b085      	sub	sp, #20
 8002280:	4603      	mov	r3, r0
 8002282:	9101      	str	r1, [sp, #4]
 8002284:	f8ad 3008 	strh.w	r3, [sp, #8]
 8002288:	9b01      	ldr	r3, [sp, #4]
 800228a:	f8ad 300c 	strh.w	r3, [sp, #12]
 800228e:	9b01      	ldr	r3, [sp, #4]
 8002290:	ea4f 4313 	mov.w	r3, r3, lsr #16
 8002294:	9301      	str	r3, [sp, #4]
 8002296:	9b01      	ldr	r3, [sp, #4]
 8002298:	f8ad 300e 	strh.w	r3, [sp, #14]
 800229c:	f8bd 2008 	ldrh.w	r2, [sp, #8]
 80022a0:	f8bd 3008 	ldrh.w	r3, [sp, #8]
 80022a4:	f103 0301 	add.w	r3, r3, #1	; 0x1
 80022a8:	f8ad 3008 	strh.w	r3, [sp, #8]
 80022ac:	f8bd 300c 	ldrh.w	r3, [sp, #12]
 80022b0:	4610      	mov	r0, r2
 80022b2:	4619      	mov	r1, r3
 80022b4:	f000 fb1c 	bl	80028f0 <EE_WriteVariable>
 80022b8:	4603      	mov	r3, r0
 80022ba:	2b04      	cmp	r3, #4
 80022bc:	bf14      	ite	ne
 80022be:	2300      	movne	r3, #0
 80022c0:	2301      	moveq	r3, #1
 80022c2:	9304      	str	r3, [sp, #16]
 80022c4:	9b04      	ldr	r3, [sp, #16]
 80022c6:	2b01      	cmp	r3, #1
 80022c8:	d002      	beq.n	80022d0 <EE_WriteULong+0x54>
 80022ca:	9b04      	ldr	r3, [sp, #16]
 80022cc:	9300      	str	r3, [sp, #0]
 80022ce:	e00d      	b.n	80022ec <EE_WriteULong+0x70>
 80022d0:	f8bd 3008 	ldrh.w	r3, [sp, #8]
 80022d4:	f8bd 200e 	ldrh.w	r2, [sp, #14]
 80022d8:	4618      	mov	r0, r3
 80022da:	4611      	mov	r1, r2
 80022dc:	f000 fb08 	bl	80028f0 <EE_WriteVariable>
 80022e0:	4603      	mov	r3, r0
 80022e2:	2b04      	cmp	r3, #4
 80022e4:	bf14      	ite	ne
 80022e6:	2300      	movne	r3, #0
 80022e8:	2301      	moveq	r3, #1
 80022ea:	9300      	str	r3, [sp, #0]
 80022ec:	9b00      	ldr	r3, [sp, #0]
 80022ee:	4618      	mov	r0, r3
 80022f0:	b005      	add	sp, #20
 80022f2:	bd00      	pop	{pc}

080022f4 <EE_ReadLong>:
 80022f4:	b500      	push	{lr}
 80022f6:	b084      	sub	sp, #16
 80022f8:	4603      	mov	r3, r0
 80022fa:	9100      	str	r1, [sp, #0]
 80022fc:	f8ad 3004 	strh.w	r3, [sp, #4]
 8002300:	f8bd 3004 	ldrh.w	r3, [sp, #4]
 8002304:	aa02      	add	r2, sp, #8
 8002306:	4618      	mov	r0, r3
 8002308:	4611      	mov	r1, r2
 800230a:	f7ff ff6b 	bl	80021e4 <EE_ReadULong>
 800230e:	4603      	mov	r3, r0
 8002310:	9303      	str	r3, [sp, #12]
 8002312:	9b02      	ldr	r3, [sp, #8]
 8002314:	461a      	mov	r2, r3
 8002316:	9b00      	ldr	r3, [sp, #0]
 8002318:	601a      	str	r2, [r3, #0]
 800231a:	9b03      	ldr	r3, [sp, #12]
 800231c:	4618      	mov	r0, r3
 800231e:	b004      	add	sp, #16
 8002320:	bd00      	pop	{pc}
 8002322:	46c0      	nop			(mov r8, r8)

08002324 <EE_WriteLong>:
 8002324:	b500      	push	{lr}
 8002326:	b082      	sub	sp, #8
 8002328:	4603      	mov	r3, r0
 800232a:	9100      	str	r1, [sp, #0]
 800232c:	f8ad 3004 	strh.w	r3, [sp, #4]
 8002330:	f8bd 3004 	ldrh.w	r3, [sp, #4]
 8002334:	9a00      	ldr	r2, [sp, #0]
 8002336:	4618      	mov	r0, r3
 8002338:	4611      	mov	r1, r2
 800233a:	f7ff ff9f 	bl	800227c <EE_WriteULong>
 800233e:	4603      	mov	r3, r0
 8002340:	4618      	mov	r0, r3
 8002342:	b002      	add	sp, #8
 8002344:	bd00      	pop	{pc}
 8002346:	46c0      	nop			(mov r8, r8)

08002348 <EE_ReadString>:
 8002348:	b500      	push	{lr}
 800234a:	b086      	sub	sp, #24
 800234c:	4603      	mov	r3, r0
 800234e:	9102      	str	r1, [sp, #8]
 8002350:	9201      	str	r2, [sp, #4]
 8002352:	f8ad 300c 	strh.w	r3, [sp, #12]
 8002356:	f8bd 200c 	ldrh.w	r2, [sp, #12]
 800235a:	f8bd 300c 	ldrh.w	r3, [sp, #12]
 800235e:	f103 0301 	add.w	r3, r3, #1	; 0x1
 8002362:	f8ad 300c 	strh.w	r3, [sp, #12]
 8002366:	f10d 0313 	add.w	r3, sp, #19	; 0x13
 800236a:	4610      	mov	r0, r2
 800236c:	4619      	mov	r1, r3
 800236e:	f7ff ff01 	bl	8002174 <EE_ReadChar>
 8002372:	4603      	mov	r3, r0
 8002374:	9305      	str	r3, [sp, #20]
 8002376:	9b05      	ldr	r3, [sp, #20]
 8002378:	2b01      	cmp	r3, #1
 800237a:	d002      	beq.n	8002382 <EE_ReadString+0x3a>
 800237c:	9b05      	ldr	r3, [sp, #20]
 800237e:	9300      	str	r3, [sp, #0]
 8002380:	e04a      	b.n	8002418 <EE_ReadString+0xd0>
 8002382:	f89d 3013 	ldrb.w	r3, [sp, #19]
 8002386:	9a01      	ldr	r2, [sp, #4]
 8002388:	7013      	strb	r3, [r2, #0]
 800238a:	e03f      	b.n	800240c <EE_ReadString+0xc4>
 800238c:	f8bd 200c 	ldrh.w	r2, [sp, #12]
 8002390:	f8bd 300c 	ldrh.w	r3, [sp, #12]
 8002394:	f103 0301 	add.w	r3, r3, #1	; 0x1
 8002398:	f8ad 300c 	strh.w	r3, [sp, #12]
 800239c:	ab04      	add	r3, sp, #16
 800239e:	4610      	mov	r0, r2
 80023a0:	4619      	mov	r1, r3
 80023a2:	f7ff fe51 	bl	8002048 <EE_ReadUShort>
 80023a6:	4603      	mov	r3, r0
 80023a8:	9305      	str	r3, [sp, #20]
 80023aa:	9b05      	ldr	r3, [sp, #20]
 80023ac:	2b01      	cmp	r3, #1
 80023ae:	d002      	beq.n	80023b6 <EE_ReadString+0x6e>
 80023b0:	9b05      	ldr	r3, [sp, #20]
 80023b2:	9300      	str	r3, [sp, #0]
 80023b4:	e030      	b.n	8002418 <EE_ReadString+0xd0>
 80023b6:	f8bd 3010 	ldrh.w	r3, [sp, #16]
 80023ba:	b2db      	uxtb	r3, r3
 80023bc:	9a02      	ldr	r2, [sp, #8]
 80023be:	7013      	strb	r3, [r2, #0]
 80023c0:	f89d 3013 	ldrb.w	r3, [sp, #19]
 80023c4:	f103 33ff 	add.w	r3, r3, #4294967295	; 0xffffffff
 80023c8:	b2db      	uxtb	r3, r3
 80023ca:	f88d 3013 	strb.w	r3, [sp, #19]
 80023ce:	9b02      	ldr	r3, [sp, #8]
 80023d0:	f103 0301 	add.w	r3, r3, #1	; 0x1
 80023d4:	9302      	str	r3, [sp, #8]
 80023d6:	f89d 3013 	ldrb.w	r3, [sp, #19]
 80023da:	2b00      	cmp	r3, #0
 80023dc:	d016      	beq.n	800240c <EE_ReadString+0xc4>
 80023de:	f8bd 3010 	ldrh.w	r3, [sp, #16]
 80023e2:	ea4f 2313 	mov.w	r3, r3, lsr #8
 80023e6:	b29b      	uxth	r3, r3
 80023e8:	f8ad 3010 	strh.w	r3, [sp, #16]
 80023ec:	f8bd 3010 	ldrh.w	r3, [sp, #16]
 80023f0:	b2db      	uxtb	r3, r3
 80023f2:	9a02      	ldr	r2, [sp, #8]
 80023f4:	7013      	strb	r3, [r2, #0]
 80023f6:	f89d 3013 	ldrb.w	r3, [sp, #19]
 80023fa:	f103 33ff 	add.w	r3, r3, #4294967295	; 0xffffffff
 80023fe:	b2db      	uxtb	r3, r3
 8002400:	f88d 3013 	strb.w	r3, [sp, #19]
 8002404:	9b02      	ldr	r3, [sp, #8]
 8002406:	f103 0301 	add.w	r3, r3, #1	; 0x1
 800240a:	9302      	str	r3, [sp, #8]
 800240c:	f89d 3013 	ldrb.w	r3, [sp, #19]
 8002410:	2b00      	cmp	r3, #0
 8002412:	d1bb      	bne.n	800238c <EE_ReadString+0x44>
 8002414:	9b05      	ldr	r3, [sp, #20]
 8002416:	9300      	str	r3, [sp, #0]
 8002418:	9b00      	ldr	r3, [sp, #0]
 800241a:	4618      	mov	r0, r3
 800241c:	b006      	add	sp, #24
 800241e:	bd00      	pop	{pc}

08002420 <EE_WriteString>:
 8002420:	b500      	push	{lr}
 8002422:	b087      	sub	sp, #28
 8002424:	4603      	mov	r3, r0
 8002426:	9102      	str	r1, [sp, #8]
 8002428:	f8ad 300c 	strh.w	r3, [sp, #12]
 800242c:	4613      	mov	r3, r2
 800242e:	f88d 3004 	strb.w	r3, [sp, #4]
 8002432:	f8bd 300c 	ldrh.w	r3, [sp, #12]
 8002436:	f103 0301 	add.w	r3, r3, #1	; 0x1
 800243a:	f8ad 3016 	strh.w	r3, [sp, #22]
 800243e:	f89d 3004 	ldrb.w	r3, [sp, #4]
 8002442:	f88d 3013 	strb.w	r3, [sp, #19]
 8002446:	e043      	b.n	80024d0 <EE_WriteString+0xb0>
 8002448:	f89d 3013 	ldrb.w	r3, [sp, #19]
 800244c:	2b01      	cmp	r3, #1
 800244e:	d91f      	bls.n	8002490 <EE_WriteString+0x70>
 8002450:	9b02      	ldr	r3, [sp, #8]
 8002452:	f103 0301 	add.w	r3, r3, #1	; 0x1
 8002456:	781b      	ldrb	r3, [r3, #0]
 8002458:	f8ad 3014 	strh.w	r3, [sp, #20]
 800245c:	f8bd 3014 	ldrh.w	r3, [sp, #20]
 8002460:	ea4f 2303 	mov.w	r3, r3, lsl #8
 8002464:	f8ad 3014 	strh.w	r3, [sp, #20]
 8002468:	9b02      	ldr	r3, [sp, #8]
 800246a:	781b      	ldrb	r3, [r3, #0]
 800246c:	461a      	mov	r2, r3
 800246e:	f8bd 3014 	ldrh.w	r3, [sp, #20]
 8002472:	ea42 0303 	orr.w	r3, r2, r3
 8002476:	f8ad 3014 	strh.w	r3, [sp, #20]
 800247a:	f89d 3013 	ldrb.w	r3, [sp, #19]
 800247e:	f1a3 0302 	sub.w	r3, r3, #2	; 0x2
 8002482:	f88d 3013 	strb.w	r3, [sp, #19]
 8002486:	9b02      	ldr	r3, [sp, #8]
 8002488:	f103 0302 	add.w	r3, r3, #2	; 0x2
 800248c:	9302      	str	r3, [sp, #8]
 800248e:	e009      	b.n	80024a4 <EE_WriteString+0x84>
 8002490:	9b02      	ldr	r3, [sp, #8]
 8002492:	781b      	ldrb	r3, [r3, #0]
 8002494:	f8ad 3014 	strh.w	r3, [sp, #20]
 8002498:	f89d 3013 	ldrb.w	r3, [sp, #19]
 800249c:	f103 33ff 	add.w	r3, r3, #4294967295	; 0xffffffff
 80024a0:	f88d 3013 	strb.w	r3, [sp, #19]
 80024a4:	f8bd 2016 	ldrh.w	r2, [sp, #22]
 80024a8:	f8bd 3016 	ldrh.w	r3, [sp, #22]
 80024ac:	f103 0301 	add.w	r3, r3, #1	; 0x1
 80024b0:	f8ad 3016 	strh.w	r3, [sp, #22]
 80024b4:	f8bd 3014 	ldrh.w	r3, [sp, #20]
 80024b8:	4610      	mov	r0, r2
 80024ba:	4619      	mov	r1, r3
 80024bc:	f7ff fdd8 	bl	8002070 <EE_WriteUShort>
 80024c0:	4603      	mov	r3, r0
 80024c2:	9306      	str	r3, [sp, #24]
 80024c4:	9b06      	ldr	r3, [sp, #24]
 80024c6:	2b01      	cmp	r3, #1
 80024c8:	d002      	beq.n	80024d0 <EE_WriteString+0xb0>
 80024ca:	9b06      	ldr	r3, [sp, #24]
 80024cc:	9300      	str	r3, [sp, #0]
 80024ce:	e00e      	b.n	80024ee <EE_WriteString+0xce>
 80024d0:	f89d 3013 	ldrb.w	r3, [sp, #19]
 80024d4:	2b00      	cmp	r3, #0
 80024d6:	d1b7      	bne.n	8002448 <EE_WriteString+0x28>
 80024d8:	f8bd 200c 	ldrh.w	r2, [sp, #12]
 80024dc:	f89d 3004 	ldrb.w	r3, [sp, #4]
 80024e0:	b25b      	sxtb	r3, r3
 80024e2:	4610      	mov	r0, r2
 80024e4:	4619      	mov	r1, r3
 80024e6:	f7ff fe63 	bl	80021b0 <EE_WriteChar>
 80024ea:	4603      	mov	r3, r0
 80024ec:	9300      	str	r3, [sp, #0]
 80024ee:	9b00      	ldr	r3, [sp, #0]
 80024f0:	4618      	mov	r0, r3
 80024f2:	b007      	add	sp, #28
 80024f4:	bd00      	pop	{pc}
 80024f6:	46c0      	nop			(mov r8, r8)

080024f8 <EE_Init>:
 80024f8:	b500      	push	{lr}
 80024fa:	b086      	sub	sp, #24
 80024fc:	f04f 0306 	mov.w	r3, #6	; 0x6
 8002500:	f8ad 300a 	strh.w	r3, [sp, #10]
 8002504:	f04f 0306 	mov.w	r3, #6	; 0x6
 8002508:	f8ad 300c 	strh.w	r3, [sp, #12]
 800250c:	f04f 0300 	mov.w	r3, #0	; 0x0
 8002510:	f8ad 300e 	strh.w	r3, [sp, #14]
 8002514:	f04f 0300 	mov.w	r3, #0	; 0x0
 8002518:	f8ad 3010 	strh.w	r3, [sp, #16]
 800251c:	f04f 0300 	mov.w	r3, #0	; 0x0
 8002520:	f8ad 3012 	strh.w	r3, [sp, #18]
 8002524:	f64f 73ff 	movw	r3, #65535	; 0xffff
 8002528:	f8ad 3014 	strh.w	r3, [sp, #20]
 800252c:	f005 fdde 	bl	80080ec <FLASH_Unlock>
 8002530:	4bb7      	ldr	r3, [pc, #732]	(8002810 <EE_Init+0x318>)
 8002532:	881b      	ldrh	r3, [r3, #0]
 8002534:	f8ad 300a 	strh.w	r3, [sp, #10]
 8002538:	4bb6      	ldr	r3, [pc, #728]	(8002814 <EE_Init+0x31c>)
 800253a:	881b      	ldrh	r3, [r3, #0]
 800253c:	f8ad 300c 	strh.w	r3, [sp, #12]
 8002540:	f8bd 200a 	ldrh.w	r2, [sp, #10]
 8002544:	9200      	str	r2, [sp, #0]
 8002546:	f64e 63ee 	movw	r3, #61166	; 0xeeee
 800254a:	9a00      	ldr	r2, [sp, #0]
 800254c:	429a      	cmp	r2, r3
 800254e:	d03d      	beq.n	80025cc <EE_Init+0xd4>
 8002550:	f64f 73ff 	movw	r3, #65535	; 0xffff
 8002554:	9a00      	ldr	r2, [sp, #0]
 8002556:	429a      	cmp	r2, r3
 8002558:	d004      	beq.n	8002564 <EE_Init+0x6c>
 800255a:	9b00      	ldr	r3, [sp, #0]
 800255c:	2b00      	cmp	r3, #0
 800255e:	f000 80c1 	beq.w	80026e4 <EE_Init+0x1ec>
 8002562:	e13d      	b.n	80027e0 <EE_Init+0x2e8>
 8002564:	f8bd 300c 	ldrh.w	r3, [sp, #12]
 8002568:	2b00      	cmp	r3, #0
 800256a:	d109      	bne.n	8002580 <EE_Init+0x88>
 800256c:	48a8      	ldr	r0, [pc, #672]	(8002810 <EE_Init+0x318>)
 800256e:	f005 fdd5 	bl	800811c <FLASH_ErasePage>
 8002572:	4603      	mov	r3, r0
 8002574:	f8ad 3016 	strh.w	r3, [sp, #22]
 8002578:	f8bd 3016 	ldrh.w	r3, [sp, #22]
 800257c:	2b04      	cmp	r3, #4
 800257e:	e134      	b.n	80027ea <EE_Init+0x2f2>
 8002580:	f8bd 200c 	ldrh.w	r2, [sp, #12]
 8002584:	f64e 63ee 	movw	r3, #61166	; 0xeeee
 8002588:	429a      	cmp	r2, r3
 800258a:	d116      	bne.n	80025ba <EE_Init+0xc2>
 800258c:	48a0      	ldr	r0, [pc, #640]	(8002810 <EE_Init+0x318>)
 800258e:	f005 fdc5 	bl	800811c <FLASH_ErasePage>
 8002592:	4603      	mov	r3, r0
 8002594:	f8ad 3016 	strh.w	r3, [sp, #22]
 8002598:	f8bd 3016 	ldrh.w	r3, [sp, #22]
 800259c:	2b04      	cmp	r3, #4
 800259e:	f040 8124 	bne.w	80027ea <EE_Init+0x2f2>
 80025a2:	489c      	ldr	r0, [pc, #624]	(8002814 <EE_Init+0x31c>)
 80025a4:	f04f 0100 	mov.w	r1, #0	; 0x0
 80025a8:	f005 fed4 	bl	8008354 <FLASH_ProgramHalfWord>
 80025ac:	4603      	mov	r3, r0
 80025ae:	f8ad 3016 	strh.w	r3, [sp, #22]
 80025b2:	f8bd 3016 	ldrh.w	r3, [sp, #22]
 80025b6:	2b04      	cmp	r3, #4
 80025b8:	e117      	b.n	80027ea <EE_Init+0x2f2>
 80025ba:	f000 f9c5 	bl	8002948 <EE_Format>
 80025be:	4603      	mov	r3, r0
 80025c0:	f8ad 3016 	strh.w	r3, [sp, #22]
 80025c4:	f8bd 3016 	ldrh.w	r3, [sp, #22]
 80025c8:	2b04      	cmp	r3, #4
 80025ca:	e10e      	b.n	80027ea <EE_Init+0x2f2>
 80025cc:	f8bd 300c 	ldrh.w	r3, [sp, #12]
 80025d0:	2b00      	cmp	r3, #0
 80025d2:	d161      	bne.n	8002698 <EE_Init+0x1a0>
 80025d4:	f04f 0300 	mov.w	r3, #0	; 0x0
 80025d8:	f8ad 300e 	strh.w	r3, [sp, #14]
 80025dc:	e041      	b.n	8002662 <EE_Init+0x16a>
 80025de:	4b8e      	ldr	r3, [pc, #568]	(8002818 <EE_Init+0x320>)
 80025e0:	881b      	ldrh	r3, [r3, #0]
 80025e2:	b299      	uxth	r1, r3
 80025e4:	f8bd 200e 	ldrh.w	r2, [sp, #14]
 80025e8:	4b8c      	ldr	r3, [pc, #560]	(800281c <EE_Init+0x324>)
 80025ea:	f833 3012 	ldrh.w	r3, [r3, r2, lsl #1]
 80025ee:	4299      	cmp	r1, r3
 80025f0:	d103      	bne.n	80025fa <EE_Init+0x102>
 80025f2:	f8bd 300e 	ldrh.w	r3, [sp, #14]
 80025f6:	f8ad 3014 	strh.w	r3, [sp, #20]
 80025fa:	f8bd 200e 	ldrh.w	r2, [sp, #14]
 80025fe:	f9bd 3014 	ldrsh.w	r3, [sp, #20]
 8002602:	429a      	cmp	r2, r3
 8002604:	d027      	beq.n	8002656 <EE_Init+0x15e>
 8002606:	f8bd 200e 	ldrh.w	r2, [sp, #14]
 800260a:	4b84      	ldr	r3, [pc, #528]	(800281c <EE_Init+0x324>)
 800260c:	f833 3012 	ldrh.w	r3, [r3, r2, lsl #1]
 8002610:	4618      	mov	r0, r3
 8002612:	4983      	ldr	r1, [pc, #524]	(8002820 <EE_Init+0x328>)
 8002614:	f000 f90e 	bl	8002834 <EE_ReadVariable>
 8002618:	4603      	mov	r3, r0
 800261a:	f8ad 3012 	strh.w	r3, [sp, #18]
 800261e:	f8bd 3012 	ldrh.w	r3, [sp, #18]
 8002622:	2b01      	cmp	r3, #1
 8002624:	d017      	beq.n	8002656 <EE_Init+0x15e>
 8002626:	f8bd 200e 	ldrh.w	r2, [sp, #14]
 800262a:	4b7c      	ldr	r3, [pc, #496]	(800281c <EE_Init+0x324>)
 800262c:	f833 3012 	ldrh.w	r3, [r3, r2, lsl #1]
 8002630:	461a      	mov	r2, r3
 8002632:	4b7b      	ldr	r3, [pc, #492]	(8002820 <EE_Init+0x328>)
 8002634:	881b      	ldrh	r3, [r3, #0]
 8002636:	4610      	mov	r0, r2
 8002638:	4619      	mov	r1, r3
 800263a:	f000 fa15 	bl	8002a68 <EE_VerifyPageFullWriteVariable>
 800263e:	4603      	mov	r3, r0
 8002640:	f8ad 3010 	strh.w	r3, [sp, #16]
 8002644:	f8bd 3010 	ldrh.w	r3, [sp, #16]
 8002648:	2b04      	cmp	r3, #4
 800264a:	d004      	beq.n	8002656 <EE_Init+0x15e>
 800264c:	f8bd 3010 	ldrh.w	r3, [sp, #16]
 8002650:	f8ad 3016 	strh.w	r3, [sp, #22]
 8002654:	e0c9      	b.n	80027ea <EE_Init+0x2f2>
 8002656:	f8bd 300e 	ldrh.w	r3, [sp, #14]
 800265a:	f103 0301 	add.w	r3, r3, #1	; 0x1
 800265e:	f8ad 300e 	strh.w	r3, [sp, #14]
 8002662:	f8bd 300e 	ldrh.w	r3, [sp, #14]
 8002666:	2b02      	cmp	r3, #2
 8002668:	d9b9      	bls.n	80025de <EE_Init+0xe6>
 800266a:	4869      	ldr	r0, [pc, #420]	(8002810 <EE_Init+0x318>)
 800266c:	f04f 0100 	mov.w	r1, #0	; 0x0
 8002670:	f005 fe70 	bl	8008354 <FLASH_ProgramHalfWord>
 8002674:	4603      	mov	r3, r0
 8002676:	f8ad 3016 	strh.w	r3, [sp, #22]
 800267a:	f8bd 3016 	ldrh.w	r3, [sp, #22]
 800267e:	2b04      	cmp	r3, #4
 8002680:	f040 80b3 	bne.w	80027ea <EE_Init+0x2f2>
 8002684:	4863      	ldr	r0, [pc, #396]	(8002814 <EE_Init+0x31c>)
 8002686:	f005 fd49 	bl	800811c <FLASH_ErasePage>
 800268a:	4603      	mov	r3, r0
 800268c:	f8ad 3016 	strh.w	r3, [sp, #22]
 8002690:	f8bd 3016 	ldrh.w	r3, [sp, #22]
 8002694:	2b04      	cmp	r3, #4
 8002696:	e0a8      	b.n	80027ea <EE_Init+0x2f2>
 8002698:	f8bd 200c 	ldrh.w	r2, [sp, #12]
 800269c:	f64f 73ff 	movw	r3, #65535	; 0xffff
 80026a0:	429a      	cmp	r2, r3
 80026a2:	d116      	bne.n	80026d2 <EE_Init+0x1da>
 80026a4:	485b      	ldr	r0, [pc, #364]	(8002814 <EE_Init+0x31c>)
 80026a6:	f005 fd39 	bl	800811c <FLASH_ErasePage>
 80026aa:	4603      	mov	r3, r0
 80026ac:	f8ad 3016 	strh.w	r3, [sp, #22]
 80026b0:	f8bd 3016 	ldrh.w	r3, [sp, #22]
 80026b4:	2b04      	cmp	r3, #4
 80026b6:	f040 8098 	bne.w	80027ea <EE_Init+0x2f2>
 80026ba:	4855      	ldr	r0, [pc, #340]	(8002810 <EE_Init+0x318>)
 80026bc:	f04f 0100 	mov.w	r1, #0	; 0x0
 80026c0:	f005 fe48 	bl	8008354 <FLASH_ProgramHalfWord>
 80026c4:	4603      	mov	r3, r0
 80026c6:	f8ad 3016 	strh.w	r3, [sp, #22]
 80026ca:	f8bd 3016 	ldrh.w	r3, [sp, #22]
 80026ce:	2b04      	cmp	r3, #4
 80026d0:	e08b      	b.n	80027ea <EE_Init+0x2f2>
 80026d2:	f000 f939 	bl	8002948 <EE_Format>
 80026d6:	4603      	mov	r3, r0
 80026d8:	f8ad 3016 	strh.w	r3, [sp, #22]
 80026dc:	f8bd 3016 	ldrh.w	r3, [sp, #22]
 80026e0:	2b04      	cmp	r3, #4
 80026e2:	e082      	b.n	80027ea <EE_Init+0x2f2>
 80026e4:	f8bd 300c 	ldrh.w	r3, [sp, #12]
 80026e8:	2b00      	cmp	r3, #0
 80026ea:	d108      	bne.n	80026fe <EE_Init+0x206>
 80026ec:	f000 f92c 	bl	8002948 <EE_Format>
 80026f0:	4603      	mov	r3, r0
 80026f2:	f8ad 3016 	strh.w	r3, [sp, #22]
 80026f6:	f8bd 3016 	ldrh.w	r3, [sp, #22]
 80026fa:	2b04      	cmp	r3, #4
 80026fc:	e075      	b.n	80027ea <EE_Init+0x2f2>
 80026fe:	f8bd 200c 	ldrh.w	r2, [sp, #12]
 8002702:	f64f 73ff 	movw	r3, #65535	; 0xffff
 8002706:	429a      	cmp	r2, r3
 8002708:	d109      	bne.n	800271e <EE_Init+0x226>
 800270a:	4842      	ldr	r0, [pc, #264]	(8002814 <EE_Init+0x31c>)
 800270c:	f005 fd06 	bl	800811c <FLASH_ErasePage>
 8002710:	4603      	mov	r3, r0
 8002712:	f8ad 3016 	strh.w	r3, [sp, #22]
 8002716:	f8bd 3016 	ldrh.w	r3, [sp, #22]
 800271a:	2b04      	cmp	r3, #4
 800271c:	e065      	b.n	80027ea <EE_Init+0x2f2>
 800271e:	f04f 0300 	mov.w	r3, #0	; 0x0
 8002722:	f8ad 300e 	strh.w	r3, [sp, #14]
 8002726:	e041      	b.n	80027ac <EE_Init+0x2b4>
 8002728:	4b3e      	ldr	r3, [pc, #248]	(8002824 <EE_Init+0x32c>)
 800272a:	881b      	ldrh	r3, [r3, #0]
 800272c:	b299      	uxth	r1, r3
 800272e:	f8bd 200e 	ldrh.w	r2, [sp, #14]
 8002732:	4b3a      	ldr	r3, [pc, #232]	(800281c <EE_Init+0x324>)
 8002734:	f833 3012 	ldrh.w	r3, [r3, r2, lsl #1]
 8002738:	4299      	cmp	r1, r3
 800273a:	d103      	bne.n	8002744 <EE_Init+0x24c>
 800273c:	f8bd 300e 	ldrh.w	r3, [sp, #14]
 8002740:	f8ad 3014 	strh.w	r3, [sp, #20]
 8002744:	f8bd 200e 	ldrh.w	r2, [sp, #14]
 8002748:	f9bd 3014 	ldrsh.w	r3, [sp, #20]
 800274c:	429a      	cmp	r2, r3
 800274e:	d027      	beq.n	80027a0 <EE_Init+0x2a8>
 8002750:	f8bd 200e 	ldrh.w	r2, [sp, #14]
 8002754:	4b31      	ldr	r3, [pc, #196]	(800281c <EE_Init+0x324>)
 8002756:	f833 3012 	ldrh.w	r3, [r3, r2, lsl #1]
 800275a:	4618      	mov	r0, r3
 800275c:	4930      	ldr	r1, [pc, #192]	(8002820 <EE_Init+0x328>)
 800275e:	f000 f869 	bl	8002834 <EE_ReadVariable>
 8002762:	4603      	mov	r3, r0
 8002764:	f8ad 3012 	strh.w	r3, [sp, #18]
 8002768:	f8bd 3012 	ldrh.w	r3, [sp, #18]
 800276c:	2b01      	cmp	r3, #1
 800276e:	d017      	beq.n	80027a0 <EE_Init+0x2a8>
 8002770:	f8bd 200e 	ldrh.w	r2, [sp, #14]
 8002774:	4b29      	ldr	r3, [pc, #164]	(800281c <EE_Init+0x324>)
 8002776:	f833 3012 	ldrh.w	r3, [r3, r2, lsl #1]
 800277a:	461a      	mov	r2, r3
 800277c:	4b28      	ldr	r3, [pc, #160]	(8002820 <EE_Init+0x328>)
 800277e:	881b      	ldrh	r3, [r3, #0]
 8002780:	4610      	mov	r0, r2
 8002782:	4619      	mov	r1, r3
 8002784:	f000 f970 	bl	8002a68 <EE_VerifyPageFullWriteVariable>
 8002788:	4603      	mov	r3, r0
 800278a:	f8ad 3010 	strh.w	r3, [sp, #16]
 800278e:	f8bd 3010 	ldrh.w	r3, [sp, #16]
 8002792:	2b04      	cmp	r3, #4
 8002794:	d004      	beq.n	80027a0 <EE_Init+0x2a8>
 8002796:	f8bd 3010 	ldrh.w	r3, [sp, #16]
 800279a:	f8ad 3016 	strh.w	r3, [sp, #22]
 800279e:	e024      	b.n	80027ea <EE_Init+0x2f2>
 80027a0:	f8bd 300e 	ldrh.w	r3, [sp, #14]
 80027a4:	f103 0301 	add.w	r3, r3, #1	; 0x1
 80027a8:	f8ad 300e 	strh.w	r3, [sp, #14]
 80027ac:	f8bd 300e 	ldrh.w	r3, [sp, #14]
 80027b0:	2b02      	cmp	r3, #2
 80027b2:	d9b9      	bls.n	8002728 <EE_Init+0x230>
 80027b4:	4817      	ldr	r0, [pc, #92]	(8002814 <EE_Init+0x31c>)
 80027b6:	f04f 0100 	mov.w	r1, #0	; 0x0
 80027ba:	f005 fdcb 	bl	8008354 <FLASH_ProgramHalfWord>
 80027be:	4603      	mov	r3, r0
 80027c0:	f8ad 3016 	strh.w	r3, [sp, #22]
 80027c4:	f8bd 3016 	ldrh.w	r3, [sp, #22]
 80027c8:	2b04      	cmp	r3, #4
 80027ca:	d10e      	bne.n	80027ea <EE_Init+0x2f2>
 80027cc:	4810      	ldr	r0, [pc, #64]	(8002810 <EE_Init+0x318>)
 80027ce:	f005 fca5 	bl	800811c <FLASH_ErasePage>
 80027d2:	4603      	mov	r3, r0
 80027d4:	f8ad 3016 	strh.w	r3, [sp, #22]
 80027d8:	f8bd 3016 	ldrh.w	r3, [sp, #22]
 80027dc:	2b04      	cmp	r3, #4
 80027de:	e004      	b.n	80027ea <EE_Init+0x2f2>
 80027e0:	f000 f8b2 	bl	8002948 <EE_Format>
 80027e4:	4603      	mov	r3, r0
 80027e6:	f8ad 3016 	strh.w	r3, [sp, #22]
 80027ea:	f8bd 3016 	ldrh.w	r3, [sp, #22]
 80027ee:	2b04      	cmp	r3, #4
 80027f0:	d102      	bne.n	80027f8 <EE_Init+0x300>
 80027f2:	4a0d      	ldr	r2, [pc, #52]	(8002828 <EE_Init+0x330>)
 80027f4:	9201      	str	r2, [sp, #4]
 80027f6:	e001      	b.n	80027fc <EE_Init+0x304>
 80027f8:	4b0c      	ldr	r3, [pc, #48]	(800282c <EE_Init+0x334>)
 80027fa:	9301      	str	r3, [sp, #4]
 80027fc:	480c      	ldr	r0, [pc, #48]	(8002830 <EE_Init+0x338>)
 80027fe:	9901      	ldr	r1, [sp, #4]
 8002800:	f7fd ff16 	bl	8000630 <printf>
 8002804:	f8bd 3016 	ldrh.w	r3, [sp, #22]
 8002808:	4618      	mov	r0, r3
 800280a:	b006      	add	sp, #24
 800280c:	bd00      	pop	{pc}
 800280e:	46c0      	nop			(mov r8, r8)
 8002810:	0801f800 	.word	0x0801f800
 8002814:	0801fc00 	.word	0x0801fc00
 8002818:	0801f806 	.word	0x0801f806
 800281c:	20000030 	.word	0x20000030
 8002820:	20000180 	.word	0x20000180
 8002824:	0801fc06 	.word	0x0801fc06
 8002828:	080092fc 	.word	0x080092fc
 800282c:	08009300 	.word	0x08009300
 8002830:	08009308 	.word	0x08009308

08002834 <EE_ReadVariable>:
 8002834:	b500      	push	{lr}
 8002836:	b087      	sub	sp, #28
 8002838:	4603      	mov	r3, r0
 800283a:	9101      	str	r1, [sp, #4]
 800283c:	f8ad 3008 	strh.w	r3, [sp, #8]
 8002840:	f04f 0300 	mov.w	r3, #0	; 0x0
 8002844:	f8ad 300e 	strh.w	r3, [sp, #14]
 8002848:	f245 5355 	movw	r3, #21845	; 0x5555
 800284c:	f8ad 3010 	strh.w	r3, [sp, #16]
 8002850:	f04f 0301 	mov.w	r3, #1	; 0x1
 8002854:	f8ad 3012 	strh.w	r3, [sp, #18]
 8002858:	f04f 0000 	mov.w	r0, #0	; 0x0
 800285c:	f000 f8a0 	bl	80029a0 <EE_FindValidPage>
 8002860:	4603      	mov	r3, r0
 8002862:	f8ad 300e 	strh.w	r3, [sp, #14]
 8002866:	f8bd 300e 	ldrh.w	r3, [sp, #14]
 800286a:	2bab      	cmp	r3, #171
 800286c:	d103      	bne.n	8002876 <EE_ReadVariable+0x42>
 800286e:	f04f 03ab 	mov.w	r3, #171	; 0xab
 8002872:	9300      	str	r3, [sp, #0]
 8002874:	e036      	b.n	80028e4 <EE_ReadVariable+0xb0>
 8002876:	f8bd 300e 	ldrh.w	r3, [sp, #14]
 800287a:	f503 3300 	add.w	r3, r3, #131072	; 0x20000
 800287e:	f103 037e 	add.w	r3, r3, #126	; 0x7e
 8002882:	ea4f 2383 	mov.w	r3, r3, lsl #10
 8002886:	9306      	str	r3, [sp, #24]
 8002888:	f8bd 300e 	ldrh.w	r3, [sp, #14]
 800288c:	f103 0301 	add.w	r3, r3, #1	; 0x1
 8002890:	ea4f 2383 	mov.w	r3, r3, lsl #10
 8002894:	461a      	mov	r2, r3
 8002896:	4b15      	ldr	r3, [pc, #84]	(80028ec <EE_ReadVariable+0xb8>)
 8002898:	4413      	add	r3, r2
 800289a:	9305      	str	r3, [sp, #20]
 800289c:	e019      	b.n	80028d2 <EE_ReadVariable+0x9e>
 800289e:	9b05      	ldr	r3, [sp, #20]
 80028a0:	881b      	ldrh	r3, [r3, #0]
 80028a2:	f8ad 3010 	strh.w	r3, [sp, #16]
 80028a6:	f8bd 2010 	ldrh.w	r2, [sp, #16]
 80028aa:	f8bd 3008 	ldrh.w	r3, [sp, #8]
 80028ae:	429a      	cmp	r2, r3
 80028b0:	d10b      	bne.n	80028ca <EE_ReadVariable+0x96>
 80028b2:	9b05      	ldr	r3, [sp, #20]
 80028b4:	f1a3 0302 	sub.w	r3, r3, #2	; 0x2
 80028b8:	881b      	ldrh	r3, [r3, #0]
 80028ba:	b29b      	uxth	r3, r3
 80028bc:	9a01      	ldr	r2, [sp, #4]
 80028be:	8013      	strh	r3, [r2, #0]
 80028c0:	f04f 0300 	mov.w	r3, #0	; 0x0
 80028c4:	f8ad 3012 	strh.w	r3, [sp, #18]
 80028c8:	e009      	b.n	80028de <EE_ReadVariable+0xaa>
 80028ca:	9b05      	ldr	r3, [sp, #20]
 80028cc:	f1a3 0304 	sub.w	r3, r3, #4	; 0x4
 80028d0:	9305      	str	r3, [sp, #20]
 80028d2:	9b06      	ldr	r3, [sp, #24]
 80028d4:	f103 0202 	add.w	r2, r3, #2	; 0x2
 80028d8:	9b05      	ldr	r3, [sp, #20]
 80028da:	429a      	cmp	r2, r3
 80028dc:	d3df      	bcc.n	800289e <EE_ReadVariable+0x6a>
 80028de:	f8bd 3012 	ldrh.w	r3, [sp, #18]
 80028e2:	9300      	str	r3, [sp, #0]
 80028e4:	9b00      	ldr	r3, [sp, #0]
 80028e6:	4618      	mov	r0, r3
 80028e8:	b007      	add	sp, #28
 80028ea:	bd00      	pop	{pc}
 80028ec:	0801f7fe 	.word	0x0801f7fe

080028f0 <EE_WriteVariable>:
 80028f0:	b500      	push	{lr}
 80028f2:	b083      	sub	sp, #12
 80028f4:	4603      	mov	r3, r0
 80028f6:	460a      	mov	r2, r1
 80028f8:	f8ad 3004 	strh.w	r3, [sp, #4]
 80028fc:	4613      	mov	r3, r2
 80028fe:	f8ad 3000 	strh.w	r3, [sp]
 8002902:	f04f 0300 	mov.w	r3, #0	; 0x0
 8002906:	f8ad 300a 	strh.w	r3, [sp, #10]
 800290a:	f8bd 3004 	ldrh.w	r3, [sp, #4]
 800290e:	f8bd 2000 	ldrh.w	r2, [sp]
 8002912:	4618      	mov	r0, r3
 8002914:	4611      	mov	r1, r2
 8002916:	f000 f8a7 	bl	8002a68 <EE_VerifyPageFullWriteVariable>
 800291a:	4603      	mov	r3, r0
 800291c:	f8ad 300a 	strh.w	r3, [sp, #10]
 8002920:	f8bd 300a 	ldrh.w	r3, [sp, #10]
 8002924:	2b80      	cmp	r3, #128
 8002926:	d10a      	bne.n	800293e <EE_WriteVariable+0x4e>
 8002928:	f8bd 3004 	ldrh.w	r3, [sp, #4]
 800292c:	f8bd 2000 	ldrh.w	r2, [sp]
 8002930:	4618      	mov	r0, r3
 8002932:	4611      	mov	r1, r2
 8002934:	f000 f900 	bl	8002b38 <EE_PageTransfer>
 8002938:	4603      	mov	r3, r0
 800293a:	f8ad 300a 	strh.w	r3, [sp, #10]
 800293e:	f8bd 300a 	ldrh.w	r3, [sp, #10]
 8002942:	4618      	mov	r0, r3
 8002944:	b003      	add	sp, #12
 8002946:	bd00      	pop	{pc}

08002948 <EE_Format>:
 8002948:	b500      	push	{lr}
 800294a:	b082      	sub	sp, #8
 800294c:	f04f 0304 	mov.w	r3, #4	; 0x4
 8002950:	9301      	str	r3, [sp, #4]
 8002952:	4811      	ldr	r0, [pc, #68]	(8002998 <EE_Format+0x50>)
 8002954:	f005 fbe2 	bl	800811c <FLASH_ErasePage>
 8002958:	4603      	mov	r3, r0
 800295a:	9301      	str	r3, [sp, #4]
 800295c:	9b01      	ldr	r3, [sp, #4]
 800295e:	2b04      	cmp	r3, #4
 8002960:	d002      	beq.n	8002968 <EE_Format+0x20>
 8002962:	9b01      	ldr	r3, [sp, #4]
 8002964:	9300      	str	r3, [sp, #0]
 8002966:	e013      	b.n	8002990 <EE_Format+0x48>
 8002968:	480b      	ldr	r0, [pc, #44]	(8002998 <EE_Format+0x50>)
 800296a:	f04f 0100 	mov.w	r1, #0	; 0x0
 800296e:	f005 fcf1 	bl	8008354 <FLASH_ProgramHalfWord>
 8002972:	4603      	mov	r3, r0
 8002974:	9301      	str	r3, [sp, #4]
 8002976:	9b01      	ldr	r3, [sp, #4]
 8002978:	2b04      	cmp	r3, #4
 800297a:	d002      	beq.n	8002982 <EE_Format+0x3a>
 800297c:	9b01      	ldr	r3, [sp, #4]
 800297e:	9300      	str	r3, [sp, #0]
 8002980:	e006      	b.n	8002990 <EE_Format+0x48>
 8002982:	4806      	ldr	r0, [pc, #24]	(800299c <EE_Format+0x54>)
 8002984:	f005 fbca 	bl	800811c <FLASH_ErasePage>
 8002988:	4603      	mov	r3, r0
 800298a:	9301      	str	r3, [sp, #4]
 800298c:	9b01      	ldr	r3, [sp, #4]
 800298e:	9300      	str	r3, [sp, #0]
 8002990:	9b00      	ldr	r3, [sp, #0]
 8002992:	4618      	mov	r0, r3
 8002994:	b002      	add	sp, #8
 8002996:	bd00      	pop	{pc}
 8002998:	0801f800 	.word	0x0801f800
 800299c:	0801fc00 	.word	0x0801fc00

080029a0 <EE_FindValidPage>:
 80029a0:	b084      	sub	sp, #16
 80029a2:	4603      	mov	r3, r0
 80029a4:	f88d 3008 	strb.w	r3, [sp, #8]
 80029a8:	f04f 0306 	mov.w	r3, #6	; 0x6
 80029ac:	f8ad 300c 	strh.w	r3, [sp, #12]
 80029b0:	f04f 0306 	mov.w	r3, #6	; 0x6
 80029b4:	f8ad 300e 	strh.w	r3, [sp, #14]
 80029b8:	4b29      	ldr	r3, [pc, #164]	(8002a60 <EE_FindValidPage+0xc0>)
 80029ba:	881b      	ldrh	r3, [r3, #0]
 80029bc:	f8ad 300c 	strh.w	r3, [sp, #12]
 80029c0:	4b28      	ldr	r3, [pc, #160]	(8002a64 <EE_FindValidPage+0xc4>)
 80029c2:	881b      	ldrh	r3, [r3, #0]
 80029c4:	f8ad 300e 	strh.w	r3, [sp, #14]
 80029c8:	f89d 3008 	ldrb.w	r3, [sp, #8]
 80029cc:	9300      	str	r3, [sp, #0]
 80029ce:	9b00      	ldr	r3, [sp, #0]
 80029d0:	2b00      	cmp	r3, #0
 80029d2:	d02a      	beq.n	8002a2a <EE_FindValidPage+0x8a>
 80029d4:	9b00      	ldr	r3, [sp, #0]
 80029d6:	2b01      	cmp	r3, #1
 80029d8:	d13b      	bne.n	8002a52 <EE_FindValidPage+0xb2>
 80029da:	f8bd 300e 	ldrh.w	r3, [sp, #14]
 80029de:	2b00      	cmp	r3, #0
 80029e0:	d10d      	bne.n	80029fe <EE_FindValidPage+0x5e>
 80029e2:	f8bd 200c 	ldrh.w	r2, [sp, #12]
 80029e6:	f64e 63ee 	movw	r3, #61166	; 0xeeee
 80029ea:	429a      	cmp	r2, r3
 80029ec:	d103      	bne.n	80029f6 <EE_FindValidPage+0x56>
 80029ee:	f04f 0300 	mov.w	r3, #0	; 0x0
 80029f2:	9301      	str	r3, [sp, #4]
 80029f4:	e030      	b.n	8002a58 <EE_FindValidPage+0xb8>
 80029f6:	f04f 0301 	mov.w	r3, #1	; 0x1
 80029fa:	9301      	str	r3, [sp, #4]
 80029fc:	e02c      	b.n	8002a58 <EE_FindValidPage+0xb8>
 80029fe:	f8bd 300c 	ldrh.w	r3, [sp, #12]
 8002a02:	2b00      	cmp	r3, #0
 8002a04:	d10d      	bne.n	8002a22 <EE_FindValidPage+0x82>
 8002a06:	f8bd 200e 	ldrh.w	r2, [sp, #14]
 8002a0a:	f64e 63ee 	movw	r3, #61166	; 0xeeee
 8002a0e:	429a      	cmp	r2, r3
 8002a10:	d103      	bne.n	8002a1a <EE_FindValidPage+0x7a>
 8002a12:	f04f 0301 	mov.w	r3, #1	; 0x1
 8002a16:	9301      	str	r3, [sp, #4]
 8002a18:	e01e      	b.n	8002a58 <EE_FindValidPage+0xb8>
 8002a1a:	f04f 0300 	mov.w	r3, #0	; 0x0
 8002a1e:	9301      	str	r3, [sp, #4]
 8002a20:	e01a      	b.n	8002a58 <EE_FindValidPage+0xb8>
 8002a22:	f04f 03ab 	mov.w	r3, #171	; 0xab
 8002a26:	9301      	str	r3, [sp, #4]
 8002a28:	e016      	b.n	8002a58 <EE_FindValidPage+0xb8>
 8002a2a:	f8bd 300c 	ldrh.w	r3, [sp, #12]
 8002a2e:	2b00      	cmp	r3, #0
 8002a30:	d103      	bne.n	8002a3a <EE_FindValidPage+0x9a>
 8002a32:	f04f 0300 	mov.w	r3, #0	; 0x0
 8002a36:	9301      	str	r3, [sp, #4]
 8002a38:	e00e      	b.n	8002a58 <EE_FindValidPage+0xb8>
 8002a3a:	f8bd 300e 	ldrh.w	r3, [sp, #14]
 8002a3e:	2b00      	cmp	r3, #0
 8002a40:	d103      	bne.n	8002a4a <EE_FindValidPage+0xaa>
 8002a42:	f04f 0301 	mov.w	r3, #1	; 0x1
 8002a46:	9301      	str	r3, [sp, #4]
 8002a48:	e006      	b.n	8002a58 <EE_FindValidPage+0xb8>
 8002a4a:	f04f 03ab 	mov.w	r3, #171	; 0xab
 8002a4e:	9301      	str	r3, [sp, #4]
 8002a50:	e002      	b.n	8002a58 <EE_FindValidPage+0xb8>
 8002a52:	f04f 0300 	mov.w	r3, #0	; 0x0
 8002a56:	9301      	str	r3, [sp, #4]
 8002a58:	9b01      	ldr	r3, [sp, #4]
 8002a5a:	4618      	mov	r0, r3
 8002a5c:	b004      	add	sp, #16
 8002a5e:	4770      	bx	lr
 8002a60:	0801f800 	.word	0x0801f800
 8002a64:	0801fc00 	.word	0x0801fc00

08002a68 <EE_VerifyPageFullWriteVariable>:
 8002a68:	b500      	push	{lr}
 8002a6a:	b087      	sub	sp, #28
 8002a6c:	4603      	mov	r3, r0
 8002a6e:	460a      	mov	r2, r1
 8002a70:	f8ad 3008 	strh.w	r3, [sp, #8]
 8002a74:	4613      	mov	r3, r2
 8002a76:	f8ad 3004 	strh.w	r3, [sp, #4]
 8002a7a:	f04f 0304 	mov.w	r3, #4	; 0x4
 8002a7e:	9303      	str	r3, [sp, #12]
 8002a80:	f04f 0300 	mov.w	r3, #0	; 0x0
 8002a84:	f8ad 3012 	strh.w	r3, [sp, #18]
 8002a88:	f04f 0001 	mov.w	r0, #1	; 0x1
 8002a8c:	f7ff ff88 	bl	80029a0 <EE_FindValidPage>
 8002a90:	4603      	mov	r3, r0
 8002a92:	f8ad 3012 	strh.w	r3, [sp, #18]
 8002a96:	f8bd 3012 	ldrh.w	r3, [sp, #18]
 8002a9a:	2bab      	cmp	r3, #171
 8002a9c:	d103      	bne.n	8002aa6 <EE_VerifyPageFullWriteVariable+0x3e>
 8002a9e:	f04f 03ab 	mov.w	r3, #171	; 0xab
 8002aa2:	9300      	str	r3, [sp, #0]
 8002aa4:	e041      	b.n	8002b2a <EE_VerifyPageFullWriteVariable+0xc2>
 8002aa6:	f8bd 3012 	ldrh.w	r3, [sp, #18]
 8002aaa:	f503 3300 	add.w	r3, r3, #131072	; 0x20000
 8002aae:	f103 037e 	add.w	r3, r3, #126	; 0x7e
 8002ab2:	ea4f 2383 	mov.w	r3, r3, lsl #10
 8002ab6:	9305      	str	r3, [sp, #20]
 8002ab8:	f8bd 3012 	ldrh.w	r3, [sp, #18]
 8002abc:	f103 0301 	add.w	r3, r3, #1	; 0x1
 8002ac0:	ea4f 2383 	mov.w	r3, r3, lsl #10
 8002ac4:	461a      	mov	r2, r3
 8002ac6:	4b1b      	ldr	r3, [pc, #108]	(8002b34 <EE_VerifyPageFullWriteVariable+0xcc>)
 8002ac8:	4413      	add	r3, r2
 8002aca:	9306      	str	r3, [sp, #24]
 8002acc:	e026      	b.n	8002b1c <EE_VerifyPageFullWriteVariable+0xb4>
 8002ace:	9b05      	ldr	r3, [sp, #20]
 8002ad0:	681b      	ldr	r3, [r3, #0]
 8002ad2:	f1b3 3fff 	cmp.w	r3, #4294967295	; 0xffffffff
 8002ad6:	d11d      	bne.n	8002b14 <EE_VerifyPageFullWriteVariable+0xac>
 8002ad8:	f8bd 3004 	ldrh.w	r3, [sp, #4]
 8002adc:	9805      	ldr	r0, [sp, #20]
 8002ade:	4619      	mov	r1, r3
 8002ae0:	f005 fc38 	bl	8008354 <FLASH_ProgramHalfWord>
 8002ae4:	4603      	mov	r3, r0
 8002ae6:	9303      	str	r3, [sp, #12]
 8002ae8:	9b03      	ldr	r3, [sp, #12]
 8002aea:	2b04      	cmp	r3, #4
 8002aec:	d003      	beq.n	8002af6 <EE_VerifyPageFullWriteVariable+0x8e>
 8002aee:	9b03      	ldr	r3, [sp, #12]
 8002af0:	b29b      	uxth	r3, r3
 8002af2:	9300      	str	r3, [sp, #0]
 8002af4:	e019      	b.n	8002b2a <EE_VerifyPageFullWriteVariable+0xc2>
 8002af6:	9b05      	ldr	r3, [sp, #20]
 8002af8:	f103 0302 	add.w	r3, r3, #2	; 0x2
 8002afc:	f8bd 2008 	ldrh.w	r2, [sp, #8]
 8002b00:	4618      	mov	r0, r3
 8002b02:	4611      	mov	r1, r2
 8002b04:	f005 fc26 	bl	8008354 <FLASH_ProgramHalfWord>
 8002b08:	4603      	mov	r3, r0
 8002b0a:	9303      	str	r3, [sp, #12]
 8002b0c:	9b03      	ldr	r3, [sp, #12]
 8002b0e:	b29b      	uxth	r3, r3
 8002b10:	9300      	str	r3, [sp, #0]
 8002b12:	e00a      	b.n	8002b2a <EE_VerifyPageFullWriteVariable+0xc2>
 8002b14:	9b05      	ldr	r3, [sp, #20]
 8002b16:	f103 0304 	add.w	r3, r3, #4	; 0x4
 8002b1a:	9305      	str	r3, [sp, #20]
 8002b1c:	9a05      	ldr	r2, [sp, #20]
 8002b1e:	9b06      	ldr	r3, [sp, #24]
 8002b20:	429a      	cmp	r2, r3
 8002b22:	d3d4      	bcc.n	8002ace <EE_VerifyPageFullWriteVariable+0x66>
 8002b24:	f04f 0380 	mov.w	r3, #128	; 0x80
 8002b28:	9300      	str	r3, [sp, #0]
 8002b2a:	9b00      	ldr	r3, [sp, #0]
 8002b2c:	4618      	mov	r0, r3
 8002b2e:	b007      	add	sp, #28
 8002b30:	bd00      	pop	{pc}
 8002b32:	46c0      	nop			(mov r8, r8)
 8002b34:	0801f7fe 	.word	0x0801f7fe

08002b38 <EE_PageTransfer>:
 8002b38:	b500      	push	{lr}
 8002b3a:	b088      	sub	sp, #32
 8002b3c:	4603      	mov	r3, r0
 8002b3e:	460a      	mov	r2, r1
 8002b40:	f8ad 3008 	strh.w	r3, [sp, #8]
 8002b44:	4613      	mov	r3, r2
 8002b46:	f8ad 3004 	strh.w	r3, [sp, #4]
 8002b4a:	f04f 0304 	mov.w	r3, #4	; 0x4
 8002b4e:	9303      	str	r3, [sp, #12]
 8002b50:	f04f 0300 	mov.w	r3, #0	; 0x0
 8002b54:	f8ad 3018 	strh.w	r3, [sp, #24]
 8002b58:	f04f 0300 	mov.w	r3, #0	; 0x0
 8002b5c:	f8ad 301a 	strh.w	r3, [sp, #26]
 8002b60:	f04f 0300 	mov.w	r3, #0	; 0x0
 8002b64:	f8ad 301c 	strh.w	r3, [sp, #28]
 8002b68:	f04f 0300 	mov.w	r3, #0	; 0x0
 8002b6c:	f8ad 301e 	strh.w	r3, [sp, #30]
 8002b70:	f04f 0000 	mov.w	r0, #0	; 0x0
 8002b74:	f7ff ff14 	bl	80029a0 <EE_FindValidPage>
 8002b78:	4603      	mov	r3, r0
 8002b7a:	f8ad 3018 	strh.w	r3, [sp, #24]
 8002b7e:	f8bd 3018 	ldrh.w	r3, [sp, #24]
 8002b82:	2b01      	cmp	r3, #1
 8002b84:	d104      	bne.n	8002b90 <EE_PageTransfer+0x58>
 8002b86:	4b49      	ldr	r3, [pc, #292]	(8002cac <EE_PageTransfer+0x174>)
 8002b88:	9304      	str	r3, [sp, #16]
 8002b8a:	4b49      	ldr	r3, [pc, #292]	(8002cb0 <EE_PageTransfer+0x178>)
 8002b8c:	9305      	str	r3, [sp, #20]
 8002b8e:	e00c      	b.n	8002baa <EE_PageTransfer+0x72>
 8002b90:	f8bd 3018 	ldrh.w	r3, [sp, #24]
 8002b94:	2b00      	cmp	r3, #0
 8002b96:	d104      	bne.n	8002ba2 <EE_PageTransfer+0x6a>
 8002b98:	4b45      	ldr	r3, [pc, #276]	(8002cb0 <EE_PageTransfer+0x178>)
 8002b9a:	9304      	str	r3, [sp, #16]
 8002b9c:	4b43      	ldr	r3, [pc, #268]	(8002cac <EE_PageTransfer+0x174>)
 8002b9e:	9305      	str	r3, [sp, #20]
 8002ba0:	e003      	b.n	8002baa <EE_PageTransfer+0x72>
 8002ba2:	f04f 03ab 	mov.w	r3, #171	; 0xab
 8002ba6:	9300      	str	r3, [sp, #0]
 8002ba8:	e07c      	b.n	8002ca4 <EE_PageTransfer+0x16c>
 8002baa:	9804      	ldr	r0, [sp, #16]
 8002bac:	f64e 61ee 	movw	r1, #61166	; 0xeeee
 8002bb0:	f005 fbd0 	bl	8008354 <FLASH_ProgramHalfWord>
 8002bb4:	4603      	mov	r3, r0
 8002bb6:	9303      	str	r3, [sp, #12]
 8002bb8:	9b03      	ldr	r3, [sp, #12]
 8002bba:	2b04      	cmp	r3, #4
 8002bbc:	d003      	beq.n	8002bc6 <EE_PageTransfer+0x8e>
 8002bbe:	9b03      	ldr	r3, [sp, #12]
 8002bc0:	b29b      	uxth	r3, r3
 8002bc2:	9300      	str	r3, [sp, #0]
 8002bc4:	e06e      	b.n	8002ca4 <EE_PageTransfer+0x16c>
 8002bc6:	f8bd 3008 	ldrh.w	r3, [sp, #8]
 8002bca:	f8bd 2004 	ldrh.w	r2, [sp, #4]
 8002bce:	4618      	mov	r0, r3
 8002bd0:	4611      	mov	r1, r2
 8002bd2:	f7ff ff49 	bl	8002a68 <EE_VerifyPageFullWriteVariable>
 8002bd6:	4603      	mov	r3, r0
 8002bd8:	f8ad 301c 	strh.w	r3, [sp, #28]
 8002bdc:	f8bd 301c 	ldrh.w	r3, [sp, #28]
 8002be0:	2b04      	cmp	r3, #4
 8002be2:	d003      	beq.n	8002bec <EE_PageTransfer+0xb4>
 8002be4:	f8bd 301c 	ldrh.w	r3, [sp, #28]
 8002be8:	9300      	str	r3, [sp, #0]
 8002bea:	e05b      	b.n	8002ca4 <EE_PageTransfer+0x16c>
 8002bec:	f04f 0300 	mov.w	r3, #0	; 0x0
 8002bf0:	f8ad 301a 	strh.w	r3, [sp, #26]
 8002bf4:	e035      	b.n	8002c62 <EE_PageTransfer+0x12a>
 8002bf6:	f8bd 201a 	ldrh.w	r2, [sp, #26]
 8002bfa:	4b2e      	ldr	r3, [pc, #184]	(8002cb4 <EE_PageTransfer+0x17c>)
 8002bfc:	f833 2012 	ldrh.w	r2, [r3, r2, lsl #1]
 8002c00:	f8bd 3008 	ldrh.w	r3, [sp, #8]
 8002c04:	4293      	cmp	r3, r2
 8002c06:	d026      	beq.n	8002c56 <EE_PageTransfer+0x11e>
 8002c08:	f8bd 201a 	ldrh.w	r2, [sp, #26]
 8002c0c:	4b29      	ldr	r3, [pc, #164]	(8002cb4 <EE_PageTransfer+0x17c>)
 8002c0e:	f833 3012 	ldrh.w	r3, [r3, r2, lsl #1]
 8002c12:	4618      	mov	r0, r3
 8002c14:	4928      	ldr	r1, [pc, #160]	(8002cb8 <EE_PageTransfer+0x180>)
 8002c16:	f7ff fe0d 	bl	8002834 <EE_ReadVariable>
 8002c1a:	4603      	mov	r3, r0
 8002c1c:	f8ad 301e 	strh.w	r3, [sp, #30]
 8002c20:	f8bd 301e 	ldrh.w	r3, [sp, #30]
 8002c24:	2b01      	cmp	r3, #1
 8002c26:	d016      	beq.n	8002c56 <EE_PageTransfer+0x11e>
 8002c28:	f8bd 201a 	ldrh.w	r2, [sp, #26]
 8002c2c:	4b21      	ldr	r3, [pc, #132]	(8002cb4 <EE_PageTransfer+0x17c>)
 8002c2e:	f833 3012 	ldrh.w	r3, [r3, r2, lsl #1]
 8002c32:	461a      	mov	r2, r3
 8002c34:	4b20      	ldr	r3, [pc, #128]	(8002cb8 <EE_PageTransfer+0x180>)
 8002c36:	881b      	ldrh	r3, [r3, #0]
 8002c38:	4610      	mov	r0, r2
 8002c3a:	4619      	mov	r1, r3
 8002c3c:	f7ff ff14 	bl	8002a68 <EE_VerifyPageFullWriteVariable>
 8002c40:	4603      	mov	r3, r0
 8002c42:	f8ad 301c 	strh.w	r3, [sp, #28]
 8002c46:	f8bd 301c 	ldrh.w	r3, [sp, #28]
 8002c4a:	2b04      	cmp	r3, #4
 8002c4c:	d003      	beq.n	8002c56 <EE_PageTransfer+0x11e>
 8002c4e:	f8bd 301c 	ldrh.w	r3, [sp, #28]
 8002c52:	9300      	str	r3, [sp, #0]
 8002c54:	e026      	b.n	8002ca4 <EE_PageTransfer+0x16c>
 8002c56:	f8bd 301a 	ldrh.w	r3, [sp, #26]
 8002c5a:	f103 0301 	add.w	r3, r3, #1	; 0x1
 8002c5e:	f8ad 301a 	strh.w	r3, [sp, #26]
 8002c62:	f8bd 301a 	ldrh.w	r3, [sp, #26]
 8002c66:	2b02      	cmp	r3, #2
 8002c68:	d9c5      	bls.n	8002bf6 <EE_PageTransfer+0xbe>
 8002c6a:	9805      	ldr	r0, [sp, #20]
 8002c6c:	f005 fa56 	bl	800811c <FLASH_ErasePage>
 8002c70:	4603      	mov	r3, r0
 8002c72:	9303      	str	r3, [sp, #12]
 8002c74:	9b03      	ldr	r3, [sp, #12]
 8002c76:	2b04      	cmp	r3, #4
 8002c78:	d003      	beq.n	8002c82 <EE_PageTransfer+0x14a>
 8002c7a:	9b03      	ldr	r3, [sp, #12]
 8002c7c:	b29b      	uxth	r3, r3
 8002c7e:	9300      	str	r3, [sp, #0]
 8002c80:	e010      	b.n	8002ca4 <EE_PageTransfer+0x16c>
 8002c82:	9804      	ldr	r0, [sp, #16]
 8002c84:	f04f 0100 	mov.w	r1, #0	; 0x0
 8002c88:	f005 fb64 	bl	8008354 <FLASH_ProgramHalfWord>
 8002c8c:	4603      	mov	r3, r0
 8002c8e:	9303      	str	r3, [sp, #12]
 8002c90:	9b03      	ldr	r3, [sp, #12]
 8002c92:	2b04      	cmp	r3, #4
 8002c94:	d003      	beq.n	8002c9e <EE_PageTransfer+0x166>
 8002c96:	9b03      	ldr	r3, [sp, #12]
 8002c98:	b29b      	uxth	r3, r3
 8002c9a:	9300      	str	r3, [sp, #0]
 8002c9c:	e002      	b.n	8002ca4 <EE_PageTransfer+0x16c>
 8002c9e:	9b03      	ldr	r3, [sp, #12]
 8002ca0:	b29b      	uxth	r3, r3
 8002ca2:	9300      	str	r3, [sp, #0]
 8002ca4:	9b00      	ldr	r3, [sp, #0]
 8002ca6:	4618      	mov	r0, r3
 8002ca8:	b008      	add	sp, #32
 8002caa:	bd00      	pop	{pc}
 8002cac:	0801f800 	.word	0x0801f800
 8002cb0:	0801fc00 	.word	0x0801fc00
 8002cb4:	20000030 	.word	0x20000030
 8002cb8:	20000180 	.word	0x20000180

08002cbc <__get_PSP>:
 8002cbc:	b081      	sub	sp, #4
 8002cbe:	f04f 0300 	mov.w	r3, #0	; 0x0
 8002cc2:	9300      	str	r3, [sp, #0]
 8002cc4:	f3ef 8309 	mrs	r3, PSP
 8002cc8:	9300      	str	r3, [sp, #0]
 8002cca:	9b00      	ldr	r3, [sp, #0]
 8002ccc:	4618      	mov	r0, r3
 8002cce:	b001      	add	sp, #4
 8002cd0:	4770      	bx	lr
 8002cd2:	46c0      	nop			(mov r8, r8)

08002cd4 <__set_PSP>:
 8002cd4:	b081      	sub	sp, #4
 8002cd6:	9000      	str	r0, [sp, #0]
 8002cd8:	9b00      	ldr	r3, [sp, #0]
 8002cda:	f383 8809 	msr	PSP, r3
 8002cde:	b001      	add	sp, #4
 8002ce0:	4770      	bx	lr
 8002ce2:	46c0      	nop			(mov r8, r8)

08002ce4 <__get_MSP>:
 8002ce4:	b081      	sub	sp, #4
 8002ce6:	f04f 0300 	mov.w	r3, #0	; 0x0
 8002cea:	9300      	str	r3, [sp, #0]
 8002cec:	f3ef 8308 	mrs	r3, MSP
 8002cf0:	9300      	str	r3, [sp, #0]
 8002cf2:	9b00      	ldr	r3, [sp, #0]
 8002cf4:	4618      	mov	r0, r3
 8002cf6:	b001      	add	sp, #4
 8002cf8:	4770      	bx	lr
 8002cfa:	46c0      	nop			(mov r8, r8)

08002cfc <__set_MSP>:
 8002cfc:	b081      	sub	sp, #4
 8002cfe:	9000      	str	r0, [sp, #0]
 8002d00:	9b00      	ldr	r3, [sp, #0]
 8002d02:	f383 8808 	msr	MSP, r3
 8002d06:	b001      	add	sp, #4
 8002d08:	4770      	bx	lr
 8002d0a:	46c0      	nop			(mov r8, r8)

08002d0c <__get_BASEPRI>:
 8002d0c:	b081      	sub	sp, #4
 8002d0e:	f04f 0300 	mov.w	r3, #0	; 0x0
 8002d12:	9300      	str	r3, [sp, #0]
 8002d14:	f3ef 8312 	mrs	r3, BASEPRI_MASK
 8002d18:	9300      	str	r3, [sp, #0]
 8002d1a:	9b00      	ldr	r3, [sp, #0]
 8002d1c:	4618      	mov	r0, r3
 8002d1e:	b001      	add	sp, #4
 8002d20:	4770      	bx	lr
 8002d22:	46c0      	nop			(mov r8, r8)

08002d24 <__set_BASEPRI>:
 8002d24:	b081      	sub	sp, #4
 8002d26:	9000      	str	r0, [sp, #0]
 8002d28:	9b00      	ldr	r3, [sp, #0]
 8002d2a:	f383 8811 	msr	BASEPRI, r3
 8002d2e:	b001      	add	sp, #4
 8002d30:	4770      	bx	lr
 8002d32:	46c0      	nop			(mov r8, r8)

08002d34 <__get_PRIMASK>:
 8002d34:	b081      	sub	sp, #4
 8002d36:	f04f 0300 	mov.w	r3, #0	; 0x0
 8002d3a:	9300      	str	r3, [sp, #0]
 8002d3c:	f3ef 8310 	mrs	r3, PRIMASK
 8002d40:	9300      	str	r3, [sp, #0]
 8002d42:	9b00      	ldr	r3, [sp, #0]
 8002d44:	4618      	mov	r0, r3
 8002d46:	b001      	add	sp, #4
 8002d48:	4770      	bx	lr
 8002d4a:	46c0      	nop			(mov r8, r8)

08002d4c <__set_PRIMASK>:
 8002d4c:	b081      	sub	sp, #4
 8002d4e:	9000      	str	r0, [sp, #0]
 8002d50:	9b00      	ldr	r3, [sp, #0]
 8002d52:	f383 8810 	msr	PRIMASK, r3
 8002d56:	b001      	add	sp, #4
 8002d58:	4770      	bx	lr
 8002d5a:	46c0      	nop			(mov r8, r8)

08002d5c <__get_FAULTMASK>:
 8002d5c:	b081      	sub	sp, #4
 8002d5e:	f04f 0300 	mov.w	r3, #0	; 0x0
 8002d62:	9300      	str	r3, [sp, #0]
 8002d64:	f3ef 8313 	mrs	r3, FAULTMASK
 8002d68:	9300      	str	r3, [sp, #0]
 8002d6a:	9b00      	ldr	r3, [sp, #0]
 8002d6c:	4618      	mov	r0, r3
 8002d6e:	b001      	add	sp, #4
 8002d70:	4770      	bx	lr
 8002d72:	46c0      	nop			(mov r8, r8)

08002d74 <__set_FAULTMASK>:
 8002d74:	b081      	sub	sp, #4
 8002d76:	9000      	str	r0, [sp, #0]
 8002d78:	9b00      	ldr	r3, [sp, #0]
 8002d7a:	f383 8813 	msr	FAULTMASK, r3
 8002d7e:	b001      	add	sp, #4
 8002d80:	4770      	bx	lr
 8002d82:	46c0      	nop			(mov r8, r8)

08002d84 <__REV>:
 8002d84:	b082      	sub	sp, #8
 8002d86:	9000      	str	r0, [sp, #0]
 8002d88:	f04f 0300 	mov.w	r3, #0	; 0x0
 8002d8c:	9301      	str	r3, [sp, #4]
 8002d8e:	9b00      	ldr	r3, [sp, #0]
 8002d90:	ba1b      	rev	r3, r3
 8002d92:	9301      	str	r3, [sp, #4]
 8002d94:	9b01      	ldr	r3, [sp, #4]
 8002d96:	4618      	mov	r0, r3
 8002d98:	b002      	add	sp, #8
 8002d9a:	4770      	bx	lr

08002d9c <__REV16>:
 8002d9c:	b082      	sub	sp, #8
 8002d9e:	4603      	mov	r3, r0
 8002da0:	f8ad 3000 	strh.w	r3, [sp]
 8002da4:	f04f 0300 	mov.w	r3, #0	; 0x0
 8002da8:	9301      	str	r3, [sp, #4]
 8002daa:	f8bd 3000 	ldrh.w	r3, [sp]
 8002dae:	ba5b      	rev16	r3, r3
 8002db0:	9301      	str	r3, [sp, #4]
 8002db2:	9b01      	ldr	r3, [sp, #4]
 8002db4:	4618      	mov	r0, r3
 8002db6:	b002      	add	sp, #8
 8002db8:	4770      	bx	lr
 8002dba:	46c0      	nop			(mov r8, r8)

08002dbc <__REVSH>:
 8002dbc:	b082      	sub	sp, #8
 8002dbe:	4603      	mov	r3, r0
 8002dc0:	f8ad 3000 	strh.w	r3, [sp]
 8002dc4:	f04f 0300 	mov.w	r3, #0	; 0x0
 8002dc8:	9301      	str	r3, [sp, #4]
 8002dca:	f8bd 3000 	ldrh.w	r3, [sp]
 8002dce:	badb      	revsh	r3, r3
 8002dd0:	9301      	str	r3, [sp, #4]
 8002dd2:	9b01      	ldr	r3, [sp, #4]
 8002dd4:	4618      	mov	r0, r3
 8002dd6:	b002      	add	sp, #8
 8002dd8:	4770      	bx	lr
 8002dda:	46c0      	nop			(mov r8, r8)

08002ddc <__RBIT>:
 8002ddc:	b082      	sub	sp, #8
 8002dde:	9000      	str	r0, [sp, #0]
 8002de0:	f04f 0300 	mov.w	r3, #0	; 0x0
 8002de4:	9301      	str	r3, [sp, #4]
 8002de6:	9b00      	ldr	r3, [sp, #0]
 8002de8:	fa93 f3a3 	rbit	r3, r3
 8002dec:	9301      	str	r3, [sp, #4]
 8002dee:	9b01      	ldr	r3, [sp, #4]
 8002df0:	4618      	mov	r0, r3
 8002df2:	b002      	add	sp, #8
 8002df4:	4770      	bx	lr
 8002df6:	46c0      	nop			(mov r8, r8)

08002df8 <__LDREXB>:
 8002df8:	b082      	sub	sp, #8
 8002dfa:	9000      	str	r0, [sp, #0]
 8002dfc:	f04f 0300 	mov.w	r3, #0	; 0x0
 8002e00:	f88d 3007 	strb.w	r3, [sp, #7]
 8002e04:	9b00      	ldr	r3, [sp, #0]
 8002e06:	e8d3 3f4f 	ldrexb	r3, [r3]
 8002e0a:	f88d 3007 	strb.w	r3, [sp, #7]
 8002e0e:	f89d 3007 	ldrb.w	r3, [sp, #7]
 8002e12:	4618      	mov	r0, r3
 8002e14:	b002      	add	sp, #8
 8002e16:	4770      	bx	lr

08002e18 <__LDREXH>:
 8002e18:	b082      	sub	sp, #8
 8002e1a:	9000      	str	r0, [sp, #0]
 8002e1c:	f04f 0300 	mov.w	r3, #0	; 0x0
 8002e20:	f8ad 3006 	strh.w	r3, [sp, #6]
 8002e24:	9b00      	ldr	r3, [sp, #0]
 8002e26:	e8d3 3f5f 	ldrexh	r3, [r3]
 8002e2a:	f8ad 3006 	strh.w	r3, [sp, #6]
 8002e2e:	f8bd 3006 	ldrh.w	r3, [sp, #6]
 8002e32:	4618      	mov	r0, r3
 8002e34:	b002      	add	sp, #8
 8002e36:	4770      	bx	lr

08002e38 <__LDREXW>:
 8002e38:	b082      	sub	sp, #8
 8002e3a:	9000      	str	r0, [sp, #0]
 8002e3c:	f04f 0300 	mov.w	r3, #0	; 0x0
 8002e40:	9301      	str	r3, [sp, #4]
 8002e42:	9b00      	ldr	r3, [sp, #0]
 8002e44:	e853 3f00 	ldrex	r3, [r3]
 8002e48:	9301      	str	r3, [sp, #4]
 8002e4a:	9b01      	ldr	r3, [sp, #4]
 8002e4c:	4618      	mov	r0, r3
 8002e4e:	b002      	add	sp, #8
 8002e50:	4770      	bx	lr
 8002e52:	46c0      	nop			(mov r8, r8)

08002e54 <__STREXB>:
 8002e54:	b083      	sub	sp, #12
 8002e56:	4603      	mov	r3, r0
 8002e58:	9100      	str	r1, [sp, #0]
 8002e5a:	f88d 3004 	strb.w	r3, [sp, #4]
 8002e5e:	f04f 0300 	mov.w	r3, #0	; 0x0
 8002e62:	9302      	str	r3, [sp, #8]
 8002e64:	9a00      	ldr	r2, [sp, #0]
 8002e66:	f89d 3004 	ldrb.w	r3, [sp, #4]
 8002e6a:	e8c2 3f43 	strexb	r3, r3, [r2]
 8002e6e:	9302      	str	r3, [sp, #8]
 8002e70:	9b02      	ldr	r3, [sp, #8]
 8002e72:	4618      	mov	r0, r3
 8002e74:	b003      	add	sp, #12
 8002e76:	4770      	bx	lr

08002e78 <__STREXH>:
 8002e78:	b083      	sub	sp, #12
 8002e7a:	4603      	mov	r3, r0
 8002e7c:	9100      	str	r1, [sp, #0]
 8002e7e:	f8ad 3004 	strh.w	r3, [sp, #4]
 8002e82:	f04f 0300 	mov.w	r3, #0	; 0x0
 8002e86:	9302      	str	r3, [sp, #8]
 8002e88:	9a00      	ldr	r2, [sp, #0]
 8002e8a:	f8bd 3004 	ldrh.w	r3, [sp, #4]
 8002e8e:	e8c2 3f53 	strexh	r3, r3, [r2]
 8002e92:	9302      	str	r3, [sp, #8]
 8002e94:	9b02      	ldr	r3, [sp, #8]
 8002e96:	4618      	mov	r0, r3
 8002e98:	b003      	add	sp, #12
 8002e9a:	4770      	bx	lr

08002e9c <__STREXW>:
 8002e9c:	b083      	sub	sp, #12
 8002e9e:	9001      	str	r0, [sp, #4]
 8002ea0:	9100      	str	r1, [sp, #0]
 8002ea2:	f04f 0300 	mov.w	r3, #0	; 0x0
 8002ea6:	9302      	str	r3, [sp, #8]
 8002ea8:	9a00      	ldr	r2, [sp, #0]
 8002eaa:	9b01      	ldr	r3, [sp, #4]
 8002eac:	e842 3300 	strex	r3, r3, [r2]
 8002eb0:	9302      	str	r3, [sp, #8]
 8002eb2:	9b02      	ldr	r3, [sp, #8]
 8002eb4:	4618      	mov	r0, r3
 8002eb6:	b003      	add	sp, #12
 8002eb8:	4770      	bx	lr
 8002eba:	46c0      	nop			(mov r8, r8)

08002ebc <__get_CONTROL>:
 8002ebc:	b081      	sub	sp, #4
 8002ebe:	f04f 0300 	mov.w	r3, #0	; 0x0
 8002ec2:	9300      	str	r3, [sp, #0]
 8002ec4:	f3ef 8314 	mrs	r3, CONTROL
 8002ec8:	9300      	str	r3, [sp, #0]
 8002eca:	9b00      	ldr	r3, [sp, #0]
 8002ecc:	4618      	mov	r0, r3
 8002ece:	b001      	add	sp, #4
 8002ed0:	4770      	bx	lr
 8002ed2:	46c0      	nop			(mov r8, r8)

08002ed4 <__set_CONTROL>:
 8002ed4:	b081      	sub	sp, #4
 8002ed6:	9000      	str	r0, [sp, #0]
 8002ed8:	9b00      	ldr	r3, [sp, #0]
 8002eda:	f383 8814 	msr	CONTROL, r3
 8002ede:	b001      	add	sp, #4
 8002ee0:	4770      	bx	lr
 8002ee2:	46c0      	nop			(mov r8, r8)

08002ee4 <RCC_DeInit>:
 8002ee4:	4a12      	ldr	r2, [pc, #72]	(8002f30 <RCC_DeInit+0x4c>)
 8002ee6:	4b12      	ldr	r3, [pc, #72]	(8002f30 <RCC_DeInit+0x4c>)
 8002ee8:	681b      	ldr	r3, [r3, #0]
 8002eea:	f043 0301 	orr.w	r3, r3, #1	; 0x1
 8002eee:	6013      	str	r3, [r2, #0]
 8002ef0:	490f      	ldr	r1, [pc, #60]	(8002f30 <RCC_DeInit+0x4c>)
 8002ef2:	4b0f      	ldr	r3, [pc, #60]	(8002f30 <RCC_DeInit+0x4c>)
 8002ef4:	685a      	ldr	r2, [r3, #4]
 8002ef6:	4b0f      	ldr	r3, [pc, #60]	(8002f34 <RCC_DeInit+0x50>)
 8002ef8:	ea02 0303 	and.w	r3, r2, r3
 8002efc:	604b      	str	r3, [r1, #4]
 8002efe:	4a0c      	ldr	r2, [pc, #48]	(8002f30 <RCC_DeInit+0x4c>)
 8002f00:	4b0b      	ldr	r3, [pc, #44]	(8002f30 <RCC_DeInit+0x4c>)
 8002f02:	681b      	ldr	r3, [r3, #0]
 8002f04:	f023 7384 	bic.w	r3, r3, #17301504	; 0x1080000
 8002f08:	f423 3380 	bic.w	r3, r3, #65536	; 0x10000
 8002f0c:	6013      	str	r3, [r2, #0]
 8002f0e:	4a08      	ldr	r2, [pc, #32]	(8002f30 <RCC_DeInit+0x4c>)
 8002f10:	4b07      	ldr	r3, [pc, #28]	(8002f30 <RCC_DeInit+0x4c>)
 8002f12:	681b      	ldr	r3, [r3, #0]
 8002f14:	f423 2380 	bic.w	r3, r3, #262144	; 0x40000
 8002f18:	6013      	str	r3, [r2, #0]
 8002f1a:	4a05      	ldr	r2, [pc, #20]	(8002f30 <RCC_DeInit+0x4c>)
 8002f1c:	4b04      	ldr	r3, [pc, #16]	(8002f30 <RCC_DeInit+0x4c>)
 8002f1e:	685b      	ldr	r3, [r3, #4]
 8002f20:	f423 03fe 	bic.w	r3, r3, #8323072	; 0x7f0000
 8002f24:	6053      	str	r3, [r2, #4]
 8002f26:	4a02      	ldr	r2, [pc, #8]	(8002f30 <RCC_DeInit+0x4c>)
 8002f28:	f04f 0300 	mov.w	r3, #0	; 0x0
 8002f2c:	6093      	str	r3, [r2, #8]
 8002f2e:	4770      	bx	lr
 8002f30:	40021000 	.word	0x40021000
 8002f34:	f8ff0000 	.word	0xf8ff0000

08002f38 <RCC_HSEConfig>:
 8002f38:	b082      	sub	sp, #8
 8002f3a:	9001      	str	r0, [sp, #4]
 8002f3c:	4a12      	ldr	r2, [pc, #72]	(8002f88 <RCC_HSEConfig+0x50>)
 8002f3e:	4b12      	ldr	r3, [pc, #72]	(8002f88 <RCC_HSEConfig+0x50>)
 8002f40:	681b      	ldr	r3, [r3, #0]
 8002f42:	f423 3380 	bic.w	r3, r3, #65536	; 0x10000
 8002f46:	6013      	str	r3, [r2, #0]
 8002f48:	4a0f      	ldr	r2, [pc, #60]	(8002f88 <RCC_HSEConfig+0x50>)
 8002f4a:	4b0f      	ldr	r3, [pc, #60]	(8002f88 <RCC_HSEConfig+0x50>)
 8002f4c:	681b      	ldr	r3, [r3, #0]
 8002f4e:	f423 2380 	bic.w	r3, r3, #262144	; 0x40000
 8002f52:	6013      	str	r3, [r2, #0]
 8002f54:	9b01      	ldr	r3, [sp, #4]
 8002f56:	9300      	str	r3, [sp, #0]
 8002f58:	9b00      	ldr	r3, [sp, #0]
 8002f5a:	f5b3 3f80 	cmp.w	r3, #65536	; 0x10000
 8002f5e:	d004      	beq.n	8002f6a <RCC_HSEConfig+0x32>
 8002f60:	9b00      	ldr	r3, [sp, #0]
 8002f62:	f5b3 2f80 	cmp.w	r3, #262144	; 0x40000
 8002f66:	d007      	beq.n	8002f78 <RCC_HSEConfig+0x40>
 8002f68:	e00c      	b.n	8002f84 <RCC_HSEConfig+0x4c>
 8002f6a:	4a07      	ldr	r2, [pc, #28]	(8002f88 <RCC_HSEConfig+0x50>)
 8002f6c:	4b06      	ldr	r3, [pc, #24]	(8002f88 <RCC_HSEConfig+0x50>)
 8002f6e:	681b      	ldr	r3, [r3, #0]
 8002f70:	f443 3380 	orr.w	r3, r3, #65536	; 0x10000
 8002f74:	6013      	str	r3, [r2, #0]
 8002f76:	e005      	b.n	8002f84 <RCC_HSEConfig+0x4c>
 8002f78:	4a03      	ldr	r2, [pc, #12]	(8002f88 <RCC_HSEConfig+0x50>)
 8002f7a:	4b03      	ldr	r3, [pc, #12]	(8002f88 <RCC_HSEConfig+0x50>)
 8002f7c:	681b      	ldr	r3, [r3, #0]
 8002f7e:	f443 23a0 	orr.w	r3, r3, #327680	; 0x50000
 8002f82:	6013      	str	r3, [r2, #0]
 8002f84:	b002      	add	sp, #8
 8002f86:	4770      	bx	lr
 8002f88:	40021000 	.word	0x40021000

08002f8c <RCC_WaitForHSEStartUp>:
 8002f8c:	b500      	push	{lr}
 8002f8e:	b083      	sub	sp, #12
 8002f90:	f04f 0300 	mov.w	r3, #0	; 0x0
 8002f94:	9300      	str	r3, [sp, #0]
 8002f96:	f04f 0300 	mov.w	r3, #0	; 0x0
 8002f9a:	9301      	str	r3, [sp, #4]
 8002f9c:	f04f 0300 	mov.w	r3, #0	; 0x0
 8002fa0:	9302      	str	r3, [sp, #8]
 8002fa2:	f04f 0031 	mov.w	r0, #49	; 0x31
 8002fa6:	f000 fac9 	bl	800353c <RCC_GetFlagStatus>
 8002faa:	4603      	mov	r3, r0
 8002fac:	9302      	str	r3, [sp, #8]
 8002fae:	9b00      	ldr	r3, [sp, #0]
 8002fb0:	f103 0301 	add.w	r3, r3, #1	; 0x1
 8002fb4:	9300      	str	r3, [sp, #0]
 8002fb6:	9b02      	ldr	r3, [sp, #8]
 8002fb8:	2b00      	cmp	r3, #0
 8002fba:	d103      	bne.n	8002fc4 <RCC_WaitForHSEStartUp+0x38>
 8002fbc:	9b00      	ldr	r3, [sp, #0]
 8002fbe:	f5b3 6fa0 	cmp.w	r3, #1280	; 0x500
 8002fc2:	d1ee      	bne.n	8002fa2 <RCC_WaitForHSEStartUp+0x16>
 8002fc4:	f04f 0031 	mov.w	r0, #49	; 0x31
 8002fc8:	f000 fab8 	bl	800353c <RCC_GetFlagStatus>
 8002fcc:	4603      	mov	r3, r0
 8002fce:	2b00      	cmp	r3, #0
 8002fd0:	d003      	beq.n	8002fda <RCC_WaitForHSEStartUp+0x4e>
 8002fd2:	f04f 0301 	mov.w	r3, #1	; 0x1
 8002fd6:	9301      	str	r3, [sp, #4]
 8002fd8:	e002      	b.n	8002fe0 <RCC_WaitForHSEStartUp+0x54>
 8002fda:	f04f 0300 	mov.w	r3, #0	; 0x0
 8002fde:	9301      	str	r3, [sp, #4]
 8002fe0:	9b01      	ldr	r3, [sp, #4]
 8002fe2:	4618      	mov	r0, r3
 8002fe4:	b003      	add	sp, #12
 8002fe6:	bd00      	pop	{pc}

08002fe8 <RCC_AdjustHSICalibrationValue>:
 8002fe8:	b082      	sub	sp, #8
 8002fea:	4603      	mov	r3, r0
 8002fec:	f88d 3000 	strb.w	r3, [sp]
 8002ff0:	f04f 0300 	mov.w	r3, #0	; 0x0
 8002ff4:	9301      	str	r3, [sp, #4]
 8002ff6:	4b0a      	ldr	r3, [pc, #40]	(8003020 <RCC_AdjustHSICalibrationValue+0x38>)
 8002ff8:	681b      	ldr	r3, [r3, #0]
 8002ffa:	9301      	str	r3, [sp, #4]
 8002ffc:	9b01      	ldr	r3, [sp, #4]
 8002ffe:	f023 03f8 	bic.w	r3, r3, #248	; 0xf8
 8003002:	9301      	str	r3, [sp, #4]
 8003004:	f89d 3000 	ldrb.w	r3, [sp]
 8003008:	ea4f 02c3 	mov.w	r2, r3, lsl #3
 800300c:	9b01      	ldr	r3, [sp, #4]
 800300e:	ea43 0302 	orr.w	r3, r3, r2
 8003012:	9301      	str	r3, [sp, #4]
 8003014:	4a02      	ldr	r2, [pc, #8]	(8003020 <RCC_AdjustHSICalibrationValue+0x38>)
 8003016:	9b01      	ldr	r3, [sp, #4]
 8003018:	6013      	str	r3, [r2, #0]
 800301a:	b002      	add	sp, #8
 800301c:	4770      	bx	lr
 800301e:	46c0      	nop			(mov r8, r8)
 8003020:	40021000 	.word	0x40021000

08003024 <RCC_HSICmd>:
 8003024:	b081      	sub	sp, #4
 8003026:	9000      	str	r0, [sp, #0]
 8003028:	4a02      	ldr	r2, [pc, #8]	(8003034 <RCC_HSICmd+0x10>)
 800302a:	9b00      	ldr	r3, [sp, #0]
 800302c:	6013      	str	r3, [r2, #0]
 800302e:	b001      	add	sp, #4
 8003030:	4770      	bx	lr
 8003032:	46c0      	nop			(mov r8, r8)
 8003034:	42420000 	.word	0x42420000

08003038 <RCC_PLLConfig>:
 8003038:	b083      	sub	sp, #12
 800303a:	9001      	str	r0, [sp, #4]
 800303c:	9100      	str	r1, [sp, #0]
 800303e:	f04f 0300 	mov.w	r3, #0	; 0x0
 8003042:	9302      	str	r3, [sp, #8]
 8003044:	4b09      	ldr	r3, [pc, #36]	(800306c <RCC_PLLConfig+0x34>)
 8003046:	685b      	ldr	r3, [r3, #4]
 8003048:	9302      	str	r3, [sp, #8]
 800304a:	9b02      	ldr	r3, [sp, #8]
 800304c:	f423 137c 	bic.w	r3, r3, #4128768	; 0x3f0000
 8003050:	9302      	str	r3, [sp, #8]
 8003052:	9a01      	ldr	r2, [sp, #4]
 8003054:	9b00      	ldr	r3, [sp, #0]
 8003056:	ea42 0203 	orr.w	r2, r2, r3
 800305a:	9b02      	ldr	r3, [sp, #8]
 800305c:	ea43 0302 	orr.w	r3, r3, r2
 8003060:	9302      	str	r3, [sp, #8]
 8003062:	4a02      	ldr	r2, [pc, #8]	(800306c <RCC_PLLConfig+0x34>)
 8003064:	9b02      	ldr	r3, [sp, #8]
 8003066:	6053      	str	r3, [r2, #4]
 8003068:	b003      	add	sp, #12
 800306a:	4770      	bx	lr
 800306c:	40021000 	.word	0x40021000

08003070 <RCC_PLLCmd>:
 8003070:	b081      	sub	sp, #4
 8003072:	9000      	str	r0, [sp, #0]
 8003074:	4a02      	ldr	r2, [pc, #8]	(8003080 <RCC_PLLCmd+0x10>)
 8003076:	9b00      	ldr	r3, [sp, #0]
 8003078:	6013      	str	r3, [r2, #0]
 800307a:	b001      	add	sp, #4
 800307c:	4770      	bx	lr
 800307e:	46c0      	nop			(mov r8, r8)
 8003080:	42420060 	.word	0x42420060

08003084 <RCC_SYSCLKConfig>:
 8003084:	b082      	sub	sp, #8
 8003086:	9000      	str	r0, [sp, #0]
 8003088:	f04f 0300 	mov.w	r3, #0	; 0x0
 800308c:	9301      	str	r3, [sp, #4]
 800308e:	4b08      	ldr	r3, [pc, #32]	(80030b0 <RCC_SYSCLKConfig+0x2c>)
 8003090:	685b      	ldr	r3, [r3, #4]
 8003092:	9301      	str	r3, [sp, #4]
 8003094:	9b01      	ldr	r3, [sp, #4]
 8003096:	f023 0303 	bic.w	r3, r3, #3	; 0x3
 800309a:	9301      	str	r3, [sp, #4]
 800309c:	9a01      	ldr	r2, [sp, #4]
 800309e:	9b00      	ldr	r3, [sp, #0]
 80030a0:	ea42 0303 	orr.w	r3, r2, r3
 80030a4:	9301      	str	r3, [sp, #4]
 80030a6:	4a02      	ldr	r2, [pc, #8]	(80030b0 <RCC_SYSCLKConfig+0x2c>)
 80030a8:	9b01      	ldr	r3, [sp, #4]
 80030aa:	6053      	str	r3, [r2, #4]
 80030ac:	b002      	add	sp, #8
 80030ae:	4770      	bx	lr
 80030b0:	40021000 	.word	0x40021000

080030b4 <RCC_GetSYSCLKSource>:
 80030b4:	4b03      	ldr	r3, [pc, #12]	(80030c4 <RCC_GetSYSCLKSource+0x10>)
 80030b6:	685b      	ldr	r3, [r3, #4]
 80030b8:	b2db      	uxtb	r3, r3
 80030ba:	f003 030c 	and.w	r3, r3, #12	; 0xc
 80030be:	4618      	mov	r0, r3
 80030c0:	4770      	bx	lr
 80030c2:	46c0      	nop			(mov r8, r8)
 80030c4:	40021000 	.word	0x40021000

080030c8 <RCC_HCLKConfig>:
 80030c8:	b082      	sub	sp, #8
 80030ca:	9000      	str	r0, [sp, #0]
 80030cc:	f04f 0300 	mov.w	r3, #0	; 0x0
 80030d0:	9301      	str	r3, [sp, #4]
 80030d2:	4b08      	ldr	r3, [pc, #32]	(80030f4 <RCC_HCLKConfig+0x2c>)
 80030d4:	685b      	ldr	r3, [r3, #4]
 80030d6:	9301      	str	r3, [sp, #4]
 80030d8:	9b01      	ldr	r3, [sp, #4]
 80030da:	f023 03f0 	bic.w	r3, r3, #240	; 0xf0
 80030de:	9301      	str	r3, [sp, #4]
 80030e0:	9a01      	ldr	r2, [sp, #4]
 80030e2:	9b00      	ldr	r3, [sp, #0]
 80030e4:	ea42 0303 	orr.w	r3, r2, r3
 80030e8:	9301      	str	r3, [sp, #4]
 80030ea:	4a02      	ldr	r2, [pc, #8]	(80030f4 <RCC_HCLKConfig+0x2c>)
 80030ec:	9b01      	ldr	r3, [sp, #4]
 80030ee:	6053      	str	r3, [r2, #4]
 80030f0:	b002      	add	sp, #8
 80030f2:	4770      	bx	lr
 80030f4:	40021000 	.word	0x40021000

080030f8 <RCC_PCLK1Config>:
 80030f8:	b082      	sub	sp, #8
 80030fa:	9000      	str	r0, [sp, #0]
 80030fc:	f04f 0300 	mov.w	r3, #0	; 0x0
 8003100:	9301      	str	r3, [sp, #4]
 8003102:	4b08      	ldr	r3, [pc, #32]	(8003124 <RCC_PCLK1Config+0x2c>)
 8003104:	685b      	ldr	r3, [r3, #4]
 8003106:	9301      	str	r3, [sp, #4]
 8003108:	9b01      	ldr	r3, [sp, #4]
 800310a:	f423 63e0 	bic.w	r3, r3, #1792	; 0x700
 800310e:	9301      	str	r3, [sp, #4]
 8003110:	9a01      	ldr	r2, [sp, #4]
 8003112:	9b00      	ldr	r3, [sp, #0]
 8003114:	ea42 0303 	orr.w	r3, r2, r3
 8003118:	9301      	str	r3, [sp, #4]
 800311a:	4a02      	ldr	r2, [pc, #8]	(8003124 <RCC_PCLK1Config+0x2c>)
 800311c:	9b01      	ldr	r3, [sp, #4]
 800311e:	6053      	str	r3, [r2, #4]
 8003120:	b002      	add	sp, #8
 8003122:	4770      	bx	lr
 8003124:	40021000 	.word	0x40021000

08003128 <RCC_PCLK2Config>:
 8003128:	b082      	sub	sp, #8
 800312a:	9000      	str	r0, [sp, #0]
 800312c:	f04f 0300 	mov.w	r3, #0	; 0x0
 8003130:	9301      	str	r3, [sp, #4]
 8003132:	4b09      	ldr	r3, [pc, #36]	(8003158 <RCC_PCLK2Config+0x30>)
 8003134:	685b      	ldr	r3, [r3, #4]
 8003136:	9301      	str	r3, [sp, #4]
 8003138:	9b01      	ldr	r3, [sp, #4]
 800313a:	f423 5360 	bic.w	r3, r3, #14336	; 0x3800
 800313e:	9301      	str	r3, [sp, #4]
 8003140:	9b00      	ldr	r3, [sp, #0]
 8003142:	ea4f 02c3 	mov.w	r2, r3, lsl #3
 8003146:	9b01      	ldr	r3, [sp, #4]
 8003148:	ea43 0302 	orr.w	r3, r3, r2
 800314c:	9301      	str	r3, [sp, #4]
 800314e:	4a02      	ldr	r2, [pc, #8]	(8003158 <RCC_PCLK2Config+0x30>)
 8003150:	9b01      	ldr	r3, [sp, #4]
 8003152:	6053      	str	r3, [r2, #4]
 8003154:	b002      	add	sp, #8
 8003156:	4770      	bx	lr
 8003158:	40021000 	.word	0x40021000

0800315c <RCC_ITConfig>:
 800315c:	b082      	sub	sp, #8
 800315e:	4603      	mov	r3, r0
 8003160:	9100      	str	r1, [sp, #0]
 8003162:	f88d 3004 	strb.w	r3, [sp, #4]
 8003166:	9b00      	ldr	r3, [sp, #0]
 8003168:	2b00      	cmp	r3, #0
 800316a:	d00a      	beq.n	8003182 <RCC_ITConfig+0x26>
 800316c:	490c      	ldr	r1, [pc, #48]	(80031a0 <RCC_ITConfig+0x44>)
 800316e:	4b0c      	ldr	r3, [pc, #48]	(80031a0 <RCC_ITConfig+0x44>)
 8003170:	781b      	ldrb	r3, [r3, #0]
 8003172:	b2da      	uxtb	r2, r3
 8003174:	f89d 3004 	ldrb.w	r3, [sp, #4]
 8003178:	ea42 0303 	orr.w	r3, r2, r3
 800317c:	b2db      	uxtb	r3, r3
 800317e:	700b      	strb	r3, [r1, #0]
 8003180:	e00c      	b.n	800319c <RCC_ITConfig+0x40>
 8003182:	4907      	ldr	r1, [pc, #28]	(80031a0 <RCC_ITConfig+0x44>)
 8003184:	4b06      	ldr	r3, [pc, #24]	(80031a0 <RCC_ITConfig+0x44>)
 8003186:	781b      	ldrb	r3, [r3, #0]
 8003188:	b2da      	uxtb	r2, r3
 800318a:	f89d 3004 	ldrb.w	r3, [sp, #4]
 800318e:	ea6f 0303 	mvn.w	r3, r3
 8003192:	b2db      	uxtb	r3, r3
 8003194:	ea02 0303 	and.w	r3, r2, r3
 8003198:	b2db      	uxtb	r3, r3
 800319a:	700b      	strb	r3, [r1, #0]
 800319c:	b002      	add	sp, #8
 800319e:	4770      	bx	lr
 80031a0:	40021009 	.word	0x40021009

080031a4 <RCC_USBCLKConfig>:
 80031a4:	b081      	sub	sp, #4
 80031a6:	9000      	str	r0, [sp, #0]
 80031a8:	4a02      	ldr	r2, [pc, #8]	(80031b4 <RCC_USBCLKConfig+0x10>)
 80031aa:	9b00      	ldr	r3, [sp, #0]
 80031ac:	6013      	str	r3, [r2, #0]
 80031ae:	b001      	add	sp, #4
 80031b0:	4770      	bx	lr
 80031b2:	46c0      	nop			(mov r8, r8)
 80031b4:	424200d8 	.word	0x424200d8

080031b8 <RCC_ADCCLKConfig>:
 80031b8:	b082      	sub	sp, #8
 80031ba:	9000      	str	r0, [sp, #0]
 80031bc:	f04f 0300 	mov.w	r3, #0	; 0x0
 80031c0:	9301      	str	r3, [sp, #4]
 80031c2:	4b08      	ldr	r3, [pc, #32]	(80031e4 <RCC_ADCCLKConfig+0x2c>)
 80031c4:	685b      	ldr	r3, [r3, #4]
 80031c6:	9301      	str	r3, [sp, #4]
 80031c8:	9b01      	ldr	r3, [sp, #4]
 80031ca:	f423 4340 	bic.w	r3, r3, #49152	; 0xc000
 80031ce:	9301      	str	r3, [sp, #4]
 80031d0:	9a01      	ldr	r2, [sp, #4]
 80031d2:	9b00      	ldr	r3, [sp, #0]
 80031d4:	ea42 0303 	orr.w	r3, r2, r3
 80031d8:	9301      	str	r3, [sp, #4]
 80031da:	4a02      	ldr	r2, [pc, #8]	(80031e4 <RCC_ADCCLKConfig+0x2c>)
 80031dc:	9b01      	ldr	r3, [sp, #4]
 80031de:	6053      	str	r3, [r2, #4]
 80031e0:	b002      	add	sp, #8
 80031e2:	4770      	bx	lr
 80031e4:	40021000 	.word	0x40021000

080031e8 <RCC_LSEConfig>:
 80031e8:	b082      	sub	sp, #8
 80031ea:	4603      	mov	r3, r0
 80031ec:	f88d 3004 	strb.w	r3, [sp, #4]
 80031f0:	4a0e      	ldr	r2, [pc, #56]	(800322c <RCC_LSEConfig+0x44>)
 80031f2:	f04f 0300 	mov.w	r3, #0	; 0x0
 80031f6:	7013      	strb	r3, [r2, #0]
 80031f8:	4a0c      	ldr	r2, [pc, #48]	(800322c <RCC_LSEConfig+0x44>)
 80031fa:	f04f 0300 	mov.w	r3, #0	; 0x0
 80031fe:	7013      	strb	r3, [r2, #0]
 8003200:	f89d 3004 	ldrb.w	r3, [sp, #4]
 8003204:	9300      	str	r3, [sp, #0]
 8003206:	9b00      	ldr	r3, [sp, #0]
 8003208:	2b01      	cmp	r3, #1
 800320a:	d003      	beq.n	8003214 <RCC_LSEConfig+0x2c>
 800320c:	9b00      	ldr	r3, [sp, #0]
 800320e:	2b04      	cmp	r3, #4
 8003210:	d005      	beq.n	800321e <RCC_LSEConfig+0x36>
 8003212:	e008      	b.n	8003226 <RCC_LSEConfig+0x3e>
 8003214:	4b05      	ldr	r3, [pc, #20]	(800322c <RCC_LSEConfig+0x44>)
 8003216:	f04f 0201 	mov.w	r2, #1	; 0x1
 800321a:	701a      	strb	r2, [r3, #0]
 800321c:	e003      	b.n	8003226 <RCC_LSEConfig+0x3e>
 800321e:	4b03      	ldr	r3, [pc, #12]	(800322c <RCC_LSEConfig+0x44>)
 8003220:	f04f 0205 	mov.w	r2, #5	; 0x5
 8003224:	701a      	strb	r2, [r3, #0]
 8003226:	b002      	add	sp, #8
 8003228:	4770      	bx	lr
 800322a:	46c0      	nop			(mov r8, r8)
 800322c:	40021020 	.word	0x40021020

08003230 <RCC_LSICmd>:
 8003230:	b081      	sub	sp, #4
 8003232:	9000      	str	r0, [sp, #0]
 8003234:	4a02      	ldr	r2, [pc, #8]	(8003240 <RCC_LSICmd+0x10>)
 8003236:	9b00      	ldr	r3, [sp, #0]
 8003238:	6013      	str	r3, [r2, #0]
 800323a:	b001      	add	sp, #4
 800323c:	4770      	bx	lr
 800323e:	46c0      	nop			(mov r8, r8)
 8003240:	42420480 	.word	0x42420480

08003244 <RCC_RTCCLKConfig>:
 8003244:	b081      	sub	sp, #4
 8003246:	9000      	str	r0, [sp, #0]
 8003248:	4904      	ldr	r1, [pc, #16]	(800325c <RCC_RTCCLKConfig+0x18>)
 800324a:	4b04      	ldr	r3, [pc, #16]	(800325c <RCC_RTCCLKConfig+0x18>)
 800324c:	6a1a      	ldr	r2, [r3, #32]
 800324e:	9b00      	ldr	r3, [sp, #0]
 8003250:	ea42 0303 	orr.w	r3, r2, r3
 8003254:	620b      	str	r3, [r1, #32]
 8003256:	b001      	add	sp, #4
 8003258:	4770      	bx	lr
 800325a:	46c0      	nop			(mov r8, r8)
 800325c:	40021000 	.word	0x40021000

08003260 <RCC_RTCCLKCmd>:
 8003260:	b081      	sub	sp, #4
 8003262:	9000      	str	r0, [sp, #0]
 8003264:	4a02      	ldr	r2, [pc, #8]	(8003270 <RCC_RTCCLKCmd+0x10>)
 8003266:	9b00      	ldr	r3, [sp, #0]
 8003268:	6013      	str	r3, [r2, #0]
 800326a:	b001      	add	sp, #4
 800326c:	4770      	bx	lr
 800326e:	46c0      	nop			(mov r8, r8)
 8003270:	4242043c 	.word	0x4242043c

08003274 <RCC_GetClocksFreq>:
 8003274:	b086      	sub	sp, #24
 8003276:	9001      	str	r0, [sp, #4]
 8003278:	f04f 0300 	mov.w	r3, #0	; 0x0
 800327c:	9302      	str	r3, [sp, #8]
 800327e:	f04f 0300 	mov.w	r3, #0	; 0x0
 8003282:	9303      	str	r3, [sp, #12]
 8003284:	f04f 0300 	mov.w	r3, #0	; 0x0
 8003288:	9304      	str	r3, [sp, #16]
 800328a:	f04f 0300 	mov.w	r3, #0	; 0x0
 800328e:	9305      	str	r3, [sp, #20]
 8003290:	4b4f      	ldr	r3, [pc, #316]	(80033d0 <RCC_GetClocksFreq+0x15c>)
 8003292:	685b      	ldr	r3, [r3, #4]
 8003294:	f003 030c 	and.w	r3, r3, #12	; 0xc
 8003298:	9302      	str	r3, [sp, #8]
 800329a:	9b02      	ldr	r3, [sp, #8]
 800329c:	9300      	str	r3, [sp, #0]
 800329e:	9b00      	ldr	r3, [sp, #0]
 80032a0:	2b04      	cmp	r3, #4
 80032a2:	d009      	beq.n	80032b8 <RCC_GetClocksFreq+0x44>
 80032a4:	9b00      	ldr	r3, [sp, #0]
 80032a6:	2b08      	cmp	r3, #8
 80032a8:	d00a      	beq.n	80032c0 <RCC_GetClocksFreq+0x4c>
 80032aa:	9b00      	ldr	r3, [sp, #0]
 80032ac:	2b00      	cmp	r3, #0
 80032ae:	d135      	bne.n	800331c <RCC_GetClocksFreq+0xa8>
 80032b0:	9a01      	ldr	r2, [sp, #4]
 80032b2:	4b48      	ldr	r3, [pc, #288]	(80033d4 <RCC_GetClocksFreq+0x160>)
 80032b4:	6013      	str	r3, [r2, #0]
 80032b6:	e034      	b.n	8003322 <RCC_GetClocksFreq+0xae>
 80032b8:	9a01      	ldr	r2, [sp, #4]
 80032ba:	4b46      	ldr	r3, [pc, #280]	(80033d4 <RCC_GetClocksFreq+0x160>)
 80032bc:	6013      	str	r3, [r2, #0]
 80032be:	e030      	b.n	8003322 <RCC_GetClocksFreq+0xae>
 80032c0:	4b43      	ldr	r3, [pc, #268]	(80033d0 <RCC_GetClocksFreq+0x15c>)
 80032c2:	685b      	ldr	r3, [r3, #4]
 80032c4:	f403 1370 	and.w	r3, r3, #3932160	; 0x3c0000
 80032c8:	9303      	str	r3, [sp, #12]
 80032ca:	9b03      	ldr	r3, [sp, #12]
 80032cc:	ea4f 4393 	mov.w	r3, r3, lsr #18
 80032d0:	f103 0302 	add.w	r3, r3, #2	; 0x2
 80032d4:	9303      	str	r3, [sp, #12]
 80032d6:	4b3e      	ldr	r3, [pc, #248]	(80033d0 <RCC_GetClocksFreq+0x15c>)
 80032d8:	685b      	ldr	r3, [r3, #4]
 80032da:	f403 3380 	and.w	r3, r3, #65536	; 0x10000
 80032de:	9304      	str	r3, [sp, #16]
 80032e0:	9b04      	ldr	r3, [sp, #16]
 80032e2:	2b00      	cmp	r3, #0
 80032e4:	d106      	bne.n	80032f4 <RCC_GetClocksFreq+0x80>
 80032e6:	9a03      	ldr	r2, [sp, #12]
 80032e8:	4b3b      	ldr	r3, [pc, #236]	(80033d8 <RCC_GetClocksFreq+0x164>)
 80032ea:	fb03 f202 	mul.w	r2, r3, r2
 80032ee:	9b01      	ldr	r3, [sp, #4]
 80032f0:	601a      	str	r2, [r3, #0]
 80032f2:	e016      	b.n	8003322 <RCC_GetClocksFreq+0xae>
 80032f4:	4b36      	ldr	r3, [pc, #216]	(80033d0 <RCC_GetClocksFreq+0x15c>)
 80032f6:	685b      	ldr	r3, [r3, #4]
 80032f8:	f403 3300 	and.w	r3, r3, #131072	; 0x20000
 80032fc:	2b00      	cmp	r3, #0
 80032fe:	d006      	beq.n	800330e <RCC_GetClocksFreq+0x9a>
 8003300:	9a03      	ldr	r2, [sp, #12]
 8003302:	4b35      	ldr	r3, [pc, #212]	(80033d8 <RCC_GetClocksFreq+0x164>)
 8003304:	fb03 f202 	mul.w	r2, r3, r2
 8003308:	9b01      	ldr	r3, [sp, #4]
 800330a:	601a      	str	r2, [r3, #0]
 800330c:	e009      	b.n	8003322 <RCC_GetClocksFreq+0xae>
 800330e:	9a03      	ldr	r2, [sp, #12]
 8003310:	4b30      	ldr	r3, [pc, #192]	(80033d4 <RCC_GetClocksFreq+0x160>)
 8003312:	fb03 f202 	mul.w	r2, r3, r2
 8003316:	9b01      	ldr	r3, [sp, #4]
 8003318:	601a      	str	r2, [r3, #0]
 800331a:	e002      	b.n	8003322 <RCC_GetClocksFreq+0xae>
 800331c:	9a01      	ldr	r2, [sp, #4]
 800331e:	4b2d      	ldr	r3, [pc, #180]	(80033d4 <RCC_GetClocksFreq+0x160>)
 8003320:	6013      	str	r3, [r2, #0]
 8003322:	4b2b      	ldr	r3, [pc, #172]	(80033d0 <RCC_GetClocksFreq+0x15c>)
 8003324:	685b      	ldr	r3, [r3, #4]
 8003326:	f003 03f0 	and.w	r3, r3, #240	; 0xf0
 800332a:	9302      	str	r3, [sp, #8]
 800332c:	9b02      	ldr	r3, [sp, #8]
 800332e:	ea4f 1313 	mov.w	r3, r3, lsr #4
 8003332:	9302      	str	r3, [sp, #8]
 8003334:	9a02      	ldr	r2, [sp, #8]
 8003336:	4b29      	ldr	r3, [pc, #164]	(80033dc <RCC_GetClocksFreq+0x168>)
 8003338:	5c9b      	ldrb	r3, [r3, r2]
 800333a:	b2db      	uxtb	r3, r3
 800333c:	9305      	str	r3, [sp, #20]
 800333e:	9b01      	ldr	r3, [sp, #4]
 8003340:	681a      	ldr	r2, [r3, #0]
 8003342:	9b05      	ldr	r3, [sp, #20]
 8003344:	fa22 f203 	lsr.w	r2, r2, r3
 8003348:	9b01      	ldr	r3, [sp, #4]
 800334a:	605a      	str	r2, [r3, #4]
 800334c:	4b20      	ldr	r3, [pc, #128]	(80033d0 <RCC_GetClocksFreq+0x15c>)
 800334e:	685b      	ldr	r3, [r3, #4]
 8003350:	f403 63e0 	and.w	r3, r3, #1792	; 0x700
 8003354:	9302      	str	r3, [sp, #8]
 8003356:	9b02      	ldr	r3, [sp, #8]
 8003358:	ea4f 2313 	mov.w	r3, r3, lsr #8
 800335c:	9302      	str	r3, [sp, #8]
 800335e:	9a02      	ldr	r2, [sp, #8]
 8003360:	4b1e      	ldr	r3, [pc, #120]	(80033dc <RCC_GetClocksFreq+0x168>)
 8003362:	5c9b      	ldrb	r3, [r3, r2]
 8003364:	b2db      	uxtb	r3, r3
 8003366:	9305      	str	r3, [sp, #20]
 8003368:	9b01      	ldr	r3, [sp, #4]
 800336a:	685a      	ldr	r2, [r3, #4]
 800336c:	9b05      	ldr	r3, [sp, #20]
 800336e:	fa22 f203 	lsr.w	r2, r2, r3
 8003372:	9b01      	ldr	r3, [sp, #4]
 8003374:	609a      	str	r2, [r3, #8]
 8003376:	4b16      	ldr	r3, [pc, #88]	(80033d0 <RCC_GetClocksFreq+0x15c>)
 8003378:	685b      	ldr	r3, [r3, #4]
 800337a:	f403 5360 	and.w	r3, r3, #14336	; 0x3800
 800337e:	9302      	str	r3, [sp, #8]
 8003380:	9b02      	ldr	r3, [sp, #8]
 8003382:	ea4f 23d3 	mov.w	r3, r3, lsr #11
 8003386:	9302      	str	r3, [sp, #8]
 8003388:	9a02      	ldr	r2, [sp, #8]
 800338a:	4b14      	ldr	r3, [pc, #80]	(80033dc <RCC_GetClocksFreq+0x168>)
 800338c:	5c9b      	ldrb	r3, [r3, r2]
 800338e:	b2db      	uxtb	r3, r3
 8003390:	9305      	str	r3, [sp, #20]
 8003392:	9b01      	ldr	r3, [sp, #4]
 8003394:	685a      	ldr	r2, [r3, #4]
 8003396:	9b05      	ldr	r3, [sp, #20]
 8003398:	fa22 f203 	lsr.w	r2, r2, r3
 800339c:	9b01      	ldr	r3, [sp, #4]
 800339e:	60da      	str	r2, [r3, #12]
 80033a0:	4b0b      	ldr	r3, [pc, #44]	(80033d0 <RCC_GetClocksFreq+0x15c>)
 80033a2:	685b      	ldr	r3, [r3, #4]
 80033a4:	f403 4340 	and.w	r3, r3, #49152	; 0xc000
 80033a8:	9302      	str	r3, [sp, #8]
 80033aa:	9b02      	ldr	r3, [sp, #8]
 80033ac:	ea4f 3393 	mov.w	r3, r3, lsr #14
 80033b0:	9302      	str	r3, [sp, #8]
 80033b2:	9a02      	ldr	r2, [sp, #8]
 80033b4:	4b0a      	ldr	r3, [pc, #40]	(80033e0 <RCC_GetClocksFreq+0x16c>)
 80033b6:	5c9b      	ldrb	r3, [r3, r2]
 80033b8:	b2db      	uxtb	r3, r3
 80033ba:	9305      	str	r3, [sp, #20]
 80033bc:	9b01      	ldr	r3, [sp, #4]
 80033be:	68da      	ldr	r2, [r3, #12]
 80033c0:	9b05      	ldr	r3, [sp, #20]
 80033c2:	fbb2 f2f3 	udiv	r2, r2, r3
 80033c6:	9b01      	ldr	r3, [sp, #4]
 80033c8:	611a      	str	r2, [r3, #16]
 80033ca:	b006      	add	sp, #24
 80033cc:	4770      	bx	lr
 80033ce:	46c0      	nop			(mov r8, r8)
 80033d0:	40021000 	.word	0x40021000
 80033d4:	007a1200 	.word	0x007a1200
 80033d8:	003d0900 	.word	0x003d0900
 80033dc:	20000036 	.word	0x20000036
 80033e0:	20000046 	.word	0x20000046

080033e4 <RCC_AHBPeriphClockCmd>:
 80033e4:	b082      	sub	sp, #8
 80033e6:	9001      	str	r0, [sp, #4]
 80033e8:	9100      	str	r1, [sp, #0]
 80033ea:	9b00      	ldr	r3, [sp, #0]
 80033ec:	2b00      	cmp	r3, #0
 80033ee:	d007      	beq.n	8003400 <RCC_AHBPeriphClockCmd+0x1c>
 80033f0:	4909      	ldr	r1, [pc, #36]	(8003418 <RCC_AHBPeriphClockCmd+0x34>)
 80033f2:	4b09      	ldr	r3, [pc, #36]	(8003418 <RCC_AHBPeriphClockCmd+0x34>)
 80033f4:	695a      	ldr	r2, [r3, #20]
 80033f6:	9b01      	ldr	r3, [sp, #4]
 80033f8:	ea42 0303 	orr.w	r3, r2, r3
 80033fc:	614b      	str	r3, [r1, #20]
 80033fe:	e008      	b.n	8003412 <RCC_AHBPeriphClockCmd+0x2e>
 8003400:	4905      	ldr	r1, [pc, #20]	(8003418 <RCC_AHBPeriphClockCmd+0x34>)
 8003402:	4b05      	ldr	r3, [pc, #20]	(8003418 <RCC_AHBPeriphClockCmd+0x34>)
 8003404:	695a      	ldr	r2, [r3, #20]
 8003406:	9b01      	ldr	r3, [sp, #4]
 8003408:	ea6f 0303 	mvn.w	r3, r3
 800340c:	ea02 0303 	and.w	r3, r2, r3
 8003410:	614b      	str	r3, [r1, #20]
 8003412:	b002      	add	sp, #8
 8003414:	4770      	bx	lr
 8003416:	46c0      	nop			(mov r8, r8)
 8003418:	40021000 	.word	0x40021000

0800341c <RCC_APB2PeriphClockCmd>:
 800341c:	b082      	sub	sp, #8
 800341e:	9001      	str	r0, [sp, #4]
 8003420:	9100      	str	r1, [sp, #0]
 8003422:	9b00      	ldr	r3, [sp, #0]
 8003424:	2b00      	cmp	r3, #0
 8003426:	d007      	beq.n	8003438 <RCC_APB2PeriphClockCmd+0x1c>
 8003428:	4909      	ldr	r1, [pc, #36]	(8003450 <RCC_APB2PeriphClockCmd+0x34>)
 800342a:	4b09      	ldr	r3, [pc, #36]	(8003450 <RCC_APB2PeriphClockCmd+0x34>)
 800342c:	699a      	ldr	r2, [r3, #24]
 800342e:	9b01      	ldr	r3, [sp, #4]
 8003430:	ea42 0303 	orr.w	r3, r2, r3
 8003434:	618b      	str	r3, [r1, #24]
 8003436:	e008      	b.n	800344a <RCC_APB2PeriphClockCmd+0x2e>
 8003438:	4905      	ldr	r1, [pc, #20]	(8003450 <RCC_APB2PeriphClockCmd+0x34>)
 800343a:	4b05      	ldr	r3, [pc, #20]	(8003450 <RCC_APB2PeriphClockCmd+0x34>)
 800343c:	699a      	ldr	r2, [r3, #24]
 800343e:	9b01      	ldr	r3, [sp, #4]
 8003440:	ea6f 0303 	mvn.w	r3, r3
 8003444:	ea02 0303 	and.w	r3, r2, r3
 8003448:	618b      	str	r3, [r1, #24]
 800344a:	b002      	add	sp, #8
 800344c:	4770      	bx	lr
 800344e:	46c0      	nop			(mov r8, r8)
 8003450:	40021000 	.word	0x40021000

08003454 <RCC_APB1PeriphClockCmd>:
 8003454:	b082      	sub	sp, #8
 8003456:	9001      	str	r0, [sp, #4]
 8003458:	9100      	str	r1, [sp, #0]
 800345a:	9b00      	ldr	r3, [sp, #0]
 800345c:	2b00      	cmp	r3, #0
 800345e:	d007      	beq.n	8003470 <RCC_APB1PeriphClockCmd+0x1c>
 8003460:	4909      	ldr	r1, [pc, #36]	(8003488 <RCC_APB1PeriphClockCmd+0x34>)
 8003462:	4b09      	ldr	r3, [pc, #36]	(8003488 <RCC_APB1PeriphClockCmd+0x34>)
 8003464:	69da      	ldr	r2, [r3, #28]
 8003466:	9b01      	ldr	r3, [sp, #4]
 8003468:	ea42 0303 	orr.w	r3, r2, r3
 800346c:	61cb      	str	r3, [r1, #28]
 800346e:	e008      	b.n	8003482 <RCC_APB1PeriphClockCmd+0x2e>
 8003470:	4905      	ldr	r1, [pc, #20]	(8003488 <RCC_APB1PeriphClockCmd+0x34>)
 8003472:	4b05      	ldr	r3, [pc, #20]	(8003488 <RCC_APB1PeriphClockCmd+0x34>)
 8003474:	69da      	ldr	r2, [r3, #28]
 8003476:	9b01      	ldr	r3, [sp, #4]
 8003478:	ea6f 0303 	mvn.w	r3, r3
 800347c:	ea02 0303 	and.w	r3, r2, r3
 8003480:	61cb      	str	r3, [r1, #28]
 8003482:	b002      	add	sp, #8
 8003484:	4770      	bx	lr
 8003486:	46c0      	nop			(mov r8, r8)
 8003488:	40021000 	.word	0x40021000

0800348c <RCC_APB2PeriphResetCmd>:
 800348c:	b082      	sub	sp, #8
 800348e:	9001      	str	r0, [sp, #4]
 8003490:	9100      	str	r1, [sp, #0]
 8003492:	9b00      	ldr	r3, [sp, #0]
 8003494:	2b00      	cmp	r3, #0
 8003496:	d007      	beq.n	80034a8 <RCC_APB2PeriphResetCmd+0x1c>
 8003498:	4909      	ldr	r1, [pc, #36]	(80034c0 <RCC_APB2PeriphResetCmd+0x34>)
 800349a:	4b09      	ldr	r3, [pc, #36]	(80034c0 <RCC_APB2PeriphResetCmd+0x34>)
 800349c:	68da      	ldr	r2, [r3, #12]
 800349e:	9b01      	ldr	r3, [sp, #4]
 80034a0:	ea42 0303 	orr.w	r3, r2, r3
 80034a4:	60cb      	str	r3, [r1, #12]
 80034a6:	e008      	b.n	80034ba <RCC_APB2PeriphResetCmd+0x2e>
 80034a8:	4905      	ldr	r1, [pc, #20]	(80034c0 <RCC_APB2PeriphResetCmd+0x34>)
 80034aa:	4b05      	ldr	r3, [pc, #20]	(80034c0 <RCC_APB2PeriphResetCmd+0x34>)
 80034ac:	68da      	ldr	r2, [r3, #12]
 80034ae:	9b01      	ldr	r3, [sp, #4]
 80034b0:	ea6f 0303 	mvn.w	r3, r3
 80034b4:	ea02 0303 	and.w	r3, r2, r3
 80034b8:	60cb      	str	r3, [r1, #12]
 80034ba:	b002      	add	sp, #8
 80034bc:	4770      	bx	lr
 80034be:	46c0      	nop			(mov r8, r8)
 80034c0:	40021000 	.word	0x40021000

080034c4 <RCC_APB1PeriphResetCmd>:
 80034c4:	b082      	sub	sp, #8
 80034c6:	9001      	str	r0, [sp, #4]
 80034c8:	9100      	str	r1, [sp, #0]
 80034ca:	9b00      	ldr	r3, [sp, #0]
 80034cc:	2b00      	cmp	r3, #0
 80034ce:	d007      	beq.n	80034e0 <RCC_APB1PeriphResetCmd+0x1c>
 80034d0:	4909      	ldr	r1, [pc, #36]	(80034f8 <RCC_APB1PeriphResetCmd+0x34>)
 80034d2:	4b09      	ldr	r3, [pc, #36]	(80034f8 <RCC_APB1PeriphResetCmd+0x34>)
 80034d4:	691a      	ldr	r2, [r3, #16]
 80034d6:	9b01      	ldr	r3, [sp, #4]
 80034d8:	ea42 0303 	orr.w	r3, r2, r3
 80034dc:	610b      	str	r3, [r1, #16]
 80034de:	e008      	b.n	80034f2 <RCC_APB1PeriphResetCmd+0x2e>
 80034e0:	4905      	ldr	r1, [pc, #20]	(80034f8 <RCC_APB1PeriphResetCmd+0x34>)
 80034e2:	4b05      	ldr	r3, [pc, #20]	(80034f8 <RCC_APB1PeriphResetCmd+0x34>)
 80034e4:	691a      	ldr	r2, [r3, #16]
 80034e6:	9b01      	ldr	r3, [sp, #4]
 80034e8:	ea6f 0303 	mvn.w	r3, r3
 80034ec:	ea02 0303 	and.w	r3, r2, r3
 80034f0:	610b      	str	r3, [r1, #16]
 80034f2:	b002      	add	sp, #8
 80034f4:	4770      	bx	lr
 80034f6:	46c0      	nop			(mov r8, r8)
 80034f8:	40021000 	.word	0x40021000

080034fc <RCC_BackupResetCmd>:
 80034fc:	b081      	sub	sp, #4
 80034fe:	9000      	str	r0, [sp, #0]
 8003500:	4a02      	ldr	r2, [pc, #8]	(800350c <RCC_BackupResetCmd+0x10>)
 8003502:	9b00      	ldr	r3, [sp, #0]
 8003504:	6013      	str	r3, [r2, #0]
 8003506:	b001      	add	sp, #4
 8003508:	4770      	bx	lr
 800350a:	46c0      	nop			(mov r8, r8)
 800350c:	42420440 	.word	0x42420440

08003510 <RCC_ClockSecuritySystemCmd>:
 8003510:	b081      	sub	sp, #4
 8003512:	9000      	str	r0, [sp, #0]
 8003514:	4a02      	ldr	r2, [pc, #8]	(8003520 <RCC_ClockSecuritySystemCmd+0x10>)
 8003516:	9b00      	ldr	r3, [sp, #0]
 8003518:	6013      	str	r3, [r2, #0]
 800351a:	b001      	add	sp, #4
 800351c:	4770      	bx	lr
 800351e:	46c0      	nop			(mov r8, r8)
 8003520:	4242004c 	.word	0x4242004c

08003524 <RCC_MCOConfig>:
 8003524:	b081      	sub	sp, #4
 8003526:	4603      	mov	r3, r0
 8003528:	f88d 3000 	strb.w	r3, [sp]
 800352c:	4a02      	ldr	r2, [pc, #8]	(8003538 <RCC_MCOConfig+0x14>)
 800352e:	f89d 3000 	ldrb.w	r3, [sp]
 8003532:	7013      	strb	r3, [r2, #0]
 8003534:	b001      	add	sp, #4
 8003536:	4770      	bx	lr
 8003538:	40021007 	.word	0x40021007

0800353c <RCC_GetFlagStatus>:
 800353c:	b084      	sub	sp, #16
 800353e:	4603      	mov	r3, r0
 8003540:	f88d 3000 	strb.w	r3, [sp]
 8003544:	f04f 0300 	mov.w	r3, #0	; 0x0
 8003548:	9301      	str	r3, [sp, #4]
 800354a:	f04f 0300 	mov.w	r3, #0	; 0x0
 800354e:	9302      	str	r3, [sp, #8]
 8003550:	f04f 0300 	mov.w	r3, #0	; 0x0
 8003554:	9303      	str	r3, [sp, #12]
 8003556:	f89d 3000 	ldrb.w	r3, [sp]
 800355a:	ea4f 1353 	mov.w	r3, r3, lsr #5
 800355e:	b2db      	uxtb	r3, r3
 8003560:	9301      	str	r3, [sp, #4]
 8003562:	9b01      	ldr	r3, [sp, #4]
 8003564:	2b01      	cmp	r3, #1
 8003566:	d103      	bne.n	8003570 <RCC_GetFlagStatus+0x34>
 8003568:	4b13      	ldr	r3, [pc, #76]	(80035b8 <RCC_GetFlagStatus+0x7c>)
 800356a:	681b      	ldr	r3, [r3, #0]
 800356c:	9302      	str	r3, [sp, #8]
 800356e:	e009      	b.n	8003584 <RCC_GetFlagStatus+0x48>
 8003570:	9b01      	ldr	r3, [sp, #4]
 8003572:	2b02      	cmp	r3, #2
 8003574:	d103      	bne.n	800357e <RCC_GetFlagStatus+0x42>
 8003576:	4b10      	ldr	r3, [pc, #64]	(80035b8 <RCC_GetFlagStatus+0x7c>)
 8003578:	6a1b      	ldr	r3, [r3, #32]
 800357a:	9302      	str	r3, [sp, #8]
 800357c:	e002      	b.n	8003584 <RCC_GetFlagStatus+0x48>
 800357e:	4b0e      	ldr	r3, [pc, #56]	(80035b8 <RCC_GetFlagStatus+0x7c>)
 8003580:	6a5b      	ldr	r3, [r3, #36]
 8003582:	9302      	str	r3, [sp, #8]
 8003584:	f89d 3000 	ldrb.w	r3, [sp]
 8003588:	f003 031f 	and.w	r3, r3, #31	; 0x1f
 800358c:	9301      	str	r3, [sp, #4]
 800358e:	9a01      	ldr	r2, [sp, #4]
 8003590:	9b02      	ldr	r3, [sp, #8]
 8003592:	fa23 f302 	lsr.w	r3, r3, r2
 8003596:	f003 0301 	and.w	r3, r3, #1	; 0x1
 800359a:	b2db      	uxtb	r3, r3
 800359c:	2b00      	cmp	r3, #0
 800359e:	d003      	beq.n	80035a8 <RCC_GetFlagStatus+0x6c>
 80035a0:	f04f 0301 	mov.w	r3, #1	; 0x1
 80035a4:	9303      	str	r3, [sp, #12]
 80035a6:	e002      	b.n	80035ae <RCC_GetFlagStatus+0x72>
 80035a8:	f04f 0300 	mov.w	r3, #0	; 0x0
 80035ac:	9303      	str	r3, [sp, #12]
 80035ae:	9b03      	ldr	r3, [sp, #12]
 80035b0:	4618      	mov	r0, r3
 80035b2:	b004      	add	sp, #16
 80035b4:	4770      	bx	lr
 80035b6:	46c0      	nop			(mov r8, r8)
 80035b8:	40021000 	.word	0x40021000

080035bc <RCC_ClearFlag>:
 80035bc:	4a03      	ldr	r2, [pc, #12]	(80035cc <RCC_ClearFlag+0x10>)
 80035be:	4b03      	ldr	r3, [pc, #12]	(80035cc <RCC_ClearFlag+0x10>)
 80035c0:	6a5b      	ldr	r3, [r3, #36]
 80035c2:	f043 7380 	orr.w	r3, r3, #16777216	; 0x1000000
 80035c6:	6253      	str	r3, [r2, #36]
 80035c8:	4770      	bx	lr
 80035ca:	46c0      	nop			(mov r8, r8)
 80035cc:	40021000 	.word	0x40021000

080035d0 <RCC_GetITStatus>:
 80035d0:	b082      	sub	sp, #8
 80035d2:	4603      	mov	r3, r0
 80035d4:	f88d 3000 	strb.w	r3, [sp]
 80035d8:	f04f 0300 	mov.w	r3, #0	; 0x0
 80035dc:	9301      	str	r3, [sp, #4]
 80035de:	4b09      	ldr	r3, [pc, #36]	(8003604 <RCC_GetITStatus+0x34>)
 80035e0:	689a      	ldr	r2, [r3, #8]
 80035e2:	f89d 3000 	ldrb.w	r3, [sp]
 80035e6:	ea02 0303 	and.w	r3, r2, r3
 80035ea:	2b00      	cmp	r3, #0
 80035ec:	d003      	beq.n	80035f6 <RCC_GetITStatus+0x26>
 80035ee:	f04f 0301 	mov.w	r3, #1	; 0x1
 80035f2:	9301      	str	r3, [sp, #4]
 80035f4:	e002      	b.n	80035fc <RCC_GetITStatus+0x2c>
 80035f6:	f04f 0300 	mov.w	r3, #0	; 0x0
 80035fa:	9301      	str	r3, [sp, #4]
 80035fc:	9b01      	ldr	r3, [sp, #4]
 80035fe:	4618      	mov	r0, r3
 8003600:	b002      	add	sp, #8
 8003602:	4770      	bx	lr
 8003604:	40021000 	.word	0x40021000

08003608 <RCC_ClearITPendingBit>:
 8003608:	b081      	sub	sp, #4
 800360a:	4603      	mov	r3, r0
 800360c:	f88d 3000 	strb.w	r3, [sp]
 8003610:	4a02      	ldr	r2, [pc, #8]	(800361c <RCC_ClearITPendingBit+0x14>)
 8003612:	f89d 3000 	ldrb.w	r3, [sp]
 8003616:	7013      	strb	r3, [r2, #0]
 8003618:	b001      	add	sp, #4
 800361a:	4770      	bx	lr
 800361c:	4002100a 	.word	0x4002100a

08003620 <BKP_DeInit>:
 8003620:	b500      	push	{lr}
 8003622:	f04f 0001 	mov.w	r0, #1	; 0x1
 8003626:	f7ff ff69 	bl	80034fc <RCC_BackupResetCmd>
 800362a:	f04f 0000 	mov.w	r0, #0	; 0x0
 800362e:	f7ff ff65 	bl	80034fc <RCC_BackupResetCmd>
 8003632:	bd00      	pop	{pc}

08003634 <BKP_TamperPinLevelConfig>:
 8003634:	b081      	sub	sp, #4
 8003636:	4603      	mov	r3, r0
 8003638:	f8ad 3000 	strh.w	r3, [sp]
 800363c:	4a02      	ldr	r2, [pc, #8]	(8003648 <BKP_TamperPinLevelConfig+0x14>)
 800363e:	f8bd 3000 	ldrh.w	r3, [sp]
 8003642:	6013      	str	r3, [r2, #0]
 8003644:	b001      	add	sp, #4
 8003646:	4770      	bx	lr
 8003648:	420d8604 	.word	0x420d8604

0800364c <BKP_TamperPinCmd>:
 800364c:	b081      	sub	sp, #4
 800364e:	9000      	str	r0, [sp, #0]
 8003650:	4a02      	ldr	r2, [pc, #8]	(800365c <BKP_TamperPinCmd+0x10>)
 8003652:	9b00      	ldr	r3, [sp, #0]
 8003654:	6013      	str	r3, [r2, #0]
 8003656:	b001      	add	sp, #4
 8003658:	4770      	bx	lr
 800365a:	46c0      	nop			(mov r8, r8)
 800365c:	420d8600 	.word	0x420d8600

08003660 <BKP_ITConfig>:
 8003660:	b081      	sub	sp, #4
 8003662:	9000      	str	r0, [sp, #0]
 8003664:	4a02      	ldr	r2, [pc, #8]	(8003670 <BKP_ITConfig+0x10>)
 8003666:	9b00      	ldr	r3, [sp, #0]
 8003668:	6013      	str	r3, [r2, #0]
 800366a:	b001      	add	sp, #4
 800366c:	4770      	bx	lr
 800366e:	46c0      	nop			(mov r8, r8)
 8003670:	420d8688 	.word	0x420d8688

08003674 <BKP_RTCOutputConfig>:
 8003674:	b082      	sub	sp, #8
 8003676:	4603      	mov	r3, r0
 8003678:	f8ad 3000 	strh.w	r3, [sp]
 800367c:	f04f 0300 	mov.w	r3, #0	; 0x0
 8003680:	f8ad 3006 	strh.w	r3, [sp, #6]
 8003684:	4b0b      	ldr	r3, [pc, #44]	(80036b4 <BKP_RTCOutputConfig+0x40>)
 8003686:	8d9b      	ldrh	r3, [r3, #44]
 8003688:	f8ad 3006 	strh.w	r3, [sp, #6]
 800368c:	f8bd 3006 	ldrh.w	r3, [sp, #6]
 8003690:	f423 7360 	bic.w	r3, r3, #896	; 0x380
 8003694:	f8ad 3006 	strh.w	r3, [sp, #6]
 8003698:	f8bd 2006 	ldrh.w	r2, [sp, #6]
 800369c:	f8bd 3000 	ldrh.w	r3, [sp]
 80036a0:	ea42 0303 	orr.w	r3, r2, r3
 80036a4:	f8ad 3006 	strh.w	r3, [sp, #6]
 80036a8:	4a02      	ldr	r2, [pc, #8]	(80036b4 <BKP_RTCOutputConfig+0x40>)
 80036aa:	f8bd 3006 	ldrh.w	r3, [sp, #6]
 80036ae:	8593      	strh	r3, [r2, #44]
 80036b0:	b002      	add	sp, #8
 80036b2:	4770      	bx	lr
 80036b4:	40006c00 	.word	0x40006c00

080036b8 <BKP_SetRTCCalibrationValue>:
 80036b8:	b082      	sub	sp, #8
 80036ba:	4603      	mov	r3, r0
 80036bc:	f88d 3000 	strb.w	r3, [sp]
 80036c0:	f04f 0300 	mov.w	r3, #0	; 0x0
 80036c4:	f8ad 3006 	strh.w	r3, [sp, #6]
 80036c8:	4b0b      	ldr	r3, [pc, #44]	(80036f8 <BKP_SetRTCCalibrationValue+0x40>)
 80036ca:	8d9b      	ldrh	r3, [r3, #44]
 80036cc:	f8ad 3006 	strh.w	r3, [sp, #6]
 80036d0:	f8bd 3006 	ldrh.w	r3, [sp, #6]
 80036d4:	f023 037f 	bic.w	r3, r3, #127	; 0x7f
 80036d8:	f8ad 3006 	strh.w	r3, [sp, #6]
 80036dc:	f89d 2000 	ldrb.w	r2, [sp]
 80036e0:	f8bd 3006 	ldrh.w	r3, [sp, #6]
 80036e4:	ea42 0303 	orr.w	r3, r2, r3
 80036e8:	f8ad 3006 	strh.w	r3, [sp, #6]
 80036ec:	4a02      	ldr	r2, [pc, #8]	(80036f8 <BKP_SetRTCCalibrationValue+0x40>)
 80036ee:	f8bd 3006 	ldrh.w	r3, [sp, #6]
 80036f2:	8593      	strh	r3, [r2, #44]
 80036f4:	b002      	add	sp, #8
 80036f6:	4770      	bx	lr
 80036f8:	40006c00 	.word	0x40006c00

080036fc <BKP_WriteBackupRegister>:
 80036fc:	b082      	sub	sp, #8
 80036fe:	4603      	mov	r3, r0
 8003700:	460a      	mov	r2, r1
 8003702:	f8ad 3004 	strh.w	r3, [sp, #4]
 8003706:	4613      	mov	r3, r2
 8003708:	f8ad 3000 	strh.w	r3, [sp]
 800370c:	f8bd 3004 	ldrh.w	r3, [sp, #4]
 8003710:	f103 4380 	add.w	r3, r3, #1073741824	; 0x40000000
 8003714:	f503 43d8 	add.w	r3, r3, #27648	; 0x6c00
 8003718:	461a      	mov	r2, r3
 800371a:	f8bd 3000 	ldrh.w	r3, [sp]
 800371e:	8013      	strh	r3, [r2, #0]
 8003720:	b002      	add	sp, #8
 8003722:	4770      	bx	lr

08003724 <BKP_ReadBackupRegister>:
 8003724:	b081      	sub	sp, #4
 8003726:	4603      	mov	r3, r0
 8003728:	f8ad 3000 	strh.w	r3, [sp]
 800372c:	f8bd 3000 	ldrh.w	r3, [sp]
 8003730:	f103 4380 	add.w	r3, r3, #1073741824	; 0x40000000
 8003734:	f503 43d8 	add.w	r3, r3, #27648	; 0x6c00
 8003738:	881b      	ldrh	r3, [r3, #0]
 800373a:	b29b      	uxth	r3, r3
 800373c:	4618      	mov	r0, r3
 800373e:	b001      	add	sp, #4
 8003740:	4770      	bx	lr
 8003742:	46c0      	nop			(mov r8, r8)

08003744 <BKP_GetFlagStatus>:
 8003744:	4b01      	ldr	r3, [pc, #4]	(800374c <BKP_GetFlagStatus+0x8>)
 8003746:	681b      	ldr	r3, [r3, #0]
 8003748:	4618      	mov	r0, r3
 800374a:	4770      	bx	lr
 800374c:	420d86a0 	.word	0x420d86a0

08003750 <BKP_ClearFlag>:
 8003750:	4a04      	ldr	r2, [pc, #16]	(8003764 <BKP_ClearFlag+0x14>)
 8003752:	4b04      	ldr	r3, [pc, #16]	(8003764 <BKP_ClearFlag+0x14>)
 8003754:	8e9b      	ldrh	r3, [r3, #52]
 8003756:	b29b      	uxth	r3, r3
 8003758:	f043 0301 	orr.w	r3, r3, #1	; 0x1
 800375c:	b29b      	uxth	r3, r3
 800375e:	8693      	strh	r3, [r2, #52]
 8003760:	4770      	bx	lr
 8003762:	46c0      	nop			(mov r8, r8)
 8003764:	40006c00 	.word	0x40006c00

08003768 <BKP_GetITStatus>:
 8003768:	4b01      	ldr	r3, [pc, #4]	(8003770 <BKP_GetITStatus+0x8>)
 800376a:	681b      	ldr	r3, [r3, #0]
 800376c:	4618      	mov	r0, r3
 800376e:	4770      	bx	lr
 8003770:	420d86a4 	.word	0x420d86a4

08003774 <BKP_ClearITPendingBit>:
 8003774:	4a04      	ldr	r2, [pc, #16]	(8003788 <BKP_ClearITPendingBit+0x14>)
 8003776:	4b04      	ldr	r3, [pc, #16]	(8003788 <BKP_ClearITPendingBit+0x14>)
 8003778:	8e9b      	ldrh	r3, [r3, #52]
 800377a:	b29b      	uxth	r3, r3
 800377c:	f043 0302 	orr.w	r3, r3, #2	; 0x2
 8003780:	b29b      	uxth	r3, r3
 8003782:	8693      	strh	r3, [r2, #52]
 8003784:	4770      	bx	lr
 8003786:	46c0      	nop			(mov r8, r8)
 8003788:	40006c00 	.word	0x40006c00

0800378c <PWR_DeInit>:
 800378c:	b500      	push	{lr}
 800378e:	f04f 5080 	mov.w	r0, #268435456	; 0x10000000
 8003792:	f04f 0101 	mov.w	r1, #1	; 0x1
 8003796:	f7ff fe95 	bl	80034c4 <RCC_APB1PeriphResetCmd>
 800379a:	f04f 5080 	mov.w	r0, #268435456	; 0x10000000
 800379e:	f04f 0100 	mov.w	r1, #0	; 0x0
 80037a2:	f7ff fe8f 	bl	80034c4 <RCC_APB1PeriphResetCmd>
 80037a6:	bd00      	pop	{pc}

080037a8 <PWR_BackupAccessCmd>:
 80037a8:	b081      	sub	sp, #4
 80037aa:	9000      	str	r0, [sp, #0]
 80037ac:	4a02      	ldr	r2, [pc, #8]	(80037b8 <PWR_BackupAccessCmd+0x10>)
 80037ae:	9b00      	ldr	r3, [sp, #0]
 80037b0:	6013      	str	r3, [r2, #0]
 80037b2:	b001      	add	sp, #4
 80037b4:	4770      	bx	lr
 80037b6:	46c0      	nop			(mov r8, r8)
 80037b8:	420e0020 	.word	0x420e0020

080037bc <PWR_PVDCmd>:
 80037bc:	b081      	sub	sp, #4
 80037be:	9000      	str	r0, [sp, #0]
 80037c0:	4a02      	ldr	r2, [pc, #8]	(80037cc <PWR_PVDCmd+0x10>)
 80037c2:	9b00      	ldr	r3, [sp, #0]
 80037c4:	6013      	str	r3, [r2, #0]
 80037c6:	b001      	add	sp, #4
 80037c8:	4770      	bx	lr
 80037ca:	46c0      	nop			(mov r8, r8)
 80037cc:	420e0010 	.word	0x420e0010

080037d0 <PWR_PVDLevelConfig>:
 80037d0:	b082      	sub	sp, #8
 80037d2:	9000      	str	r0, [sp, #0]
 80037d4:	f04f 0300 	mov.w	r3, #0	; 0x0
 80037d8:	9301      	str	r3, [sp, #4]
 80037da:	4b08      	ldr	r3, [pc, #32]	(80037fc <PWR_PVDLevelConfig+0x2c>)
 80037dc:	681b      	ldr	r3, [r3, #0]
 80037de:	9301      	str	r3, [sp, #4]
 80037e0:	9b01      	ldr	r3, [sp, #4]
 80037e2:	f023 03e0 	bic.w	r3, r3, #224	; 0xe0
 80037e6:	9301      	str	r3, [sp, #4]
 80037e8:	9a01      	ldr	r2, [sp, #4]
 80037ea:	9b00      	ldr	r3, [sp, #0]
 80037ec:	ea42 0303 	orr.w	r3, r2, r3
 80037f0:	9301      	str	r3, [sp, #4]
 80037f2:	4a02      	ldr	r2, [pc, #8]	(80037fc <PWR_PVDLevelConfig+0x2c>)
 80037f4:	9b01      	ldr	r3, [sp, #4]
 80037f6:	6013      	str	r3, [r2, #0]
 80037f8:	b002      	add	sp, #8
 80037fa:	4770      	bx	lr
 80037fc:	40007000 	.word	0x40007000

08003800 <PWR_WakeUpPinCmd>:
 8003800:	b081      	sub	sp, #4
 8003802:	9000      	str	r0, [sp, #0]
 8003804:	4a02      	ldr	r2, [pc, #8]	(8003810 <PWR_WakeUpPinCmd+0x10>)
 8003806:	9b00      	ldr	r3, [sp, #0]
 8003808:	6013      	str	r3, [r2, #0]
 800380a:	b001      	add	sp, #4
 800380c:	4770      	bx	lr
 800380e:	46c0      	nop			(mov r8, r8)
 8003810:	420e00a0 	.word	0x420e00a0

08003814 <PWR_EnterSTOPMode>:
 8003814:	b500      	push	{lr}
 8003816:	b083      	sub	sp, #12
 8003818:	9001      	str	r0, [sp, #4]
 800381a:	460b      	mov	r3, r1
 800381c:	f88d 3000 	strb.w	r3, [sp]
 8003820:	f04f 0300 	mov.w	r3, #0	; 0x0
 8003824:	9302      	str	r3, [sp, #8]
 8003826:	4b10      	ldr	r3, [pc, #64]	(8003868 <PWR_EnterSTOPMode+0x54>)
 8003828:	681b      	ldr	r3, [r3, #0]
 800382a:	9302      	str	r3, [sp, #8]
 800382c:	9b02      	ldr	r3, [sp, #8]
 800382e:	f023 0303 	bic.w	r3, r3, #3	; 0x3
 8003832:	9302      	str	r3, [sp, #8]
 8003834:	9a02      	ldr	r2, [sp, #8]
 8003836:	9b01      	ldr	r3, [sp, #4]
 8003838:	ea42 0303 	orr.w	r3, r2, r3
 800383c:	9302      	str	r3, [sp, #8]
 800383e:	4a0a      	ldr	r2, [pc, #40]	(8003868 <PWR_EnterSTOPMode+0x54>)
 8003840:	9b02      	ldr	r3, [sp, #8]
 8003842:	6013      	str	r3, [r2, #0]
 8003844:	4a09      	ldr	r2, [pc, #36]	(800386c <PWR_EnterSTOPMode+0x58>)
 8003846:	4b09      	ldr	r3, [pc, #36]	(800386c <PWR_EnterSTOPMode+0x58>)
 8003848:	681b      	ldr	r3, [r3, #0]
 800384a:	f043 0304 	orr.w	r3, r3, #4	; 0x4
 800384e:	6013      	str	r3, [r2, #0]
 8003850:	f89d 3000 	ldrb.w	r3, [sp]
 8003854:	2b01      	cmp	r3, #1
 8003856:	d102      	bne.n	800385e <PWR_EnterSTOPMode+0x4a>
 8003858:	f000 f80a 	bl	8003870 <__WFI>
 800385c:	e001      	b.n	8003862 <PWR_EnterSTOPMode+0x4e>
 800385e:	f000 f809 	bl	8003874 <__WFE>
 8003862:	b003      	add	sp, #12
 8003864:	bd00      	pop	{pc}
 8003866:	46c0      	nop			(mov r8, r8)
 8003868:	40007000 	.word	0x40007000
 800386c:	e000ed10 	.word	0xe000ed10

08003870 <__WFI>:
 8003870:	bf30      	wfi
 8003872:	4770      	bx	lr

08003874 <__WFE>:
 8003874:	bf20      	wfe
 8003876:	4770      	bx	lr

08003878 <PWR_EnterSTANDBYMode>:
 8003878:	b500      	push	{lr}
 800387a:	4a0a      	ldr	r2, [pc, #40]	(80038a4 <PWR_EnterSTANDBYMode+0x2c>)
 800387c:	4b09      	ldr	r3, [pc, #36]	(80038a4 <PWR_EnterSTANDBYMode+0x2c>)
 800387e:	681b      	ldr	r3, [r3, #0]
 8003880:	f043 0304 	orr.w	r3, r3, #4	; 0x4
 8003884:	6013      	str	r3, [r2, #0]
 8003886:	4a07      	ldr	r2, [pc, #28]	(80038a4 <PWR_EnterSTANDBYMode+0x2c>)
 8003888:	4b06      	ldr	r3, [pc, #24]	(80038a4 <PWR_EnterSTANDBYMode+0x2c>)
 800388a:	681b      	ldr	r3, [r3, #0]
 800388c:	f043 0302 	orr.w	r3, r3, #2	; 0x2
 8003890:	6013      	str	r3, [r2, #0]
 8003892:	4a05      	ldr	r2, [pc, #20]	(80038a8 <PWR_EnterSTANDBYMode+0x30>)
 8003894:	4b04      	ldr	r3, [pc, #16]	(80038a8 <PWR_EnterSTANDBYMode+0x30>)
 8003896:	681b      	ldr	r3, [r3, #0]
 8003898:	f043 0304 	orr.w	r3, r3, #4	; 0x4
 800389c:	6013      	str	r3, [r2, #0]
 800389e:	f7ff ffe7 	bl	8003870 <__WFI>
 80038a2:	bd00      	pop	{pc}
 80038a4:	40007000 	.word	0x40007000
 80038a8:	e000ed10 	.word	0xe000ed10

080038ac <PWR_GetFlagStatus>:
 80038ac:	b082      	sub	sp, #8
 80038ae:	9000      	str	r0, [sp, #0]
 80038b0:	f04f 0300 	mov.w	r3, #0	; 0x0
 80038b4:	9301      	str	r3, [sp, #4]
 80038b6:	4b09      	ldr	r3, [pc, #36]	(80038dc <PWR_GetFlagStatus+0x30>)
 80038b8:	685a      	ldr	r2, [r3, #4]
 80038ba:	9b00      	ldr	r3, [sp, #0]
 80038bc:	ea02 0303 	and.w	r3, r2, r3
 80038c0:	2b00      	cmp	r3, #0
 80038c2:	d003      	beq.n	80038cc <PWR_GetFlagStatus+0x20>
 80038c4:	f04f 0301 	mov.w	r3, #1	; 0x1
 80038c8:	9301      	str	r3, [sp, #4]
 80038ca:	e002      	b.n	80038d2 <PWR_GetFlagStatus+0x26>
 80038cc:	f04f 0300 	mov.w	r3, #0	; 0x0
 80038d0:	9301      	str	r3, [sp, #4]
 80038d2:	9b01      	ldr	r3, [sp, #4]
 80038d4:	4618      	mov	r0, r3
 80038d6:	b002      	add	sp, #8
 80038d8:	4770      	bx	lr
 80038da:	46c0      	nop			(mov r8, r8)
 80038dc:	40007000 	.word	0x40007000

080038e0 <PWR_ClearFlag>:
 80038e0:	b081      	sub	sp, #4
 80038e2:	9000      	str	r0, [sp, #0]
 80038e4:	4905      	ldr	r1, [pc, #20]	(80038fc <PWR_ClearFlag+0x1c>)
 80038e6:	4b05      	ldr	r3, [pc, #20]	(80038fc <PWR_ClearFlag+0x1c>)
 80038e8:	681a      	ldr	r2, [r3, #0]
 80038ea:	9b00      	ldr	r3, [sp, #0]
 80038ec:	ea4f 0383 	mov.w	r3, r3, lsl #2
 80038f0:	ea42 0303 	orr.w	r3, r2, r3
 80038f4:	600b      	str	r3, [r1, #0]
 80038f6:	b001      	add	sp, #4
 80038f8:	4770      	bx	lr
 80038fa:	46c0      	nop			(mov r8, r8)
 80038fc:	40007000 	.word	0x40007000

08003900 <SPI_I2S_DeInit>:
 8003900:	b500      	push	{lr}
 8003902:	b082      	sub	sp, #8
 8003904:	9001      	str	r0, [sp, #4]
 8003906:	ab01      	add	r3, sp, #4
 8003908:	681b      	ldr	r3, [r3, #0]
 800390a:	9300      	str	r3, [sp, #0]
 800390c:	4b1a      	ldr	r3, [pc, #104]	(8003978 <SPI_I2S_DeInit+0x78>)
 800390e:	9a00      	ldr	r2, [sp, #0]
 8003910:	429a      	cmp	r2, r3
 8003912:	d022      	beq.n	800395a <SPI_I2S_DeInit+0x5a>
 8003914:	4b19      	ldr	r3, [pc, #100]	(800397c <SPI_I2S_DeInit+0x7c>)
 8003916:	9a00      	ldr	r2, [sp, #0]
 8003918:	429a      	cmp	r2, r3
 800391a:	d004      	beq.n	8003926 <SPI_I2S_DeInit+0x26>
 800391c:	4b18      	ldr	r3, [pc, #96]	(8003980 <SPI_I2S_DeInit+0x80>)
 800391e:	9a00      	ldr	r2, [sp, #0]
 8003920:	429a      	cmp	r2, r3
 8003922:	d00d      	beq.n	8003940 <SPI_I2S_DeInit+0x40>
 8003924:	e025      	b.n	8003972 <SPI_I2S_DeInit+0x72>
 8003926:	f44f 5080 	mov.w	r0, #4096	; 0x1000
 800392a:	f04f 0101 	mov.w	r1, #1	; 0x1
 800392e:	f7ff fdad 	bl	800348c <RCC_APB2PeriphResetCmd>
 8003932:	f44f 5080 	mov.w	r0, #4096	; 0x1000
 8003936:	f04f 0100 	mov.w	r1, #0	; 0x0
 800393a:	f7ff fda7 	bl	800348c <RCC_APB2PeriphResetCmd>
 800393e:	e018      	b.n	8003972 <SPI_I2S_DeInit+0x72>
 8003940:	f44f 4080 	mov.w	r0, #16384	; 0x4000
 8003944:	f04f 0101 	mov.w	r1, #1	; 0x1
 8003948:	f7ff fdbc 	bl	80034c4 <RCC_APB1PeriphResetCmd>
 800394c:	f44f 4080 	mov.w	r0, #16384	; 0x4000
 8003950:	f04f 0100 	mov.w	r1, #0	; 0x0
 8003954:	f7ff fdb6 	bl	80034c4 <RCC_APB1PeriphResetCmd>
 8003958:	e00b      	b.n	8003972 <SPI_I2S_DeInit+0x72>
 800395a:	f44f 4000 	mov.w	r0, #32768	; 0x8000
 800395e:	f04f 0101 	mov.w	r1, #1	; 0x1
 8003962:	f7ff fdaf 	bl	80034c4 <RCC_APB1PeriphResetCmd>
 8003966:	f44f 4000 	mov.w	r0, #32768	; 0x8000
 800396a:	f04f 0100 	mov.w	r1, #0	; 0x0
 800396e:	f7ff fda9 	bl	80034c4 <RCC_APB1PeriphResetCmd>
 8003972:	b002      	add	sp, #8
 8003974:	bd00      	pop	{pc}
 8003976:	46c0      	nop			(mov r8, r8)
 8003978:	40003c00 	.word	0x40003c00
 800397c:	40013000 	.word	0x40013000
 8003980:	40003800 	.word	0x40003800

08003984 <SPI_Init>:
 8003984:	b084      	sub	sp, #16
 8003986:	9002      	str	r0, [sp, #8]
 8003988:	9101      	str	r1, [sp, #4]
 800398a:	f04f 0300 	mov.w	r3, #0	; 0x0
 800398e:	f8ad 300e 	strh.w	r3, [sp, #14]
 8003992:	9b02      	ldr	r3, [sp, #8]
 8003994:	881b      	ldrh	r3, [r3, #0]
 8003996:	f8ad 300e 	strh.w	r3, [sp, #14]
 800399a:	f8bd 300e 	ldrh.w	r3, [sp, #14]
 800399e:	f403 5341 	and.w	r3, r3, #12352	; 0x3040
 80039a2:	f8ad 300e 	strh.w	r3, [sp, #14]
 80039a6:	9b01      	ldr	r3, [sp, #4]
 80039a8:	881a      	ldrh	r2, [r3, #0]
 80039aa:	9b01      	ldr	r3, [sp, #4]
 80039ac:	885b      	ldrh	r3, [r3, #2]
 80039ae:	ea42 0303 	orr.w	r3, r2, r3
 80039b2:	b29a      	uxth	r2, r3
 80039b4:	9b01      	ldr	r3, [sp, #4]
 80039b6:	889b      	ldrh	r3, [r3, #4]
 80039b8:	ea42 0303 	orr.w	r3, r2, r3
 80039bc:	b29a      	uxth	r2, r3
 80039be:	9b01      	ldr	r3, [sp, #4]
 80039c0:	88db      	ldrh	r3, [r3, #6]
 80039c2:	ea42 0303 	orr.w	r3, r2, r3
 80039c6:	b29a      	uxth	r2, r3
 80039c8:	9b01      	ldr	r3, [sp, #4]
 80039ca:	891b      	ldrh	r3, [r3, #8]
 80039cc:	ea42 0303 	orr.w	r3, r2, r3
 80039d0:	b29a      	uxth	r2, r3
 80039d2:	9b01      	ldr	r3, [sp, #4]
 80039d4:	895b      	ldrh	r3, [r3, #10]
 80039d6:	ea42 0303 	orr.w	r3, r2, r3
 80039da:	b29a      	uxth	r2, r3
 80039dc:	9b01      	ldr	r3, [sp, #4]
 80039de:	899b      	ldrh	r3, [r3, #12]
 80039e0:	ea42 0303 	orr.w	r3, r2, r3
 80039e4:	b29a      	uxth	r2, r3
 80039e6:	9b01      	ldr	r3, [sp, #4]
 80039e8:	89db      	ldrh	r3, [r3, #14]
 80039ea:	ea42 0303 	orr.w	r3, r2, r3
 80039ee:	b29a      	uxth	r2, r3
 80039f0:	f8bd 300e 	ldrh.w	r3, [sp, #14]
 80039f4:	ea42 0303 	orr.w	r3, r2, r3
 80039f8:	f8ad 300e 	strh.w	r3, [sp, #14]
 80039fc:	9a02      	ldr	r2, [sp, #8]
 80039fe:	f8bd 300e 	ldrh.w	r3, [sp, #14]
 8003a02:	8013      	strh	r3, [r2, #0]
 8003a04:	9b02      	ldr	r3, [sp, #8]
 8003a06:	8b9b      	ldrh	r3, [r3, #28]
 8003a08:	b29b      	uxth	r3, r3
 8003a0a:	9300      	str	r3, [sp, #0]
 8003a0c:	f24f 73ff 	movw	r3, #63487	; 0xf7ff
 8003a10:	9900      	ldr	r1, [sp, #0]
 8003a12:	ea01 0303 	and.w	r3, r1, r3
 8003a16:	9300      	str	r3, [sp, #0]
 8003a18:	9a02      	ldr	r2, [sp, #8]
 8003a1a:	9900      	ldr	r1, [sp, #0]
 8003a1c:	460b      	mov	r3, r1
 8003a1e:	8393      	strh	r3, [r2, #28]
 8003a20:	9b01      	ldr	r3, [sp, #4]
 8003a22:	8a1b      	ldrh	r3, [r3, #16]
 8003a24:	9a02      	ldr	r2, [sp, #8]
 8003a26:	8213      	strh	r3, [r2, #16]
 8003a28:	b004      	add	sp, #16
 8003a2a:	4770      	bx	lr

08003a2c <I2S_Init>:
 8003a2c:	b500      	push	{lr}
 8003a2e:	b08b      	sub	sp, #44
 8003a30:	9002      	str	r0, [sp, #8]
 8003a32:	9101      	str	r1, [sp, #4]
 8003a34:	f04f 0300 	mov.w	r3, #0	; 0x0
 8003a38:	f8ad 3020 	strh.w	r3, [sp, #32]
 8003a3c:	f04f 0302 	mov.w	r3, #2	; 0x2
 8003a40:	f8ad 3022 	strh.w	r3, [sp, #34]
 8003a44:	f04f 0300 	mov.w	r3, #0	; 0x0
 8003a48:	f8ad 3024 	strh.w	r3, [sp, #36]
 8003a4c:	f04f 0301 	mov.w	r3, #1	; 0x1
 8003a50:	f8ad 3026 	strh.w	r3, [sp, #38]
 8003a54:	f04f 0300 	mov.w	r3, #0	; 0x0
 8003a58:	930a      	str	r3, [sp, #40]
 8003a5a:	9b02      	ldr	r3, [sp, #8]
 8003a5c:	8b9b      	ldrh	r3, [r3, #28]
 8003a5e:	b29b      	uxth	r3, r3
 8003a60:	9300      	str	r3, [sp, #0]
 8003a62:	f24f 0340 	movw	r3, #61504	; 0xf040
 8003a66:	9900      	ldr	r1, [sp, #0]
 8003a68:	ea01 0303 	and.w	r3, r1, r3
 8003a6c:	9300      	str	r3, [sp, #0]
 8003a6e:	9a02      	ldr	r2, [sp, #8]
 8003a70:	9900      	ldr	r1, [sp, #0]
 8003a72:	460b      	mov	r3, r1
 8003a74:	8393      	strh	r3, [r2, #28]
 8003a76:	9a02      	ldr	r2, [sp, #8]
 8003a78:	f04f 0302 	mov.w	r3, #2	; 0x2
 8003a7c:	8413      	strh	r3, [r2, #32]
 8003a7e:	9b02      	ldr	r3, [sp, #8]
 8003a80:	8b9b      	ldrh	r3, [r3, #28]
 8003a82:	f8ad 3020 	strh.w	r3, [sp, #32]
 8003a86:	9b01      	ldr	r3, [sp, #4]
 8003a88:	891b      	ldrh	r3, [r3, #8]
 8003a8a:	2b02      	cmp	r3, #2
 8003a8c:	d108      	bne.n	8003aa0 <I2S_Init+0x74>
 8003a8e:	f04f 0300 	mov.w	r3, #0	; 0x0
 8003a92:	f8ad 3024 	strh.w	r3, [sp, #36]
 8003a96:	f04f 0302 	mov.w	r3, #2	; 0x2
 8003a9a:	f8ad 3022 	strh.w	r3, [sp, #34]
 8003a9e:	e059      	b.n	8003b54 <I2S_Init+0x128>
 8003aa0:	9b01      	ldr	r3, [sp, #4]
 8003aa2:	889b      	ldrh	r3, [r3, #4]
 8003aa4:	2b00      	cmp	r3, #0
 8003aa6:	d104      	bne.n	8003ab2 <I2S_Init+0x86>
 8003aa8:	f04f 0301 	mov.w	r3, #1	; 0x1
 8003aac:	f8ad 3026 	strh.w	r3, [sp, #38]
 8003ab0:	e003      	b.n	8003aba <I2S_Init+0x8e>
 8003ab2:	f04f 0302 	mov.w	r3, #2	; 0x2
 8003ab6:	f8ad 3026 	strh.w	r3, [sp, #38]
 8003aba:	ab03      	add	r3, sp, #12
 8003abc:	4618      	mov	r0, r3
 8003abe:	f7ff fbd9 	bl	8003274 <RCC_GetClocksFreq>
 8003ac2:	9b01      	ldr	r3, [sp, #4]
 8003ac4:	88db      	ldrh	r3, [r3, #6]
 8003ac6:	f5b3 7f00 	cmp.w	r3, #512	; 0x200
 8003aca:	d111      	bne.n	8003af0 <I2S_Init+0xc4>
 8003acc:	9b03      	ldr	r3, [sp, #12]
 8003ace:	ea4f 0243 	mov.w	r2, r3, lsl #1
 8003ad2:	ea4f 0382 	mov.w	r3, r2, lsl #2
 8003ad6:	441a      	add	r2, r3
 8003ad8:	9b01      	ldr	r3, [sp, #4]
 8003ada:	891b      	ldrh	r3, [r3, #8]
 8003adc:	ea4f 2303 	mov.w	r3, r3, lsl #8
 8003ae0:	fbb2 f3f3 	udiv	r3, r2, r3
 8003ae4:	b29b      	uxth	r3, r3
 8003ae6:	f103 0305 	add.w	r3, r3, #5	; 0x5
 8003aea:	b29b      	uxth	r3, r3
 8003aec:	930a      	str	r3, [sp, #40]
 8003aee:	e015      	b.n	8003b1c <I2S_Init+0xf0>
 8003af0:	9b03      	ldr	r3, [sp, #12]
 8003af2:	ea4f 0243 	mov.w	r2, r3, lsl #1
 8003af6:	ea4f 0382 	mov.w	r3, r2, lsl #2
 8003afa:	eb02 0103 	add.w	r1, r2, r3
 8003afe:	f8bd 3026 	ldrh.w	r3, [sp, #38]
 8003b02:	ea4f 1243 	mov.w	r2, r3, lsl #5
 8003b06:	9b01      	ldr	r3, [sp, #4]
 8003b08:	891b      	ldrh	r3, [r3, #8]
 8003b0a:	fb03 f302 	mul.w	r3, r3, r2
 8003b0e:	fbb1 f3f3 	udiv	r3, r1, r3
 8003b12:	b29b      	uxth	r3, r3
 8003b14:	f103 0305 	add.w	r3, r3, #5	; 0x5
 8003b18:	b29b      	uxth	r3, r3
 8003b1a:	930a      	str	r3, [sp, #40]
 8003b1c:	9a0a      	ldr	r2, [sp, #40]
 8003b1e:	4b2c      	ldr	r3, [pc, #176]	(8003bd0 <I2S_Init+0x1a4>)
 8003b20:	fba3 1302 	umull	r1, r3, r3, r2
 8003b24:	ea4f 03d3 	mov.w	r3, r3, lsr #3
 8003b28:	930a      	str	r3, [sp, #40]
 8003b2a:	9b0a      	ldr	r3, [sp, #40]
 8003b2c:	b29b      	uxth	r3, r3
 8003b2e:	f003 0301 	and.w	r3, r3, #1	; 0x1
 8003b32:	f8ad 3024 	strh.w	r3, [sp, #36]
 8003b36:	f8bd 2024 	ldrh.w	r2, [sp, #36]
 8003b3a:	9b0a      	ldr	r3, [sp, #40]
 8003b3c:	ebc2 0303 	rsb	r3, r2, r3
 8003b40:	ea4f 0353 	mov.w	r3, r3, lsr #1
 8003b44:	f8ad 3022 	strh.w	r3, [sp, #34]
 8003b48:	f8bd 3024 	ldrh.w	r3, [sp, #36]
 8003b4c:	ea4f 2303 	mov.w	r3, r3, lsl #8
 8003b50:	f8ad 3024 	strh.w	r3, [sp, #36]
 8003b54:	f8bd 3022 	ldrh.w	r3, [sp, #34]
 8003b58:	2b01      	cmp	r3, #1
 8003b5a:	d903      	bls.n	8003b64 <I2S_Init+0x138>
 8003b5c:	f8bd 3022 	ldrh.w	r3, [sp, #34]
 8003b60:	2bff      	cmp	r3, #255
 8003b62:	d907      	bls.n	8003b74 <I2S_Init+0x148>
 8003b64:	f04f 0302 	mov.w	r3, #2	; 0x2
 8003b68:	f8ad 3022 	strh.w	r3, [sp, #34]
 8003b6c:	f04f 0300 	mov.w	r3, #0	; 0x0
 8003b70:	f8ad 3024 	strh.w	r3, [sp, #36]
 8003b74:	f8bd 2022 	ldrh.w	r2, [sp, #34]
 8003b78:	f8bd 3024 	ldrh.w	r3, [sp, #36]
 8003b7c:	ea42 0303 	orr.w	r3, r2, r3
 8003b80:	b29a      	uxth	r2, r3
 8003b82:	9b01      	ldr	r3, [sp, #4]
 8003b84:	88db      	ldrh	r3, [r3, #6]
 8003b86:	ea42 0303 	orr.w	r3, r2, r3
 8003b8a:	b29b      	uxth	r3, r3
 8003b8c:	9a02      	ldr	r2, [sp, #8]
 8003b8e:	8413      	strh	r3, [r2, #32]
 8003b90:	9b01      	ldr	r3, [sp, #4]
 8003b92:	881a      	ldrh	r2, [r3, #0]
 8003b94:	9b01      	ldr	r3, [sp, #4]
 8003b96:	885b      	ldrh	r3, [r3, #2]
 8003b98:	ea42 0303 	orr.w	r3, r2, r3
 8003b9c:	b29a      	uxth	r2, r3
 8003b9e:	9b01      	ldr	r3, [sp, #4]
 8003ba0:	889b      	ldrh	r3, [r3, #4]
 8003ba2:	ea42 0303 	orr.w	r3, r2, r3
 8003ba6:	b29a      	uxth	r2, r3
 8003ba8:	9b01      	ldr	r3, [sp, #4]
 8003baa:	895b      	ldrh	r3, [r3, #10]
 8003bac:	ea42 0303 	orr.w	r3, r2, r3
 8003bb0:	b29a      	uxth	r2, r3
 8003bb2:	f8bd 3020 	ldrh.w	r3, [sp, #32]
 8003bb6:	ea42 0303 	orr.w	r3, r2, r3
 8003bba:	b29b      	uxth	r3, r3
 8003bbc:	f443 6300 	orr.w	r3, r3, #2048	; 0x800
 8003bc0:	f8ad 3020 	strh.w	r3, [sp, #32]
 8003bc4:	9a02      	ldr	r2, [sp, #8]
 8003bc6:	f8bd 3020 	ldrh.w	r3, [sp, #32]
 8003bca:	8393      	strh	r3, [r2, #28]
 8003bcc:	b00b      	add	sp, #44
 8003bce:	bd00      	pop	{pc}
 8003bd0:	cccccccd 	.word	0xcccccccd

08003bd4 <SPI_StructInit>:
 8003bd4:	b081      	sub	sp, #4
 8003bd6:	9000      	str	r0, [sp, #0]
 8003bd8:	9a00      	ldr	r2, [sp, #0]
 8003bda:	f04f 0300 	mov.w	r3, #0	; 0x0
 8003bde:	8013      	strh	r3, [r2, #0]
 8003be0:	9a00      	ldr	r2, [sp, #0]
 8003be2:	f04f 0300 	mov.w	r3, #0	; 0x0
 8003be6:	8053      	strh	r3, [r2, #2]
 8003be8:	9a00      	ldr	r2, [sp, #0]
 8003bea:	f04f 0300 	mov.w	r3, #0	; 0x0
 8003bee:	8093      	strh	r3, [r2, #4]
 8003bf0:	9a00      	ldr	r2, [sp, #0]
 8003bf2:	f04f 0300 	mov.w	r3, #0	; 0x0
 8003bf6:	80d3      	strh	r3, [r2, #6]
 8003bf8:	9a00      	ldr	r2, [sp, #0]
 8003bfa:	f04f 0300 	mov.w	r3, #0	; 0x0
 8003bfe:	8113      	strh	r3, [r2, #8]
 8003c00:	9a00      	ldr	r2, [sp, #0]
 8003c02:	f04f 0300 	mov.w	r3, #0	; 0x0
 8003c06:	8153      	strh	r3, [r2, #10]
 8003c08:	9a00      	ldr	r2, [sp, #0]
 8003c0a:	f04f 0300 	mov.w	r3, #0	; 0x0
 8003c0e:	8193      	strh	r3, [r2, #12]
 8003c10:	9a00      	ldr	r2, [sp, #0]
 8003c12:	f04f 0300 	mov.w	r3, #0	; 0x0
 8003c16:	81d3      	strh	r3, [r2, #14]
 8003c18:	9a00      	ldr	r2, [sp, #0]
