
main.out:     file format elf32-littlearm


Disassembly of section .text:

0800010c <printf_putchar>:
 800010c:	b500      	push	{lr}
 800010e:	b081      	sub	sp, #4
 8000110:	4603      	mov	r3, r0
 8000112:	f88d 3000 	strb.w	r3, [sp]
 8000116:	4b11      	ldr	r3, [pc, #68]	(800015c <printf_putchar+0x50>)
 8000118:	8819      	ldrh	r1, [r3, #0]
 800011a:	4608      	mov	r0, r1
 800011c:	4a10      	ldr	r2, [pc, #64]	(8000160 <printf_putchar+0x54>)
 800011e:	f89d 3000 	ldrb.w	r3, [sp]
 8000122:	5413      	strb	r3, [r2, r0]
 8000124:	f101 0301 	add.w	r3, r1, #1	; 0x1
 8000128:	b29b      	uxth	r3, r3
 800012a:	4a0c      	ldr	r2, [pc, #48]	(800015c <printf_putchar+0x50>)
 800012c:	8013      	strh	r3, [r2, #0]
 800012e:	4b0b      	ldr	r3, [pc, #44]	(800015c <printf_putchar+0x50>)
 8000130:	881b      	ldrh	r3, [r3, #0]
 8000132:	2b80      	cmp	r3, #128
 8000134:	d10f      	bne.n	8000156 <printf_putchar+0x4a>
 8000136:	4b0b      	ldr	r3, [pc, #44]	(8000164 <printf_putchar+0x58>)
 8000138:	681b      	ldr	r3, [r3, #0]
 800013a:	2b00      	cmp	r3, #0
 800013c:	d007      	beq.n	800014e <printf_putchar+0x42>
 800013e:	4b09      	ldr	r3, [pc, #36]	(8000164 <printf_putchar+0x58>)
 8000140:	681a      	ldr	r2, [r3, #0]
 8000142:	4b06      	ldr	r3, [pc, #24]	(800015c <printf_putchar+0x50>)
 8000144:	881b      	ldrh	r3, [r3, #0]
 8000146:	b2db      	uxtb	r3, r3
 8000148:	4805      	ldr	r0, [pc, #20]	(8000160 <printf_putchar+0x54>)
 800014a:	4619      	mov	r1, r3
 800014c:	4790      	blx	r2
 800014e:	4b03      	ldr	r3, [pc, #12]	(800015c <printf_putchar+0x50>)
 8000150:	f04f 0200 	mov.w	r2, #0	; 0x0
 8000154:	801a      	strh	r2, [r3, #0]
 8000156:	b001      	add	sp, #4
 8000158:	bd00      	pop	{pc}
 800015a:	46c0      	nop			(mov r8, r8)
 800015c:	2000004c 	.word	0x2000004c
 8000160:	20000054 	.word	0x20000054
 8000164:	20000050 	.word	0x20000050

08000168 <printchar>:
 8000168:	b500      	push	{lr}
 800016a:	b082      	sub	sp, #8
 800016c:	9001      	str	r0, [sp, #4]
 800016e:	9100      	str	r1, [sp, #0]
 8000170:	9b01      	ldr	r3, [sp, #4]
 8000172:	2b00      	cmp	r3, #0
 8000174:	d00b      	beq.n	800018e <printchar+0x26>
 8000176:	9b01      	ldr	r3, [sp, #4]
 8000178:	681a      	ldr	r2, [r3, #0]
 800017a:	9b00      	ldr	r3, [sp, #0]
 800017c:	b2db      	uxtb	r3, r3
 800017e:	7013      	strb	r3, [r2, #0]
 8000180:	9b01      	ldr	r3, [sp, #4]
 8000182:	681b      	ldr	r3, [r3, #0]
 8000184:	f103 0201 	add.w	r2, r3, #1	; 0x1
 8000188:	9b01      	ldr	r3, [sp, #4]
 800018a:	601a      	str	r2, [r3, #0]
 800018c:	e004      	b.n	8000198 <printchar+0x30>
 800018e:	9b00      	ldr	r3, [sp, #0]
 8000190:	b2db      	uxtb	r3, r3
 8000192:	4618      	mov	r0, r3
 8000194:	f7ff ffba 	bl	800010c <printf_putchar>
 8000198:	b002      	add	sp, #8
 800019a:	bd00      	pop	{pc}

0800019c <prints>:
 800019c:	b500      	push	{lr}
 800019e:	b088      	sub	sp, #32
 80001a0:	9007      	str	r0, [sp, #28]
 80001a2:	9106      	str	r1, [sp, #24]
 80001a4:	9205      	str	r2, [sp, #20]
 80001a6:	9304      	str	r3, [sp, #16]
 80001a8:	f04f 0200 	mov.w	r2, #0	; 0x0
 80001ac:	9200      	str	r2, [sp, #0]
 80001ae:	f04f 0320 	mov.w	r3, #32	; 0x20
 80001b2:	9301      	str	r3, [sp, #4]
 80001b4:	9b05      	ldr	r3, [sp, #20]
 80001b6:	2b00      	cmp	r3, #0
 80001b8:	dd26      	ble.n	8000208 <prints+0x6c>
 80001ba:	f04f 0200 	mov.w	r2, #0	; 0x0
 80001be:	9202      	str	r2, [sp, #8]
 80001c0:	9b06      	ldr	r3, [sp, #24]
 80001c2:	9303      	str	r3, [sp, #12]
 80001c4:	e007      	b.n	80001d6 <prints+0x3a>
 80001c6:	9a02      	ldr	r2, [sp, #8]
 80001c8:	f102 0201 	add.w	r2, r2, #1	; 0x1
 80001cc:	9202      	str	r2, [sp, #8]
 80001ce:	9b03      	ldr	r3, [sp, #12]
 80001d0:	f103 0301 	add.w	r3, r3, #1	; 0x1
 80001d4:	9303      	str	r3, [sp, #12]
 80001d6:	9a03      	ldr	r2, [sp, #12]
 80001d8:	7813      	ldrb	r3, [r2, #0]
 80001da:	2b00      	cmp	r3, #0
 80001dc:	d1f3      	bne.n	80001c6 <prints+0x2a>
 80001de:	9b05      	ldr	r3, [sp, #20]
 80001e0:	9a02      	ldr	r2, [sp, #8]
 80001e2:	429a      	cmp	r2, r3
 80001e4:	db03      	blt.n	80001ee <prints+0x52>
 80001e6:	f04f 0300 	mov.w	r3, #0	; 0x0
 80001ea:	9305      	str	r3, [sp, #20]
 80001ec:	e004      	b.n	80001f8 <prints+0x5c>
 80001ee:	9b05      	ldr	r3, [sp, #20]
 80001f0:	9a02      	ldr	r2, [sp, #8]
 80001f2:	ebc2 0303 	rsb	r3, r2, r3
 80001f6:	9305      	str	r3, [sp, #20]
 80001f8:	9b04      	ldr	r3, [sp, #16]
 80001fa:	f003 0302 	and.w	r3, r3, #2	; 0x2
 80001fe:	2b00      	cmp	r3, #0
 8000200:	d002      	beq.n	8000208 <prints+0x6c>
 8000202:	f04f 0330 	mov.w	r3, #48	; 0x30
 8000206:	9301      	str	r3, [sp, #4]
 8000208:	9b04      	ldr	r3, [sp, #16]
 800020a:	f003 0301 	and.w	r3, r3, #1	; 0x1
 800020e:	2b00      	cmp	r3, #0
 8000210:	d11e      	bne.n	8000250 <prints+0xb4>
 8000212:	e00b      	b.n	800022c <prints+0x90>
 8000214:	9807      	ldr	r0, [sp, #28]
 8000216:	9901      	ldr	r1, [sp, #4]
 8000218:	f7ff ffa6 	bl	8000168 <printchar>
 800021c:	9a00      	ldr	r2, [sp, #0]
 800021e:	f102 0201 	add.w	r2, r2, #1	; 0x1
 8000222:	9200      	str	r2, [sp, #0]
 8000224:	9b05      	ldr	r3, [sp, #20]
 8000226:	f103 33ff 	add.w	r3, r3, #4294967295	; 0xffffffff
 800022a:	9305      	str	r3, [sp, #20]
 800022c:	9b05      	ldr	r3, [sp, #20]
 800022e:	2b00      	cmp	r3, #0
 8000230:	dcf0      	bgt.n	8000214 <prints+0x78>
 8000232:	e00d      	b.n	8000250 <prints+0xb4>
 8000234:	9b06      	ldr	r3, [sp, #24]
 8000236:	781b      	ldrb	r3, [r3, #0]
 8000238:	9807      	ldr	r0, [sp, #28]
 800023a:	4619      	mov	r1, r3
 800023c:	f7ff ff94 	bl	8000168 <printchar>
 8000240:	9b00      	ldr	r3, [sp, #0]
 8000242:	f103 0301 	add.w	r3, r3, #1	; 0x1
 8000246:	9300      	str	r3, [sp, #0]
 8000248:	9b06      	ldr	r3, [sp, #24]
 800024a:	f103 0301 	add.w	r3, r3, #1	; 0x1
 800024e:	9306      	str	r3, [sp, #24]
 8000250:	9b06      	ldr	r3, [sp, #24]
 8000252:	781b      	ldrb	r3, [r3, #0]
 8000254:	2b00      	cmp	r3, #0
 8000256:	d1ed      	bne.n	8000234 <prints+0x98>
 8000258:	e00b      	b.n	8000272 <prints+0xd6>
 800025a:	9807      	ldr	r0, [sp, #28]
 800025c:	9901      	ldr	r1, [sp, #4]
 800025e:	f7ff ff83 	bl	8000168 <printchar>
 8000262:	9a00      	ldr	r2, [sp, #0]
 8000264:	f102 0201 	add.w	r2, r2, #1	; 0x1
 8000268:	9200      	str	r2, [sp, #0]
 800026a:	9b05      	ldr	r3, [sp, #20]
 800026c:	f103 33ff 	add.w	r3, r3, #4294967295	; 0xffffffff
 8000270:	9305      	str	r3, [sp, #20]
 8000272:	9b05      	ldr	r3, [sp, #20]
 8000274:	2b00      	cmp	r3, #0
 8000276:	dcf0      	bgt.n	800025a <prints+0xbe>
 8000278:	9b00      	ldr	r3, [sp, #0]
 800027a:	4618      	mov	r0, r3
 800027c:	b008      	add	sp, #32
 800027e:	bd00      	pop	{pc}

08000280 <printi>:
 8000280:	b500      	push	{lr}
 8000282:	b08d      	sub	sp, #52
 8000284:	9009      	str	r0, [sp, #36]
 8000286:	9108      	str	r1, [sp, #32]
 8000288:	9207      	str	r2, [sp, #28]
 800028a:	9306      	str	r3, [sp, #24]
 800028c:	f04f 0100 	mov.w	r1, #0	; 0x0
 8000290:	9103      	str	r1, [sp, #12]
 8000292:	f04f 0200 	mov.w	r2, #0	; 0x0
 8000296:	9204      	str	r2, [sp, #16]
 8000298:	9b08      	ldr	r3, [sp, #32]
 800029a:	9305      	str	r3, [sp, #20]
 800029c:	9b08      	ldr	r3, [sp, #32]
 800029e:	2b00      	cmp	r3, #0
 80002a0:	d111      	bne.n	80002c6 <printi+0x46>
 80002a2:	f04f 0330 	mov.w	r3, #48	; 0x30
 80002a6:	f88d 3028 	strb.w	r3, [sp, #40]
 80002aa:	f04f 0300 	mov.w	r3, #0	; 0x0
 80002ae:	f88d 3029 	strb.w	r3, [sp, #41]
 80002b2:	ab0a      	add	r3, sp, #40
 80002b4:	9809      	ldr	r0, [sp, #36]
 80002b6:	4619      	mov	r1, r3
 80002b8:	9a0e      	ldr	r2, [sp, #56]
 80002ba:	9b0f      	ldr	r3, [sp, #60]
 80002bc:	f7ff ff6e 	bl	800019c <prints>
 80002c0:	4603      	mov	r3, r0
 80002c2:	9300      	str	r3, [sp, #0]
 80002c4:	e069      	b.n	800039a <printi+0x11a>
 80002c6:	9b06      	ldr	r3, [sp, #24]
 80002c8:	2b00      	cmp	r3, #0
 80002ca:	d00c      	beq.n	80002e6 <printi+0x66>
 80002cc:	9b07      	ldr	r3, [sp, #28]
 80002ce:	2b0a      	cmp	r3, #10
 80002d0:	d109      	bne.n	80002e6 <printi+0x66>
 80002d2:	9b08      	ldr	r3, [sp, #32]
 80002d4:	2b00      	cmp	r3, #0
 80002d6:	da06      	bge.n	80002e6 <printi+0x66>
 80002d8:	f04f 0101 	mov.w	r1, #1	; 0x1
 80002dc:	9103      	str	r1, [sp, #12]
 80002de:	9b08      	ldr	r3, [sp, #32]
 80002e0:	f1c3 0300 	rsb	r3, r3, #0	; 0x0
 80002e4:	9305      	str	r3, [sp, #20]
 80002e6:	ab0a      	add	r3, sp, #40
 80002e8:	f103 030b 	add.w	r3, r3, #11	; 0xb
 80002ec:	9301      	str	r3, [sp, #4]
 80002ee:	f04f 0300 	mov.w	r3, #0	; 0x0
 80002f2:	9a01      	ldr	r2, [sp, #4]
 80002f4:	7013      	strb	r3, [r2, #0]
 80002f6:	e022      	b.n	800033e <printi+0xbe>
 80002f8:	9a07      	ldr	r2, [sp, #28]
 80002fa:	9905      	ldr	r1, [sp, #20]
 80002fc:	fbb1 f3f2 	udiv	r3, r1, r2
 8000300:	fb02 f303 	mul.w	r3, r2, r3
 8000304:	9a05      	ldr	r2, [sp, #20]
 8000306:	ebc3 0302 	rsb	r3, r3, r2
 800030a:	9302      	str	r3, [sp, #8]
 800030c:	9b02      	ldr	r3, [sp, #8]
 800030e:	2b09      	cmp	r3, #9
 8000310:	dd05      	ble.n	800031e <printi+0x9e>
 8000312:	9b10      	ldr	r3, [sp, #64]
 8000314:	f1a3 033a 	sub.w	r3, r3, #58	; 0x3a
 8000318:	9902      	ldr	r1, [sp, #8]
 800031a:	4419      	add	r1, r3
 800031c:	9102      	str	r1, [sp, #8]
 800031e:	9a01      	ldr	r2, [sp, #4]
 8000320:	f102 32ff 	add.w	r2, r2, #4294967295	; 0xffffffff
 8000324:	9201      	str	r2, [sp, #4]
 8000326:	9902      	ldr	r1, [sp, #8]
 8000328:	b2cb      	uxtb	r3, r1
 800032a:	f103 0330 	add.w	r3, r3, #48	; 0x30
 800032e:	b2db      	uxtb	r3, r3
 8000330:	9a01      	ldr	r2, [sp, #4]
 8000332:	7013      	strb	r3, [r2, #0]
 8000334:	9b07      	ldr	r3, [sp, #28]
 8000336:	9905      	ldr	r1, [sp, #20]
 8000338:	fbb1 f1f3 	udiv	r1, r1, r3
 800033c:	9105      	str	r1, [sp, #20]
 800033e:	9a05      	ldr	r2, [sp, #20]
 8000340:	2a00      	cmp	r2, #0
 8000342:	d1d9      	bne.n	80002f8 <printi+0x78>
 8000344:	9b03      	ldr	r3, [sp, #12]
 8000346:	2b00      	cmp	r3, #0
 8000348:	d01d      	beq.n	8000386 <printi+0x106>
 800034a:	9b0e      	ldr	r3, [sp, #56]
 800034c:	2b00      	cmp	r3, #0
 800034e:	d012      	beq.n	8000376 <printi+0xf6>
 8000350:	9b0f      	ldr	r3, [sp, #60]
 8000352:	f003 0302 	and.w	r3, r3, #2	; 0x2
 8000356:	2b00      	cmp	r3, #0
 8000358:	d00d      	beq.n	8000376 <printi+0xf6>
 800035a:	9809      	ldr	r0, [sp, #36]
 800035c:	f04f 012d 	mov.w	r1, #45	; 0x2d
 8000360:	f7ff ff02 	bl	8000168 <printchar>
 8000364:	9904      	ldr	r1, [sp, #16]
 8000366:	f101 0101 	add.w	r1, r1, #1	; 0x1
 800036a:	9104      	str	r1, [sp, #16]
 800036c:	9b0e      	ldr	r3, [sp, #56]
 800036e:	f103 33ff 	add.w	r3, r3, #4294967295	; 0xffffffff
 8000372:	930e      	str	r3, [sp, #56]
 8000374:	e007      	b.n	8000386 <printi+0x106>
 8000376:	9a01      	ldr	r2, [sp, #4]
 8000378:	f102 32ff 	add.w	r2, r2, #4294967295	; 0xffffffff
 800037c:	9201      	str	r2, [sp, #4]
 800037e:	f04f 032d 	mov.w	r3, #45	; 0x2d
 8000382:	9901      	ldr	r1, [sp, #4]
 8000384:	700b      	strb	r3, [r1, #0]
 8000386:	9809      	ldr	r0, [sp, #36]
 8000388:	9901      	ldr	r1, [sp, #4]
 800038a:	9a0e      	ldr	r2, [sp, #56]
 800038c:	9b0f      	ldr	r3, [sp, #60]
 800038e:	f7ff ff05 	bl	800019c <prints>
 8000392:	4603      	mov	r3, r0
 8000394:	9a04      	ldr	r2, [sp, #16]
 8000396:	4413      	add	r3, r2
 8000398:	9300      	str	r3, [sp, #0]
 800039a:	9b00      	ldr	r3, [sp, #0]
 800039c:	4618      	mov	r0, r3
 800039e:	b00d      	add	sp, #52
 80003a0:	bd00      	pop	{pc}
 80003a2:	46c0      	nop			(mov r8, r8)

080003a4 <print>:
 80003a4:	b500      	push	{lr}
 80003a6:	b08c      	sub	sp, #48
 80003a8:	900a      	str	r0, [sp, #40]
 80003aa:	9109      	str	r1, [sp, #36]
 80003ac:	9208      	str	r2, [sp, #32]
 80003ae:	f04f 0200 	mov.w	r2, #0	; 0x0
 80003b2:	9206      	str	r2, [sp, #24]
 80003b4:	e10c      	b.n	80005d0 <print+0x22c>
 80003b6:	9b09      	ldr	r3, [sp, #36]
 80003b8:	781b      	ldrb	r3, [r3, #0]
 80003ba:	2b25      	cmp	r3, #37
 80003bc:	f040 80fa 	bne.w	80005b4 <print+0x210>
 80003c0:	9b09      	ldr	r3, [sp, #36]
 80003c2:	f103 0301 	add.w	r3, r3, #1	; 0x1
 80003c6:	9309      	str	r3, [sp, #36]
 80003c8:	f04f 0300 	mov.w	r3, #0	; 0x0
 80003cc:	9305      	str	r3, [sp, #20]
 80003ce:	9a05      	ldr	r2, [sp, #20]
 80003d0:	9204      	str	r2, [sp, #16]
 80003d2:	9b09      	ldr	r3, [sp, #36]
 80003d4:	781b      	ldrb	r3, [r3, #0]
 80003d6:	2b00      	cmp	r3, #0
 80003d8:	f000 80ff 	beq.w	80005da <print+0x236>
 80003dc:	9b09      	ldr	r3, [sp, #36]
 80003de:	781b      	ldrb	r3, [r3, #0]
 80003e0:	2b25      	cmp	r3, #37
 80003e2:	f000 80e7 	beq.w	80005b4 <print+0x210>
 80003e6:	9b09      	ldr	r3, [sp, #36]
 80003e8:	781b      	ldrb	r3, [r3, #0]
 80003ea:	2b2d      	cmp	r3, #45
 80003ec:	d10f      	bne.n	800040e <print+0x6a>
 80003ee:	9b09      	ldr	r3, [sp, #36]
 80003f0:	f103 0301 	add.w	r3, r3, #1	; 0x1
 80003f4:	9309      	str	r3, [sp, #36]
 80003f6:	f04f 0301 	mov.w	r3, #1	; 0x1
 80003fa:	9305      	str	r3, [sp, #20]
 80003fc:	e007      	b.n	800040e <print+0x6a>
 80003fe:	9b09      	ldr	r3, [sp, #36]
 8000400:	f103 0301 	add.w	r3, r3, #1	; 0x1
 8000404:	9309      	str	r3, [sp, #36]
 8000406:	9a05      	ldr	r2, [sp, #20]
 8000408:	f042 0202 	orr.w	r2, r2, #2	; 0x2
 800040c:	9205      	str	r2, [sp, #20]
 800040e:	9b09      	ldr	r3, [sp, #36]
 8000410:	781b      	ldrb	r3, [r3, #0]
 8000412:	2b30      	cmp	r3, #48
 8000414:	d0f3      	beq.n	80003fe <print+0x5a>
 8000416:	e011      	b.n	800043c <print+0x98>
 8000418:	9b04      	ldr	r3, [sp, #16]
 800041a:	ea4f 0243 	mov.w	r2, r3, lsl #1
 800041e:	ea4f 0382 	mov.w	r3, r2, lsl #2
 8000422:	4413      	add	r3, r2
 8000424:	9304      	str	r3, [sp, #16]
 8000426:	9b09      	ldr	r3, [sp, #36]
 8000428:	781b      	ldrb	r3, [r3, #0]
 800042a:	f1a3 0330 	sub.w	r3, r3, #48	; 0x30
 800042e:	9a04      	ldr	r2, [sp, #16]
 8000430:	441a      	add	r2, r3
 8000432:	9204      	str	r2, [sp, #16]
 8000434:	9b09      	ldr	r3, [sp, #36]
 8000436:	f103 0301 	add.w	r3, r3, #1	; 0x1
 800043a:	9309      	str	r3, [sp, #36]
 800043c:	9b09      	ldr	r3, [sp, #36]
 800043e:	781b      	ldrb	r3, [r3, #0]
 8000440:	2b2f      	cmp	r3, #47
 8000442:	d903      	bls.n	800044c <print+0xa8>
 8000444:	9b09      	ldr	r3, [sp, #36]
 8000446:	781b      	ldrb	r3, [r3, #0]
 8000448:	2b39      	cmp	r3, #57
 800044a:	d9e5      	bls.n	8000418 <print+0x74>
 800044c:	9b09      	ldr	r3, [sp, #36]
 800044e:	781b      	ldrb	r3, [r3, #0]
 8000450:	2b73      	cmp	r3, #115
 8000452:	d119      	bne.n	8000488 <print+0xe4>
 8000454:	9a08      	ldr	r2, [sp, #32]
 8000456:	f102 0304 	add.w	r3, r2, #4	; 0x4
 800045a:	9308      	str	r3, [sp, #32]
 800045c:	4613      	mov	r3, r2
 800045e:	681b      	ldr	r3, [r3, #0]
 8000460:	9307      	str	r3, [sp, #28]
 8000462:	9b07      	ldr	r3, [sp, #28]
 8000464:	2b00      	cmp	r3, #0
 8000466:	d002      	beq.n	800046e <print+0xca>
 8000468:	9a07      	ldr	r2, [sp, #28]
 800046a:	9203      	str	r2, [sp, #12]
 800046c:	e001      	b.n	8000472 <print+0xce>
 800046e:	4b61      	ldr	r3, [pc, #388]	(80005f4 <print+0x250>)
 8000470:	9303      	str	r3, [sp, #12]
 8000472:	980a      	ldr	r0, [sp, #40]
 8000474:	9903      	ldr	r1, [sp, #12]
 8000476:	9a04      	ldr	r2, [sp, #16]
 8000478:	9b05      	ldr	r3, [sp, #20]
 800047a:	f7ff fe8f 	bl	800019c <prints>
 800047e:	4603      	mov	r3, r0
 8000480:	9a06      	ldr	r2, [sp, #24]
 8000482:	441a      	add	r2, r3
 8000484:	9206      	str	r2, [sp, #24]
 8000486:	e09f      	b.n	80005c8 <print+0x224>
 8000488:	9b09      	ldr	r3, [sp, #36]
 800048a:	781b      	ldrb	r3, [r3, #0]
 800048c:	2b64      	cmp	r3, #100
 800048e:	d119      	bne.n	80004c4 <print+0x120>
 8000490:	9a08      	ldr	r2, [sp, #32]
 8000492:	f102 0304 	add.w	r3, r2, #4	; 0x4
 8000496:	9308      	str	r3, [sp, #32]
 8000498:	4613      	mov	r3, r2
 800049a:	681a      	ldr	r2, [r3, #0]
 800049c:	9b04      	ldr	r3, [sp, #16]
 800049e:	9300      	str	r3, [sp, #0]
 80004a0:	9b05      	ldr	r3, [sp, #20]
 80004a2:	9301      	str	r3, [sp, #4]
 80004a4:	f04f 0361 	mov.w	r3, #97	; 0x61
 80004a8:	9302      	str	r3, [sp, #8]
 80004aa:	980a      	ldr	r0, [sp, #40]
 80004ac:	4611      	mov	r1, r2
 80004ae:	f04f 020a 	mov.w	r2, #10	; 0xa
 80004b2:	f04f 0301 	mov.w	r3, #1	; 0x1
 80004b6:	f7ff fee3 	bl	8000280 <printi>
 80004ba:	4603      	mov	r3, r0
 80004bc:	9a06      	ldr	r2, [sp, #24]
 80004be:	441a      	add	r2, r3
 80004c0:	9206      	str	r2, [sp, #24]
 80004c2:	e081      	b.n	80005c8 <print+0x224>
 80004c4:	9b09      	ldr	r3, [sp, #36]
 80004c6:	781b      	ldrb	r3, [r3, #0]
 80004c8:	2b78      	cmp	r3, #120
 80004ca:	d119      	bne.n	8000500 <print+0x15c>
 80004cc:	9a08      	ldr	r2, [sp, #32]
 80004ce:	f102 0304 	add.w	r3, r2, #4	; 0x4
 80004d2:	9308      	str	r3, [sp, #32]
 80004d4:	4613      	mov	r3, r2
 80004d6:	681a      	ldr	r2, [r3, #0]
 80004d8:	9b04      	ldr	r3, [sp, #16]
 80004da:	9300      	str	r3, [sp, #0]
 80004dc:	9b05      	ldr	r3, [sp, #20]
 80004de:	9301      	str	r3, [sp, #4]
 80004e0:	f04f 0361 	mov.w	r3, #97	; 0x61
 80004e4:	9302      	str	r3, [sp, #8]
 80004e6:	980a      	ldr	r0, [sp, #40]
 80004e8:	4611      	mov	r1, r2
 80004ea:	f04f 0210 	mov.w	r2, #16	; 0x10
 80004ee:	f04f 0300 	mov.w	r3, #0	; 0x0
 80004f2:	f7ff fec5 	bl	8000280 <printi>
 80004f6:	4603      	mov	r3, r0
 80004f8:	9a06      	ldr	r2, [sp, #24]
 80004fa:	441a      	add	r2, r3
 80004fc:	9206      	str	r2, [sp, #24]
 80004fe:	e063      	b.n	80005c8 <print+0x224>
 8000500:	9b09      	ldr	r3, [sp, #36]
 8000502:	781b      	ldrb	r3, [r3, #0]
 8000504:	2b58      	cmp	r3, #88
 8000506:	d119      	bne.n	800053c <print+0x198>
 8000508:	9a08      	ldr	r2, [sp, #32]
 800050a:	f102 0304 	add.w	r3, r2, #4	; 0x4
 800050e:	9308      	str	r3, [sp, #32]
 8000510:	4613      	mov	r3, r2
 8000512:	681a      	ldr	r2, [r3, #0]
 8000514:	9b04      	ldr	r3, [sp, #16]
 8000516:	9300      	str	r3, [sp, #0]
 8000518:	9b05      	ldr	r3, [sp, #20]
 800051a:	9301      	str	r3, [sp, #4]
 800051c:	f04f 0341 	mov.w	r3, #65	; 0x41
 8000520:	9302      	str	r3, [sp, #8]
 8000522:	980a      	ldr	r0, [sp, #40]
 8000524:	4611      	mov	r1, r2
 8000526:	f04f 0210 	mov.w	r2, #16	; 0x10
 800052a:	f04f 0300 	mov.w	r3, #0	; 0x0
 800052e:	f7ff fea7 	bl	8000280 <printi>
 8000532:	4603      	mov	r3, r0
 8000534:	9a06      	ldr	r2, [sp, #24]
 8000536:	441a      	add	r2, r3
 8000538:	9206      	str	r2, [sp, #24]
 800053a:	e045      	b.n	80005c8 <print+0x224>
 800053c:	9b09      	ldr	r3, [sp, #36]
 800053e:	781b      	ldrb	r3, [r3, #0]
 8000540:	2b75      	cmp	r3, #117
 8000542:	d119      	bne.n	8000578 <print+0x1d4>
 8000544:	9a08      	ldr	r2, [sp, #32]
 8000546:	f102 0304 	add.w	r3, r2, #4	; 0x4
 800054a:	9308      	str	r3, [sp, #32]
 800054c:	4613      	mov	r3, r2
 800054e:	681a      	ldr	r2, [r3, #0]
 8000550:	9b04      	ldr	r3, [sp, #16]
 8000552:	9300      	str	r3, [sp, #0]
 8000554:	9b05      	ldr	r3, [sp, #20]
 8000556:	9301      	str	r3, [sp, #4]
 8000558:	f04f 0361 	mov.w	r3, #97	; 0x61
 800055c:	9302      	str	r3, [sp, #8]
 800055e:	980a      	ldr	r0, [sp, #40]
 8000560:	4611      	mov	r1, r2
 8000562:	f04f 020a 	mov.w	r2, #10	; 0xa
 8000566:	f04f 0300 	mov.w	r3, #0	; 0x0
 800056a:	f7ff fe89 	bl	8000280 <printi>
 800056e:	4603      	mov	r3, r0
 8000570:	9a06      	ldr	r2, [sp, #24]
 8000572:	441a      	add	r2, r3
 8000574:	9206      	str	r2, [sp, #24]
 8000576:	e027      	b.n	80005c8 <print+0x224>
 8000578:	9b09      	ldr	r3, [sp, #36]
 800057a:	781b      	ldrb	r3, [r3, #0]
 800057c:	2b63      	cmp	r3, #99
 800057e:	d123      	bne.n	80005c8 <print+0x224>
 8000580:	9a08      	ldr	r2, [sp, #32]
 8000582:	f102 0304 	add.w	r3, r2, #4	; 0x4
 8000586:	9308      	str	r3, [sp, #32]
 8000588:	4613      	mov	r3, r2
 800058a:	681b      	ldr	r3, [r3, #0]
 800058c:	b2db      	uxtb	r3, r3
 800058e:	f88d 302e 	strb.w	r3, [sp, #46]
 8000592:	f04f 0300 	mov.w	r3, #0	; 0x0
 8000596:	f88d 302f 	strb.w	r3, [sp, #47]
 800059a:	f10d 032e 	add.w	r3, sp, #46	; 0x2e
 800059e:	980a      	ldr	r0, [sp, #40]
 80005a0:	4619      	mov	r1, r3
 80005a2:	9a04      	ldr	r2, [sp, #16]
 80005a4:	9b05      	ldr	r3, [sp, #20]
 80005a6:	f7ff fdf9 	bl	800019c <prints>
 80005aa:	4603      	mov	r3, r0
 80005ac:	9a06      	ldr	r2, [sp, #24]
 80005ae:	441a      	add	r2, r3
 80005b0:	9206      	str	r2, [sp, #24]
 80005b2:	e009      	b.n	80005c8 <print+0x224>
 80005b4:	9b09      	ldr	r3, [sp, #36]
 80005b6:	781b      	ldrb	r3, [r3, #0]
 80005b8:	980a      	ldr	r0, [sp, #40]
 80005ba:	4619      	mov	r1, r3
 80005bc:	f7ff fdd4 	bl	8000168 <printchar>
 80005c0:	9b06      	ldr	r3, [sp, #24]
 80005c2:	f103 0301 	add.w	r3, r3, #1	; 0x1
 80005c6:	9306      	str	r3, [sp, #24]
 80005c8:	9b09      	ldr	r3, [sp, #36]
 80005ca:	f103 0301 	add.w	r3, r3, #1	; 0x1
 80005ce:	9309      	str	r3, [sp, #36]
 80005d0:	9b09      	ldr	r3, [sp, #36]
 80005d2:	781b      	ldrb	r3, [r3, #0]
 80005d4:	2b00      	cmp	r3, #0
 80005d6:	f47f aeee 	bne.w	80003b6 <print+0x12>
 80005da:	9b0a      	ldr	r3, [sp, #40]
 80005dc:	2b00      	cmp	r3, #0
 80005de:	d004      	beq.n	80005ea <print+0x246>
 80005e0:	9b0a      	ldr	r3, [sp, #40]
 80005e2:	681a      	ldr	r2, [r3, #0]
 80005e4:	f04f 0300 	mov.w	r3, #0	; 0x0
 80005e8:	7013      	strb	r3, [r2, #0]
 80005ea:	9b06      	ldr	r3, [sp, #24]
 80005ec:	4618      	mov	r0, r3
 80005ee:	b00c      	add	sp, #48
 80005f0:	bd00      	pop	{pc}
 80005f2:	46c0      	nop			(mov r8, r8)
 80005f4:	08009170 	.word	0x08009170

080005f8 <puts>:
 80005f8:	b500      	push	{lr}
 80005fa:	b081      	sub	sp, #4
 80005fc:	9000      	str	r0, [sp, #0]
 80005fe:	4804      	ldr	r0, [pc, #16]	(8000610 <puts+0x18>)
 8000600:	9900      	ldr	r1, [sp, #0]
 8000602:	f000 f815 	bl	8000630 <printf>
 8000606:	4603      	mov	r3, r0
 8000608:	4618      	mov	r0, r3
 800060a:	b001      	add	sp, #4
 800060c:	bd00      	pop	{pc}
 800060e:	46c0      	nop			(mov r8, r8)
 8000610:	08009178 	.word	0x08009178

08000614 <putchar>:
 8000614:	b500      	push	{lr}
 8000616:	b081      	sub	sp, #4
 8000618:	9000      	str	r0, [sp, #0]
 800061a:	4804      	ldr	r0, [pc, #16]	(800062c <putchar+0x18>)
 800061c:	9900      	ldr	r1, [sp, #0]
 800061e:	f000 f807 	bl	8000630 <printf>
 8000622:	4603      	mov	r3, r0
 8000624:	4618      	mov	r0, r3
 8000626:	b001      	add	sp, #4
 8000628:	bd00      	pop	{pc}
 800062a:	46c0      	nop			(mov r8, r8)
 800062c:	0800917c 	.word	0x0800917c

08000630 <printf>:
 8000630:	b40f      	push	{r0, r1, r2, r3}
 8000632:	b500      	push	{lr}
 8000634:	b082      	sub	sp, #8
 8000636:	ab04      	add	r3, sp, #16
 8000638:	9300      	str	r3, [sp, #0]
 800063a:	9b00      	ldr	r3, [sp, #0]
 800063c:	f04f 0000 	mov.w	r0, #0	; 0x0
 8000640:	9903      	ldr	r1, [sp, #12]
 8000642:	461a      	mov	r2, r3
 8000644:	f7ff feae 	bl	80003a4 <print>
 8000648:	4603      	mov	r3, r0
 800064a:	9301      	str	r3, [sp, #4]
 800064c:	4b0b      	ldr	r3, [pc, #44]	(800067c <printf+0x4c>)
 800064e:	681b      	ldr	r3, [r3, #0]
 8000650:	2b00      	cmp	r3, #0
 8000652:	d007      	beq.n	8000664 <printf+0x34>
 8000654:	4b09      	ldr	r3, [pc, #36]	(800067c <printf+0x4c>)
 8000656:	681a      	ldr	r2, [r3, #0]
 8000658:	4b09      	ldr	r3, [pc, #36]	(8000680 <printf+0x50>)
 800065a:	881b      	ldrh	r3, [r3, #0]
 800065c:	b2db      	uxtb	r3, r3
 800065e:	4809      	ldr	r0, [pc, #36]	(8000684 <printf+0x54>)
 8000660:	4619      	mov	r1, r3
 8000662:	4790      	blx	r2
 8000664:	4a06      	ldr	r2, [pc, #24]	(8000680 <printf+0x50>)
 8000666:	f04f 0300 	mov.w	r3, #0	; 0x0
 800066a:	8013      	strh	r3, [r2, #0]
 800066c:	9b01      	ldr	r3, [sp, #4]
 800066e:	4618      	mov	r0, r3
 8000670:	b002      	add	sp, #8
 8000672:	f85d eb04 	ldr.w	lr, [sp], #4
 8000676:	b004      	add	sp, #16
 8000678:	4770      	bx	lr
 800067a:	46c0      	nop			(mov r8, r8)
 800067c:	20000050 	.word	0x20000050
 8000680:	2000004c 	.word	0x2000004c
 8000684:	20000054 	.word	0x20000054

08000688 <sprintf>:
 8000688:	b40e      	push	{r1, r2, r3}
 800068a:	b500      	push	{lr}
 800068c:	b082      	sub	sp, #8
 800068e:	9000      	str	r0, [sp, #0]
 8000690:	ab04      	add	r3, sp, #16
 8000692:	9301      	str	r3, [sp, #4]
 8000694:	9a01      	ldr	r2, [sp, #4]
 8000696:	466b      	mov	r3, sp
 8000698:	4618      	mov	r0, r3
 800069a:	9903      	ldr	r1, [sp, #12]
 800069c:	f7ff fe82 	bl	80003a4 <print>
 80006a0:	4603      	mov	r3, r0
 80006a2:	4618      	mov	r0, r3
 80006a4:	b002      	add	sp, #8
 80006a6:	f85d eb04 	ldr.w	lr, [sp], #4
 80006aa:	b003      	add	sp, #12
 80006ac:	4770      	bx	lr
 80006ae:	46c0      	nop			(mov r8, r8)

080006b0 <printf_init>:
 80006b0:	b081      	sub	sp, #4
 80006b2:	9000      	str	r0, [sp, #0]
 80006b4:	4a02      	ldr	r2, [pc, #8]	(80006c0 <printf_init+0x10>)
 80006b6:	9b00      	ldr	r3, [sp, #0]
 80006b8:	6013      	str	r3, [r2, #0]
 80006ba:	b001      	add	sp, #4
 80006bc:	4770      	bx	lr
 80006be:	46c0      	nop			(mov r8, r8)
 80006c0:	20000050 	.word	0x20000050

080006c4 <memset>:
 80006c4:	b085      	sub	sp, #20
 80006c6:	9003      	str	r0, [sp, #12]
 80006c8:	9102      	str	r1, [sp, #8]
 80006ca:	9201      	str	r2, [sp, #4]
 80006cc:	9b03      	ldr	r3, [sp, #12]
 80006ce:	9304      	str	r3, [sp, #16]
 80006d0:	e007      	b.n	80006e2 <memset+0x1e>
 80006d2:	9b02      	ldr	r3, [sp, #8]
 80006d4:	b2db      	uxtb	r3, r3
 80006d6:	9a04      	ldr	r2, [sp, #16]
 80006d8:	7013      	strb	r3, [r2, #0]
 80006da:	9b04      	ldr	r3, [sp, #16]
 80006dc:	f103 0301 	add.w	r3, r3, #1	; 0x1
 80006e0:	9304      	str	r3, [sp, #16]
 80006e2:	9b01      	ldr	r3, [sp, #4]
 80006e4:	2b00      	cmp	r3, #0
 80006e6:	bf0c      	ite	eq
 80006e8:	2300      	moveq	r3, #0
 80006ea:	2301      	movne	r3, #1
 80006ec:	b2da      	uxtb	r2, r3
 80006ee:	9b01      	ldr	r3, [sp, #4]
 80006f0:	f103 33ff 	add.w	r3, r3, #4294967295	; 0xffffffff
 80006f4:	9301      	str	r3, [sp, #4]
 80006f6:	2a00      	cmp	r2, #0
 80006f8:	d1eb      	bne.n	80006d2 <memset+0xe>
 80006fa:	b005      	add	sp, #20
 80006fc:	4770      	bx	lr
 80006fe:	46c0      	nop			(mov r8, r8)

08000700 <memcpy>:
 8000700:	b086      	sub	sp, #24
 8000702:	9003      	str	r0, [sp, #12]
 8000704:	9102      	str	r1, [sp, #8]
 8000706:	9201      	str	r2, [sp, #4]
 8000708:	9b03      	ldr	r3, [sp, #12]
 800070a:	9304      	str	r3, [sp, #16]
 800070c:	9b02      	ldr	r3, [sp, #8]
 800070e:	9305      	str	r3, [sp, #20]
 8000710:	9b04      	ldr	r3, [sp, #16]
 8000712:	2b00      	cmp	r3, #0
 8000714:	d002      	beq.n	800071c <memcpy+0x1c>
 8000716:	9b05      	ldr	r3, [sp, #20]
 8000718:	2b00      	cmp	r3, #0
 800071a:	d103      	bne.n	8000724 <memcpy+0x24>
 800071c:	f04f 0300 	mov.w	r3, #0	; 0x0
 8000720:	9300      	str	r3, [sp, #0]
 8000722:	e036      	b.n	8000792 <memcpy+0x92>
 8000724:	9a04      	ldr	r2, [sp, #16]
 8000726:	9b05      	ldr	r3, [sp, #20]
 8000728:	429a      	cmp	r2, r3
 800072a:	d214      	bcs.n	8000756 <memcpy+0x56>
 800072c:	e00f      	b.n	800074e <memcpy+0x4e>
 800072e:	9b05      	ldr	r3, [sp, #20]
 8000730:	781b      	ldrb	r3, [r3, #0]
 8000732:	9a04      	ldr	r2, [sp, #16]
 8000734:	7013      	strb	r3, [r2, #0]
 8000736:	9b04      	ldr	r3, [sp, #16]
 8000738:	f103 0301 	add.w	r3, r3, #1	; 0x1
 800073c:	9304      	str	r3, [sp, #16]
 800073e:	9b05      	ldr	r3, [sp, #20]
 8000740:	f103 0301 	add.w	r3, r3, #1	; 0x1
 8000744:	9305      	str	r3, [sp, #20]
 8000746:	9b01      	ldr	r3, [sp, #4]
 8000748:	f103 33ff 	add.w	r3, r3, #4294967295	; 0xffffffff
 800074c:	9301      	str	r3, [sp, #4]
 800074e:	9b01      	ldr	r3, [sp, #4]
 8000750:	2b00      	cmp	r3, #0
 8000752:	d1ec      	bne.n	800072e <memcpy+0x2e>
 8000754:	e01b      	b.n	800078e <memcpy+0x8e>
 8000756:	9a05      	ldr	r2, [sp, #20]
 8000758:	9b01      	ldr	r3, [sp, #4]
 800075a:	4413      	add	r3, r2
 800075c:	9305      	str	r3, [sp, #20]
 800075e:	9a04      	ldr	r2, [sp, #16]
 8000760:	9b01      	ldr	r3, [sp, #4]
 8000762:	4413      	add	r3, r2
 8000764:	9304      	str	r3, [sp, #16]
 8000766:	e00f      	b.n	8000788 <memcpy+0x88>
 8000768:	9b04      	ldr	r3, [sp, #16]
 800076a:	f103 33ff 	add.w	r3, r3, #4294967295	; 0xffffffff
 800076e:	9304      	str	r3, [sp, #16]
 8000770:	9b05      	ldr	r3, [sp, #20]
 8000772:	f103 33ff 	add.w	r3, r3, #4294967295	; 0xffffffff
 8000776:	9305      	str	r3, [sp, #20]
 8000778:	9b05      	ldr	r3, [sp, #20]
 800077a:	781b      	ldrb	r3, [r3, #0]
 800077c:	9a04      	ldr	r2, [sp, #16]
 800077e:	7013      	strb	r3, [r2, #0]
 8000780:	9b01      	ldr	r3, [sp, #4]
 8000782:	f103 33ff 	add.w	r3, r3, #4294967295	; 0xffffffff
 8000786:	9301      	str	r3, [sp, #4]
 8000788:	9b01      	ldr	r3, [sp, #4]
 800078a:	2b00      	cmp	r3, #0
 800078c:	d1ec      	bne.n	8000768 <memcpy+0x68>
 800078e:	9b03      	ldr	r3, [sp, #12]
 8000790:	9300      	str	r3, [sp, #0]
 8000792:	9b00      	ldr	r3, [sp, #0]
 8000794:	4618      	mov	r0, r3
 8000796:	b006      	add	sp, #24
 8000798:	4770      	bx	lr
 800079a:	46c0      	nop			(mov r8, r8)

0800079c <memcmp>:
 800079c:	b087      	sub	sp, #28
 800079e:	9004      	str	r0, [sp, #16]
 80007a0:	9103      	str	r1, [sp, #12]
 80007a2:	9202      	str	r2, [sp, #8]
 80007a4:	9b04      	ldr	r3, [sp, #16]
 80007a6:	2b00      	cmp	r3, #0
 80007a8:	d002      	beq.n	80007b0 <memcmp+0x14>
 80007aa:	9b03      	ldr	r3, [sp, #12]
 80007ac:	2b00      	cmp	r3, #0
 80007ae:	d103      	bne.n	80007b8 <memcmp+0x1c>
 80007b0:	f04f 0200 	mov.w	r2, #0	; 0x0
 80007b4:	9200      	str	r2, [sp, #0]
 80007b6:	e02d      	b.n	8000814 <memcmp+0x78>
 80007b8:	9b04      	ldr	r3, [sp, #16]
 80007ba:	9305      	str	r3, [sp, #20]
 80007bc:	9b03      	ldr	r3, [sp, #12]
 80007be:	9306      	str	r3, [sp, #24]
 80007c0:	e022      	b.n	8000808 <memcmp+0x6c>
 80007c2:	9b05      	ldr	r3, [sp, #20]
 80007c4:	781a      	ldrb	r2, [r3, #0]
 80007c6:	9b06      	ldr	r3, [sp, #24]
 80007c8:	781b      	ldrb	r3, [r3, #0]
 80007ca:	429a      	cmp	r2, r3
 80007cc:	d010      	beq.n	80007f0 <memcmp+0x54>
 80007ce:	9b05      	ldr	r3, [sp, #20]
 80007d0:	781a      	ldrb	r2, [r3, #0]
 80007d2:	9b06      	ldr	r3, [sp, #24]
 80007d4:	781b      	ldrb	r3, [r3, #0]
 80007d6:	429a      	cmp	r2, r3
 80007d8:	d203      	bcs.n	80007e2 <memcmp+0x46>
 80007da:	f04f 03ff 	mov.w	r3, #255	; 0xff
 80007de:	9301      	str	r3, [sp, #4]
 80007e0:	e002      	b.n	80007e8 <memcmp+0x4c>
 80007e2:	f04f 0201 	mov.w	r2, #1	; 0x1
 80007e6:	9201      	str	r2, [sp, #4]
 80007e8:	9b01      	ldr	r3, [sp, #4]
 80007ea:	b2db      	uxtb	r3, r3
 80007ec:	9300      	str	r3, [sp, #0]
 80007ee:	e011      	b.n	8000814 <memcmp+0x78>
 80007f0:	9b05      	ldr	r3, [sp, #20]
 80007f2:	f103 0301 	add.w	r3, r3, #1	; 0x1
 80007f6:	9305      	str	r3, [sp, #20]
 80007f8:	9b06      	ldr	r3, [sp, #24]
 80007fa:	f103 0301 	add.w	r3, r3, #1	; 0x1
 80007fe:	9306      	str	r3, [sp, #24]
 8000800:	9b02      	ldr	r3, [sp, #8]
 8000802:	f103 33ff 	add.w	r3, r3, #4294967295	; 0xffffffff
 8000806:	9302      	str	r3, [sp, #8]
 8000808:	9b02      	ldr	r3, [sp, #8]
 800080a:	2b00      	cmp	r3, #0
 800080c:	d1d9      	bne.n	80007c2 <memcmp+0x26>
 800080e:	f04f 0200 	mov.w	r2, #0	; 0x0
 8000812:	9200      	str	r2, [sp, #0]
 8000814:	9a00      	ldr	r2, [sp, #0]
 8000816:	b253      	sxtb	r3, r2
 8000818:	4618      	mov	r0, r3
 800081a:	b007      	add	sp, #28
 800081c:	4770      	bx	lr
 800081e:	46c0      	nop			(mov r8, r8)

08000820 <main>:
 8000820:	b500      	push	{lr}
 8000822:	b082      	sub	sp, #8
 8000824:	f000 fe9e 	bl	8001564 <Set_System>
 8000828:	4819      	ldr	r0, [pc, #100]	(8000890 <main+0x70>)
 800082a:	f7ff fee5 	bl	80005f8 <puts>
 800082e:	4b19      	ldr	r3, [pc, #100]	(8000894 <main+0x74>)
 8000830:	9300      	str	r3, [sp, #0]
 8000832:	4819      	ldr	r0, [pc, #100]	(8000898 <main+0x78>)
 8000834:	f04f 0100 	mov.w	r1, #0	; 0x0
 8000838:	f04f 0201 	mov.w	r2, #1	; 0x1
 800083c:	4b17      	ldr	r3, [pc, #92]	(800089c <main+0x7c>)
 800083e:	f7ff fef7 	bl	8000630 <printf>
 8000842:	4b17      	ldr	r3, [pc, #92]	(80008a0 <main+0x80>)
 8000844:	6819      	ldr	r1, [r3, #0]
 8000846:	4b17      	ldr	r3, [pc, #92]	(80008a4 <main+0x84>)
 8000848:	681a      	ldr	r2, [r3, #0]
 800084a:	4b17      	ldr	r3, [pc, #92]	(80008a8 <main+0x88>)
 800084c:	681b      	ldr	r3, [r3, #0]
 800084e:	4817      	ldr	r0, [pc, #92]	(80008ac <main+0x8c>)
 8000850:	f7ff feee 	bl	8000630 <printf>
 8000854:	f04f 0300 	mov.w	r3, #0	; 0x0
 8000858:	9301      	str	r3, [sp, #4]
 800085a:	4815      	ldr	r0, [pc, #84]	(80008b0 <main+0x90>)
 800085c:	f44f 5180 	mov.w	r1, #4096	; 0x1000
 8000860:	f003 fdfc 	bl	800445c <GPIO_SetBits>
 8000864:	f44f 707a 	mov.w	r0, #1000	; 0x3e8
 8000868:	f001 f924 	bl	8001ab4 <mdelay>
 800086c:	4810      	ldr	r0, [pc, #64]	(80008b0 <main+0x90>)
 800086e:	f44f 5180 	mov.w	r1, #4096	; 0x1000
 8000872:	f003 fdff 	bl	8004474 <GPIO_ResetBits>
 8000876:	f44f 707a 	mov.w	r0, #1000	; 0x3e8
 800087a:	f001 f91b 	bl	8001ab4 <mdelay>
 800087e:	9b01      	ldr	r3, [sp, #4]
 8000880:	f103 0301 	add.w	r3, r3, #1	; 0x1
 8000884:	9301      	str	r3, [sp, #4]
 8000886:	480b      	ldr	r0, [pc, #44]	(80008b4 <main+0x94>)
 8000888:	9901      	ldr	r1, [sp, #4]
 800088a:	f7ff fed1 	bl	8000630 <printf>
 800088e:	e7e4      	b.n	800085a <main+0x3a>
 8000890:	08009180 	.word	0x08009180
 8000894:	080091c8 	.word	0x080091c8
 8000898:	08009198 	.word	0x08009198
 800089c:	080091bc 	.word	0x080091bc
 80008a0:	1ffff7e8 	.word	0x1ffff7e8
 80008a4:	1ffff7ec 	.word	0x1ffff7ec
 80008a8:	1ffff7f0 	.word	0x1ffff7f0
 80008ac:	080091d4 	.word	0x080091d4
 80008b0:	40011000 	.word	0x40011000
 80008b4:	080091f4 	.word	0x080091f4

080008b8 <expire_timer>:
 80008b8:	b085      	sub	sp, #20
 80008ba:	9003      	str	r0, [sp, #12]
 80008bc:	9102      	str	r1, [sp, #8]
 80008be:	4b15      	ldr	r3, [pc, #84]	(8000914 <expire_timer+0x5c>)
 80008c0:	681b      	ldr	r3, [r3, #0]
 80008c2:	9304      	str	r3, [sp, #16]
 80008c4:	9a03      	ldr	r2, [sp, #12]
 80008c6:	9b02      	ldr	r3, [sp, #8]
 80008c8:	441a      	add	r2, r3
 80008ca:	9b03      	ldr	r3, [sp, #12]
 80008cc:	429a      	cmp	r2, r3
 80008ce:	d909      	bls.n	80008e4 <expire_timer+0x2c>
 80008d0:	9a03      	ldr	r2, [sp, #12]
 80008d2:	9b02      	ldr	r3, [sp, #8]
 80008d4:	441a      	add	r2, r3
 80008d6:	9b04      	ldr	r3, [sp, #16]
 80008d8:	429a      	cmp	r2, r3
 80008da:	bf2c      	ite	cs
 80008dc:	2300      	movcs	r3, #0
 80008de:	2301      	movcc	r3, #1
 80008e0:	9300      	str	r3, [sp, #0]
 80008e2:	e013      	b.n	800090c <expire_timer+0x54>
 80008e4:	9a03      	ldr	r2, [sp, #12]
 80008e6:	9b02      	ldr	r3, [sp, #8]
 80008e8:	441a      	add	r2, r3
 80008ea:	9b04      	ldr	r3, [sp, #16]
 80008ec:	429a      	cmp	r2, r3
 80008ee:	d207      	bcs.n	8000900 <expire_timer+0x48>
 80008f0:	9a04      	ldr	r2, [sp, #16]
 80008f2:	9b03      	ldr	r3, [sp, #12]
 80008f4:	429a      	cmp	r2, r3
 80008f6:	d203      	bcs.n	8000900 <expire_timer+0x48>
 80008f8:	f04f 0301 	mov.w	r3, #1	; 0x1
 80008fc:	9301      	str	r3, [sp, #4]
 80008fe:	e002      	b.n	8000906 <expire_timer+0x4e>
 8000900:	f04f 0300 	mov.w	r3, #0	; 0x0
 8000904:	9301      	str	r3, [sp, #4]
 8000906:	9b01      	ldr	r3, [sp, #4]
 8000908:	b2db      	uxtb	r3, r3
 800090a:	9300      	str	r3, [sp, #0]
 800090c:	9b00      	ldr	r3, [sp, #0]
 800090e:	4618      	mov	r0, r3
 8000910:	b005      	add	sp, #20
 8000912:	4770      	bx	lr
 8000914:	200000d4 	.word	0x200000d4

08000918 <tick_1khz>:
 8000918:	4b01      	ldr	r3, [pc, #4]	(8000920 <tick_1khz+0x8>)
 800091a:	681b      	ldr	r3, [r3, #0]
 800091c:	4618      	mov	r0, r3
 800091e:	4770      	bx	lr
 8000920:	200000d4 	.word	0x200000d4

08000924 <tick_increment>:
 8000924:	4b03      	ldr	r3, [pc, #12]	(8000934 <tick_increment+0x10>)
 8000926:	681b      	ldr	r3, [r3, #0]
 8000928:	f103 0201 	add.w	r2, r3, #1	; 0x1
 800092c:	4b01      	ldr	r3, [pc, #4]	(8000934 <tick_increment+0x10>)
 800092e:	601a      	str	r2, [r3, #0]
 8000930:	4770      	bx	lr
 8000932:	46c0      	nop			(mov r8, r8)
 8000934:	200000d4 	.word	0x200000d4

08000938 <get_sec_counter>:
 8000938:	4b01      	ldr	r3, [pc, #4]	(8000940 <get_sec_counter+0x8>)
 800093a:	681b      	ldr	r3, [r3, #0]
 800093c:	4618      	mov	r0, r3
 800093e:	4770      	bx	lr
 8000940:	200000d8 	.word	0x200000d8

08000944 <set_sec_counter>:
 8000944:	b081      	sub	sp, #4
 8000946:	9000      	str	r0, [sp, #0]
 8000948:	4a02      	ldr	r2, [pc, #8]	(8000954 <set_sec_counter+0x10>)
 800094a:	9b00      	ldr	r3, [sp, #0]
 800094c:	6013      	str	r3, [r2, #0]
 800094e:	b001      	add	sp, #4
 8000950:	4770      	bx	lr
 8000952:	46c0      	nop			(mov r8, r8)
 8000954:	200000d8 	.word	0x200000d8

08000958 <RTC_Configuration>:
 8000958:	b510      	push	{r4, lr}
 800095a:	b081      	sub	sp, #4
 800095c:	f04f 0001 	mov.w	r0, #1	; 0x1
 8000960:	f002 ff22 	bl	80037a8 <PWR_BackupAccessCmd>
 8000964:	f04f 50c0 	mov.w	r0, #402653184	; 0x18000000
 8000968:	f04f 0101 	mov.w	r1, #1	; 0x1
 800096c:	f002 fd72 	bl	8003454 <RCC_APB1PeriphClockCmd>
 8000970:	f002 fe56 	bl	8003620 <BKP_DeInit>
 8000974:	f04f 0000 	mov.w	r0, #0	; 0x0
 8000978:	f04f 0114 	mov.w	r1, #20	; 0x14
 800097c:	f04f 0207 	mov.w	r2, #7	; 0x7
 8000980:	f240 73db 	movw	r3, #2011	; 0x7db
 8000984:	f000 face 	bl	8000f24 <SetDate>
 8000988:	f04f 0000 	mov.w	r0, #0	; 0x0
 800098c:	f04f 0113 	mov.w	r1, #19	; 0x13
 8000990:	f04f 0200 	mov.w	r2, #0	; 0x0
 8000994:	f04f 0300 	mov.w	r3, #0	; 0x0
 8000998:	f000 fa72 	bl	8000e80 <SetTime>
 800099c:	484a      	ldr	r0, [pc, #296]	(8000ac8 <RTC_Configuration+0x170>)
 800099e:	f7ff fe2b 	bl	80005f8 <puts>
 80009a2:	f04f 0001 	mov.w	r0, #1	; 0x1
 80009a6:	f002 fc1f 	bl	80031e8 <RCC_LSEConfig>
 80009aa:	f04f 0300 	mov.w	r3, #0	; 0x0
 80009ae:	f8ad 3002 	strh.w	r3, [sp, #2]
 80009b2:	e005      	b.n	80009c0 <RTC_Configuration+0x68>
 80009b4:	f8bd 3002 	ldrh.w	r3, [sp, #2]
 80009b8:	f103 0301 	add.w	r3, r3, #1	; 0x1
 80009bc:	f8ad 3002 	strh.w	r3, [sp, #2]
 80009c0:	f8bd 2002 	ldrh.w	r2, [sp, #2]
 80009c4:	f241 3387 	movw	r3, #4999	; 0x1387
 80009c8:	429a      	cmp	r2, r3
 80009ca:	d9f3      	bls.n	80009b4 <RTC_Configuration+0x5c>
 80009cc:	f44f 7080 	mov.w	r0, #256	; 0x100
 80009d0:	f002 fc38 	bl	8003244 <RCC_RTCCLKConfig>
 80009d4:	f04f 0001 	mov.w	r0, #1	; 0x1
 80009d8:	f002 fc42 	bl	8003260 <RCC_RTCCLKCmd>
 80009dc:	f008 f8ba 	bl	8008b54 <RTC_WaitForLastTask>
 80009e0:	f008 f8c2 	bl	8008b68 <RTC_WaitForSynchro>
 80009e4:	f008 f8b6 	bl	8008b54 <RTC_WaitForLastTask>
 80009e8:	f04f 0002 	mov.w	r0, #2	; 0x2
 80009ec:	f04f 0101 	mov.w	r1, #1	; 0x1
 80009f0:	f007 fff6 	bl	80089e0 <RTC_ITConfig>
 80009f4:	f008 f8ae 	bl	8008b54 <RTC_WaitForLastTask>
 80009f8:	f647 70fd 	movw	r0, #32765	; 0x7ffd
 80009fc:	f008 f862 	bl	8008ac4 <RTC_SetPrescaler>
 8000a00:	f008 f8a8 	bl	8008b54 <RTC_WaitForLastTask>
 8000a04:	f04f 0000 	mov.w	r0, #0	; 0x0
 8000a08:	f008 f846 	bl	8008a98 <RTC_SetCounter>
 8000a0c:	f008 f8a2 	bl	8008b54 <RTC_WaitForLastTask>
 8000a10:	f04f 0001 	mov.w	r0, #1	; 0x1
 8000a14:	f008 f86e 	bl	8008af4 <RTC_SetAlarm>
 8000a18:	f008 f89c 	bl	8008b54 <RTC_WaitForLastTask>
 8000a1c:	f000 fd5c 	bl	80014d8 <CheckForDaysElapsed>
 8000a20:	f04f 0018 	mov.w	r0, #24	; 0x18
 8000a24:	f002 fe7e 	bl	8003724 <BKP_ReadBackupRegister>
 8000a28:	4603      	mov	r3, r0
 8000a2a:	b2db      	uxtb	r3, r3
 8000a2c:	4a27      	ldr	r2, [pc, #156]	(8000acc <RTC_Configuration+0x174>)
 8000a2e:	7013      	strb	r3, [r2, #0]
 8000a30:	f04f 0008 	mov.w	r0, #8	; 0x8
 8000a34:	f002 fe76 	bl	8003724 <BKP_ReadBackupRegister>
 8000a38:	4603      	mov	r3, r0
 8000a3a:	b2db      	uxtb	r3, r3
 8000a3c:	4a24      	ldr	r2, [pc, #144]	(8000ad0 <RTC_Configuration+0x178>)
 8000a3e:	7013      	strb	r3, [r2, #0]
 8000a40:	f04f 000c 	mov.w	r0, #12	; 0xc
 8000a44:	f002 fe6e 	bl	8003724 <BKP_ReadBackupRegister>
 8000a48:	4603      	mov	r3, r0
 8000a4a:	b2db      	uxtb	r3, r3
 8000a4c:	4a20      	ldr	r2, [pc, #128]	(8000ad0 <RTC_Configuration+0x178>)
 8000a4e:	7053      	strb	r3, [r2, #1]
 8000a50:	f04f 0010 	mov.w	r0, #16	; 0x10
 8000a54:	f002 fe66 	bl	8003724 <BKP_ReadBackupRegister>
 8000a58:	4603      	mov	r3, r0
 8000a5a:	4a1d      	ldr	r2, [pc, #116]	(8000ad0 <RTC_Configuration+0x178>)
 8000a5c:	8053      	strh	r3, [r2, #2]
 8000a5e:	f04f 001c 	mov.w	r0, #28	; 0x1c
 8000a62:	f002 fe5f 	bl	8003724 <BKP_ReadBackupRegister>
 8000a66:	4603      	mov	r3, r0
 8000a68:	4a1a      	ldr	r2, [pc, #104]	(8000ad4 <RTC_Configuration+0x17c>)
 8000a6a:	8013      	strh	r3, [r2, #0]
 8000a6c:	f04f 0020 	mov.w	r0, #32	; 0x20
 8000a70:	f002 fe58 	bl	8003724 <BKP_ReadBackupRegister>
 8000a74:	4603      	mov	r3, r0
 8000a76:	b2db      	uxtb	r3, r3
 8000a78:	4a17      	ldr	r2, [pc, #92]	(8000ad8 <RTC_Configuration+0x180>)
 8000a7a:	7013      	strb	r3, [r2, #0]
 8000a7c:	f04f 0024 	mov.w	r0, #36	; 0x24
 8000a80:	f002 fe50 	bl	8003724 <BKP_ReadBackupRegister>
 8000a84:	4603      	mov	r3, r0
 8000a86:	b2db      	uxtb	r3, r3
 8000a88:	4a13      	ldr	r2, [pc, #76]	(8000ad8 <RTC_Configuration+0x180>)
 8000a8a:	7053      	strb	r3, [r2, #1]
 8000a8c:	f04f 0028 	mov.w	r0, #40	; 0x28
 8000a90:	f002 fe48 	bl	8003724 <BKP_ReadBackupRegister>
 8000a94:	4603      	mov	r3, r0
 8000a96:	4a10      	ldr	r2, [pc, #64]	(8000ad8 <RTC_Configuration+0x180>)
 8000a98:	8053      	strh	r3, [r2, #2]
 8000a9a:	f04f 0040 	mov.w	r0, #64	; 0x40
 8000a9e:	f002 fe41 	bl	8003724 <BKP_ReadBackupRegister>
 8000aa2:	4603      	mov	r3, r0
 8000aa4:	ea4f 4403 	mov.w	r4, r3, lsl #16
 8000aa8:	f04f 0044 	mov.w	r0, #68	; 0x44
 8000aac:	f002 fe3a 	bl	8003724 <BKP_ReadBackupRegister>
 8000ab0:	4603      	mov	r3, r0
 8000ab2:	ea44 0203 	orr.w	r2, r4, r3
 8000ab6:	4b08      	ldr	r3, [pc, #32]	(8000ad8 <RTC_Configuration+0x180>)
 8000ab8:	605a      	str	r2, [r3, #4]
 8000aba:	f04f 0000 	mov.w	r0, #0	; 0x0
 8000abe:	f002 fdd9 	bl	8003674 <BKP_RTCOutputConfig>
 8000ac2:	b001      	add	sp, #4
 8000ac4:	bd10      	pop	{r4, pc}
 8000ac6:	46c0      	nop			(mov r8, r8)
 8000ac8:	080092a8 	.word	0x080092a8
 8000acc:	200000f6 	.word	0x200000f6
 8000ad0:	200000e4 	.word	0x200000e4
 8000ad4:	200000f4 	.word	0x200000f4
 8000ad8:	200000ec 	.word	0x200000ec

08000adc <SummerTimeCorrection>:
 8000adc:	b500      	push	{lr}
 8000ade:	b083      	sub	sp, #12
 8000ae0:	f04f 0300 	mov.w	r3, #0	; 0x0
 8000ae4:	f88d 300a 	strb.w	r3, [sp, #10]
 8000ae8:	f04f 0300 	mov.w	r3, #0	; 0x0
 8000aec:	f88d 300b 	strb.w	r3, [sp, #11]
 8000af0:	4bdd      	ldr	r3, [pc, #884]	(8000e68 <SummerTimeCorrection+0x38c>)
 8000af2:	881b      	ldrh	r3, [r3, #0]
 8000af4:	f403 4380 	and.w	r3, r3, #16384	; 0x4000
 8000af8:	2b00      	cmp	r3, #0
 8000afa:	f000 80a5 	beq.w	8000c48 <SummerTimeCorrection+0x16c>
 8000afe:	4bdb      	ldr	r3, [pc, #876]	(8000e6c <SummerTimeCorrection+0x390>)
 8000b00:	781b      	ldrb	r3, [r3, #0]
 8000b02:	2b0a      	cmp	r3, #10
 8000b04:	d13b      	bne.n	8000b7e <SummerTimeCorrection+0xa2>
 8000b06:	4bd9      	ldr	r3, [pc, #868]	(8000e6c <SummerTimeCorrection+0x390>)
 8000b08:	785b      	ldrb	r3, [r3, #1]
 8000b0a:	2b18      	cmp	r3, #24
 8000b0c:	d937      	bls.n	8000b7e <SummerTimeCorrection+0xa2>
 8000b0e:	f04f 0319 	mov.w	r3, #25	; 0x19
 8000b12:	f88d 300b 	strb.w	r3, [sp, #11]
 8000b16:	e02b      	b.n	8000b70 <SummerTimeCorrection+0x94>
 8000b18:	4bd4      	ldr	r3, [pc, #848]	(8000e6c <SummerTimeCorrection+0x390>)
 8000b1a:	885b      	ldrh	r3, [r3, #2]
 8000b1c:	4619      	mov	r1, r3
 8000b1e:	4bd3      	ldr	r3, [pc, #844]	(8000e6c <SummerTimeCorrection+0x390>)
 8000b20:	781b      	ldrb	r3, [r3, #0]
 8000b22:	f89d 200b 	ldrb.w	r2, [sp, #11]
 8000b26:	4608      	mov	r0, r1
 8000b28:	4619      	mov	r1, r3
 8000b2a:	f000 fc33 	bl	8001394 <WeekDay>
 8000b2e:	4603      	mov	r3, r0
 8000b30:	2b00      	cmp	r3, #0
 8000b32:	d117      	bne.n	8000b64 <SummerTimeCorrection+0x88>
 8000b34:	4bcd      	ldr	r3, [pc, #820]	(8000e6c <SummerTimeCorrection+0x390>)
 8000b36:	785a      	ldrb	r2, [r3, #1]
 8000b38:	f89d 300b 	ldrb.w	r3, [sp, #11]
 8000b3c:	4293      	cmp	r3, r2
 8000b3e:	d10c      	bne.n	8000b5a <SummerTimeCorrection+0x7e>
 8000b40:	f7ff fefa 	bl	8000938 <get_sec_counter>
 8000b44:	4602      	mov	r2, r0
 8000b46:	f641 431e 	movw	r3, #7198	; 0x1c1e
 8000b4a:	429a      	cmp	r2, r3
 8000b4c:	f240 811b 	bls.w	8000d86 <SummerTimeCorrection+0x2aa>
 8000b50:	f04f 0301 	mov.w	r3, #1	; 0x1
 8000b54:	f88d 300a 	strb.w	r3, [sp, #10]
 8000b58:	e115      	b.n	8000d86 <SummerTimeCorrection+0x2aa>
 8000b5a:	f04f 0301 	mov.w	r3, #1	; 0x1
 8000b5e:	f88d 300a 	strb.w	r3, [sp, #10]
 8000b62:	e110      	b.n	8000d86 <SummerTimeCorrection+0x2aa>
 8000b64:	f89d 300b 	ldrb.w	r3, [sp, #11]
 8000b68:	f103 0301 	add.w	r3, r3, #1	; 0x1
 8000b6c:	f88d 300b 	strb.w	r3, [sp, #11]
 8000b70:	4bbe      	ldr	r3, [pc, #760]	(8000e6c <SummerTimeCorrection+0x390>)
 8000b72:	785a      	ldrb	r2, [r3, #1]
 8000b74:	f89d 300b 	ldrb.w	r3, [sp, #11]
 8000b78:	4293      	cmp	r3, r2
 8000b7a:	d9cd      	bls.n	8000b18 <SummerTimeCorrection+0x3c>
 8000b7c:	e103      	b.n	8000d86 <SummerTimeCorrection+0x2aa>
 8000b7e:	4bbb      	ldr	r3, [pc, #748]	(8000e6c <SummerTimeCorrection+0x390>)
 8000b80:	781b      	ldrb	r3, [r3, #0]
 8000b82:	2b0a      	cmp	r3, #10
 8000b84:	d904      	bls.n	8000b90 <SummerTimeCorrection+0xb4>
 8000b86:	f04f 0301 	mov.w	r3, #1	; 0x1
 8000b8a:	f88d 300a 	strb.w	r3, [sp, #10]
 8000b8e:	e0fa      	b.n	8000d86 <SummerTimeCorrection+0x2aa>
 8000b90:	4bb6      	ldr	r3, [pc, #728]	(8000e6c <SummerTimeCorrection+0x390>)
 8000b92:	781b      	ldrb	r3, [r3, #0]
 8000b94:	2b02      	cmp	r3, #2
 8000b96:	d804      	bhi.n	8000ba2 <SummerTimeCorrection+0xc6>
 8000b98:	f04f 0301 	mov.w	r3, #1	; 0x1
 8000b9c:	f88d 300a 	strb.w	r3, [sp, #10]
 8000ba0:	e0f1      	b.n	8000d86 <SummerTimeCorrection+0x2aa>
 8000ba2:	4bb2      	ldr	r3, [pc, #712]	(8000e6c <SummerTimeCorrection+0x390>)
 8000ba4:	781b      	ldrb	r3, [r3, #0]
 8000ba6:	2b03      	cmp	r3, #3
 8000ba8:	f040 80ed 	bne.w	8000d86 <SummerTimeCorrection+0x2aa>
 8000bac:	4baf      	ldr	r3, [pc, #700]	(8000e6c <SummerTimeCorrection+0x390>)
 8000bae:	785b      	ldrb	r3, [r3, #1]
 8000bb0:	2b17      	cmp	r3, #23
 8000bb2:	d804      	bhi.n	8000bbe <SummerTimeCorrection+0xe2>
 8000bb4:	f04f 0301 	mov.w	r3, #1	; 0x1
 8000bb8:	f88d 300a 	strb.w	r3, [sp, #10]
 8000bbc:	e0e3      	b.n	8000d86 <SummerTimeCorrection+0x2aa>
 8000bbe:	f04f 0318 	mov.w	r3, #24	; 0x18
 8000bc2:	f88d 300b 	strb.w	r3, [sp, #11]
 8000bc6:	e038      	b.n	8000c3a <SummerTimeCorrection+0x15e>
 8000bc8:	4ba8      	ldr	r3, [pc, #672]	(8000e6c <SummerTimeCorrection+0x390>)
 8000bca:	885b      	ldrh	r3, [r3, #2]
 8000bcc:	4619      	mov	r1, r3
 8000bce:	4ba7      	ldr	r3, [pc, #668]	(8000e6c <SummerTimeCorrection+0x390>)
 8000bd0:	781b      	ldrb	r3, [r3, #0]
 8000bd2:	f89d 200b 	ldrb.w	r2, [sp, #11]
 8000bd6:	4608      	mov	r0, r1
 8000bd8:	4619      	mov	r1, r3
 8000bda:	f000 fbdb 	bl	8001394 <WeekDay>
 8000bde:	4603      	mov	r3, r0
 8000be0:	2b00      	cmp	r3, #0
 8000be2:	d124      	bne.n	8000c2e <SummerTimeCorrection+0x152>
 8000be4:	4ba1      	ldr	r3, [pc, #644]	(8000e6c <SummerTimeCorrection+0x390>)
 8000be6:	785a      	ldrb	r2, [r3, #1]
 8000be8:	f89d 300b 	ldrb.w	r3, [sp, #11]
 8000bec:	4293      	cmp	r3, r2
 8000bee:	d11a      	bne.n	8000c26 <SummerTimeCorrection+0x14a>
 8000bf0:	f7ff fea2 	bl	8000938 <get_sec_counter>
 8000bf4:	4602      	mov	r2, r0
 8000bf6:	f641 431e 	movw	r3, #7198	; 0x1c1e
 8000bfa:	429a      	cmp	r2, r3
 8000bfc:	d80e      	bhi.n	8000c1c <SummerTimeCorrection+0x140>
 8000bfe:	4b9a      	ldr	r3, [pc, #616]	(8000e68 <SummerTimeCorrection+0x38c>)
 8000c00:	881b      	ldrh	r3, [r3, #0]
 8000c02:	ea4f 4283 	mov.w	r2, r3, lsl #18
 8000c06:	ea4f 4292 	mov.w	r2, r2, lsr #18
 8000c0a:	4b98      	ldr	r3, [pc, #608]	(8000e6c <SummerTimeCorrection+0x390>)
 8000c0c:	885b      	ldrh	r3, [r3, #2]
 8000c0e:	429a      	cmp	r2, r3
 8000c10:	d004      	beq.n	8000c1c <SummerTimeCorrection+0x140>
 8000c12:	f04f 0301 	mov.w	r3, #1	; 0x1
 8000c16:	f88d 300a 	strb.w	r3, [sp, #10]
 8000c1a:	e0b4      	b.n	8000d86 <SummerTimeCorrection+0x2aa>
 8000c1c:	f04f 0300 	mov.w	r3, #0	; 0x0
 8000c20:	f88d 300a 	strb.w	r3, [sp, #10]
 8000c24:	e0af      	b.n	8000d86 <SummerTimeCorrection+0x2aa>
 8000c26:	f04f 0301 	mov.w	r3, #1	; 0x1
 8000c2a:	f88d 300a 	strb.w	r3, [sp, #10]
 8000c2e:	f89d 300b 	ldrb.w	r3, [sp, #11]
 8000c32:	f103 0301 	add.w	r3, r3, #1	; 0x1
 8000c36:	f88d 300b 	strb.w	r3, [sp, #11]
 8000c3a:	4b8c      	ldr	r3, [pc, #560]	(8000e6c <SummerTimeCorrection+0x390>)
 8000c3c:	785a      	ldrb	r2, [r3, #1]
 8000c3e:	f89d 300b 	ldrb.w	r3, [sp, #11]
 8000c42:	4293      	cmp	r3, r2
 8000c44:	d9c0      	bls.n	8000bc8 <SummerTimeCorrection+0xec>
 8000c46:	e09e      	b.n	8000d86 <SummerTimeCorrection+0x2aa>
 8000c48:	4b87      	ldr	r3, [pc, #540]	(8000e68 <SummerTimeCorrection+0x38c>)
 8000c4a:	881b      	ldrh	r3, [r3, #0]
 8000c4c:	b21b      	sxth	r3, r3
 8000c4e:	2b00      	cmp	r3, #0
 8000c50:	f280 8099 	bge.w	8000d86 <SummerTimeCorrection+0x2aa>
 8000c54:	4b85      	ldr	r3, [pc, #532]	(8000e6c <SummerTimeCorrection+0x390>)
 8000c56:	781b      	ldrb	r3, [r3, #0]
 8000c58:	2b03      	cmp	r3, #3
 8000c5a:	d13a      	bne.n	8000cd2 <SummerTimeCorrection+0x1f6>
 8000c5c:	4b83      	ldr	r3, [pc, #524]	(8000e6c <SummerTimeCorrection+0x390>)
 8000c5e:	785b      	ldrb	r3, [r3, #1]
 8000c60:	2b18      	cmp	r3, #24
 8000c62:	d936      	bls.n	8000cd2 <SummerTimeCorrection+0x1f6>
 8000c64:	f04f 0319 	mov.w	r3, #25	; 0x19
 8000c68:	f88d 300b 	strb.w	r3, [sp, #11]
 8000c6c:	e02a      	b.n	8000cc4 <SummerTimeCorrection+0x1e8>
 8000c6e:	4b7f      	ldr	r3, [pc, #508]	(8000e6c <SummerTimeCorrection+0x390>)
 8000c70:	885b      	ldrh	r3, [r3, #2]
 8000c72:	4619      	mov	r1, r3
 8000c74:	4b7d      	ldr	r3, [pc, #500]	(8000e6c <SummerTimeCorrection+0x390>)
 8000c76:	781b      	ldrb	r3, [r3, #0]
 8000c78:	f89d 200b 	ldrb.w	r2, [sp, #11]
 8000c7c:	4608      	mov	r0, r1
 8000c7e:	4619      	mov	r1, r3
 8000c80:	f000 fb88 	bl	8001394 <WeekDay>
 8000c84:	4603      	mov	r3, r0
 8000c86:	2b00      	cmp	r3, #0
 8000c88:	d116      	bne.n	8000cb8 <SummerTimeCorrection+0x1dc>
 8000c8a:	4b78      	ldr	r3, [pc, #480]	(8000e6c <SummerTimeCorrection+0x390>)
 8000c8c:	785a      	ldrb	r2, [r3, #1]
 8000c8e:	f89d 300b 	ldrb.w	r3, [sp, #11]
 8000c92:	4293      	cmp	r3, r2
 8000c94:	d10b      	bne.n	8000cae <SummerTimeCorrection+0x1d2>
 8000c96:	f7ff fe4f 	bl	8000938 <get_sec_counter>
 8000c9a:	4602      	mov	r2, r0
 8000c9c:	f641 431e 	movw	r3, #7198	; 0x1c1e
 8000ca0:	429a      	cmp	r2, r3
 8000ca2:	d970      	bls.n	8000d86 <SummerTimeCorrection+0x2aa>
 8000ca4:	f04f 0301 	mov.w	r3, #1	; 0x1
 8000ca8:	f88d 300a 	strb.w	r3, [sp, #10]
 8000cac:	e06b      	b.n	8000d86 <SummerTimeCorrection+0x2aa>
 8000cae:	f04f 0301 	mov.w	r3, #1	; 0x1
 8000cb2:	f88d 300a 	strb.w	r3, [sp, #10]
 8000cb6:	e066      	b.n	8000d86 <SummerTimeCorrection+0x2aa>
 8000cb8:	f89d 300b 	ldrb.w	r3, [sp, #11]
 8000cbc:	f103 0301 	add.w	r3, r3, #1	; 0x1
 8000cc0:	f88d 300b 	strb.w	r3, [sp, #11]
 8000cc4:	4b69      	ldr	r3, [pc, #420]	(8000e6c <SummerTimeCorrection+0x390>)
 8000cc6:	785a      	ldrb	r2, [r3, #1]
 8000cc8:	f89d 300b 	ldrb.w	r3, [sp, #11]
 8000ccc:	4293      	cmp	r3, r2
 8000cce:	d9ce      	bls.n	8000c6e <SummerTimeCorrection+0x192>
 8000cd0:	e059      	b.n	8000d86 <SummerTimeCorrection+0x2aa>
 8000cd2:	4b66      	ldr	r3, [pc, #408]	(8000e6c <SummerTimeCorrection+0x390>)
 8000cd4:	781b      	ldrb	r3, [r3, #0]
 8000cd6:	2b03      	cmp	r3, #3
 8000cd8:	d908      	bls.n	8000cec <SummerTimeCorrection+0x210>
 8000cda:	4b64      	ldr	r3, [pc, #400]	(8000e6c <SummerTimeCorrection+0x390>)
 8000cdc:	781b      	ldrb	r3, [r3, #0]
 8000cde:	2b09      	cmp	r3, #9
 8000ce0:	d804      	bhi.n	8000cec <SummerTimeCorrection+0x210>
 8000ce2:	f04f 0301 	mov.w	r3, #1	; 0x1
 8000ce6:	f88d 300a 	strb.w	r3, [sp, #10]
 8000cea:	e04c      	b.n	8000d86 <SummerTimeCorrection+0x2aa>
 8000cec:	4b5f      	ldr	r3, [pc, #380]	(8000e6c <SummerTimeCorrection+0x390>)
 8000cee:	781b      	ldrb	r3, [r3, #0]
 8000cf0:	2b0a      	cmp	r3, #10
 8000cf2:	d148      	bne.n	8000d86 <SummerTimeCorrection+0x2aa>
 8000cf4:	4b5d      	ldr	r3, [pc, #372]	(8000e6c <SummerTimeCorrection+0x390>)
 8000cf6:	785b      	ldrb	r3, [r3, #1]
 8000cf8:	2b17      	cmp	r3, #23
 8000cfa:	d804      	bhi.n	8000d06 <SummerTimeCorrection+0x22a>
 8000cfc:	f04f 0301 	mov.w	r3, #1	; 0x1
 8000d00:	f88d 300a 	strb.w	r3, [sp, #10]
 8000d04:	e03f      	b.n	8000d86 <SummerTimeCorrection+0x2aa>
 8000d06:	f04f 0318 	mov.w	r3, #24	; 0x18
 8000d0a:	f88d 300b 	strb.w	r3, [sp, #11]
 8000d0e:	e034      	b.n	8000d7a <SummerTimeCorrection+0x29e>
 8000d10:	4b56      	ldr	r3, [pc, #344]	(8000e6c <SummerTimeCorrection+0x390>)
 8000d12:	885b      	ldrh	r3, [r3, #2]
 8000d14:	4619      	mov	r1, r3
 8000d16:	4b55      	ldr	r3, [pc, #340]	(8000e6c <SummerTimeCorrection+0x390>)
 8000d18:	781b      	ldrb	r3, [r3, #0]
 8000d1a:	f89d 200b 	ldrb.w	r2, [sp, #11]
 8000d1e:	4608      	mov	r0, r1
 8000d20:	4619      	mov	r1, r3
 8000d22:	f000 fb37 	bl	8001394 <WeekDay>
 8000d26:	4603      	mov	r3, r0
 8000d28:	2b00      	cmp	r3, #0
 8000d2a:	d120      	bne.n	8000d6e <SummerTimeCorrection+0x292>
 8000d2c:	4b4f      	ldr	r3, [pc, #316]	(8000e6c <SummerTimeCorrection+0x390>)
 8000d2e:	785a      	ldrb	r2, [r3, #1]
 8000d30:	f89d 300b 	ldrb.w	r3, [sp, #11]
 8000d34:	4293      	cmp	r3, r2
 8000d36:	d11a      	bne.n	8000d6e <SummerTimeCorrection+0x292>
 8000d38:	f7ff fdfe 	bl	8000938 <get_sec_counter>
 8000d3c:	4602      	mov	r2, r0
 8000d3e:	f641 431e 	movw	r3, #7198	; 0x1c1e
 8000d42:	429a      	cmp	r2, r3
 8000d44:	d80e      	bhi.n	8000d64 <SummerTimeCorrection+0x288>
 8000d46:	4b48      	ldr	r3, [pc, #288]	(8000e68 <SummerTimeCorrection+0x38c>)
 8000d48:	881b      	ldrh	r3, [r3, #0]
 8000d4a:	ea4f 4283 	mov.w	r2, r3, lsl #18
 8000d4e:	ea4f 4292 	mov.w	r2, r2, lsr #18
 8000d52:	4b46      	ldr	r3, [pc, #280]	(8000e6c <SummerTimeCorrection+0x390>)
 8000d54:	885b      	ldrh	r3, [r3, #2]
 8000d56:	429a      	cmp	r2, r3
 8000d58:	d004      	beq.n	8000d64 <SummerTimeCorrection+0x288>
 8000d5a:	f04f 0301 	mov.w	r3, #1	; 0x1
 8000d5e:	f88d 300a 	strb.w	r3, [sp, #10]
 8000d62:	e010      	b.n	8000d86 <SummerTimeCorrection+0x2aa>
 8000d64:	f04f 0300 	mov.w	r3, #0	; 0x0
 8000d68:	f88d 300a 	strb.w	r3, [sp, #10]
 8000d6c:	e00b      	b.n	8000d86 <SummerTimeCorrection+0x2aa>
 8000d6e:	f89d 300b 	ldrb.w	r3, [sp, #11]
 8000d72:	f103 0301 	add.w	r3, r3, #1	; 0x1
 8000d76:	f88d 300b 	strb.w	r3, [sp, #11]
 8000d7a:	4b3c      	ldr	r3, [pc, #240]	(8000e6c <SummerTimeCorrection+0x390>)
 8000d7c:	785a      	ldrb	r2, [r3, #1]
 8000d7e:	f89d 300b 	ldrb.w	r3, [sp, #11]
 8000d82:	4293      	cmp	r3, r2
 8000d84:	d9c4      	bls.n	8000d10 <SummerTimeCorrection+0x234>
 8000d86:	f89d 300a 	ldrb.w	r3, [sp, #10]
 8000d8a:	2b01      	cmp	r3, #1
 8000d8c:	d169      	bne.n	8000e62 <SummerTimeCorrection+0x386>
 8000d8e:	4b36      	ldr	r3, [pc, #216]	(8000e68 <SummerTimeCorrection+0x38c>)
 8000d90:	881b      	ldrh	r3, [r3, #0]
 8000d92:	f403 4380 	and.w	r3, r3, #16384	; 0x4000
 8000d96:	2b00      	cmp	r3, #0
 8000d98:	d030      	beq.n	8000dfc <SummerTimeCorrection+0x320>
 8000d9a:	f7ff fdcd 	bl	8000938 <get_sec_counter>
 8000d9e:	4603      	mov	r3, r0
 8000da0:	f5a3 6360 	sub.w	r3, r3, #3584	; 0xe00
 8000da4:	f1a3 030f 	sub.w	r3, r3, #15	; 0xf
 8000da8:	4618      	mov	r0, r3
 8000daa:	f7ff fdcb 	bl	8000944 <set_sec_counter>
 8000dae:	4b2e      	ldr	r3, [pc, #184]	(8000e68 <SummerTimeCorrection+0x38c>)
 8000db0:	881b      	ldrh	r3, [r3, #0]
 8000db2:	9300      	str	r3, [sp, #0]
 8000db4:	f64b 73ff 	movw	r3, #49151	; 0xbfff
 8000db8:	9900      	ldr	r1, [sp, #0]
 8000dba:	ea01 0303 	and.w	r3, r1, r3
 8000dbe:	9300      	str	r3, [sp, #0]
 8000dc0:	4a29      	ldr	r2, [pc, #164]	(8000e68 <SummerTimeCorrection+0x38c>)
 8000dc2:	9900      	ldr	r1, [sp, #0]
 8000dc4:	460b      	mov	r3, r1
 8000dc6:	8013      	strh	r3, [r2, #0]
 8000dc8:	4b27      	ldr	r3, [pc, #156]	(8000e68 <SummerTimeCorrection+0x38c>)
 8000dca:	881b      	ldrh	r3, [r3, #0]
 8000dcc:	ea6f 4343 	mvn.w	r3, r3, lsl #17
 8000dd0:	ea6f 4353 	mvn.w	r3, r3, lsr #17
 8000dd4:	b29b      	uxth	r3, r3
 8000dd6:	4a24      	ldr	r2, [pc, #144]	(8000e68 <SummerTimeCorrection+0x38c>)
 8000dd8:	8013      	strh	r3, [r2, #0]
 8000dda:	4b24      	ldr	r3, [pc, #144]	(8000e6c <SummerTimeCorrection+0x390>)
 8000ddc:	885a      	ldrh	r2, [r3, #2]
 8000dde:	4b22      	ldr	r3, [pc, #136]	(8000e68 <SummerTimeCorrection+0x38c>)
 8000de0:	881b      	ldrh	r3, [r3, #0]
 8000de2:	ea42 0303 	orr.w	r3, r2, r3
 8000de6:	b29b      	uxth	r3, r3
 8000de8:	4a1f      	ldr	r2, [pc, #124]	(8000e68 <SummerTimeCorrection+0x38c>)
 8000dea:	8013      	strh	r3, [r2, #0]
 8000dec:	4b1e      	ldr	r3, [pc, #120]	(8000e68 <SummerTimeCorrection+0x38c>)
 8000dee:	881b      	ldrh	r3, [r3, #0]
 8000df0:	f04f 001c 	mov.w	r0, #28	; 0x1c
 8000df4:	4619      	mov	r1, r3
 8000df6:	f002 fc81 	bl	80036fc <BKP_WriteBackupRegister>
 8000dfa:	e032      	b.n	8000e62 <SummerTimeCorrection+0x386>
 8000dfc:	4b1a      	ldr	r3, [pc, #104]	(8000e68 <SummerTimeCorrection+0x38c>)
 8000dfe:	881b      	ldrh	r3, [r3, #0]
 8000e00:	b21b      	sxth	r3, r3
 8000e02:	2b00      	cmp	r3, #0
 8000e04:	da2d      	bge.n	8000e62 <SummerTimeCorrection+0x386>
 8000e06:	f7ff fd97 	bl	8000938 <get_sec_counter>
 8000e0a:	4603      	mov	r3, r0
 8000e0c:	f503 6360 	add.w	r3, r3, #3584	; 0xe00
 8000e10:	f103 0311 	add.w	r3, r3, #17	; 0x11
 8000e14:	4618      	mov	r0, r3
 8000e16:	f7ff fd95 	bl	8000944 <set_sec_counter>
 8000e1a:	4b13      	ldr	r3, [pc, #76]	(8000e68 <SummerTimeCorrection+0x38c>)
 8000e1c:	881b      	ldrh	r3, [r3, #0]
 8000e1e:	9301      	str	r3, [sp, #4]
 8000e20:	9a01      	ldr	r2, [sp, #4]
 8000e22:	ea4f 4342 	mov.w	r3, r2, lsl #17
 8000e26:	ea4f 4353 	mov.w	r3, r3, lsr #17
 8000e2a:	9301      	str	r3, [sp, #4]
 8000e2c:	4a0e      	ldr	r2, [pc, #56]	(8000e68 <SummerTimeCorrection+0x38c>)
 8000e2e:	9901      	ldr	r1, [sp, #4]
 8000e30:	460b      	mov	r3, r1
 8000e32:	8013      	strh	r3, [r2, #0]
 8000e34:	4b0c      	ldr	r3, [pc, #48]	(8000e68 <SummerTimeCorrection+0x38c>)
 8000e36:	881b      	ldrh	r3, [r3, #0]
 8000e38:	f443 4380 	orr.w	r3, r3, #16384	; 0x4000
 8000e3c:	b29b      	uxth	r3, r3
 8000e3e:	4a0a      	ldr	r2, [pc, #40]	(8000e68 <SummerTimeCorrection+0x38c>)
 8000e40:	8013      	strh	r3, [r2, #0]
 8000e42:	4b0a      	ldr	r3, [pc, #40]	(8000e6c <SummerTimeCorrection+0x390>)
 8000e44:	885a      	ldrh	r2, [r3, #2]
 8000e46:	4b08      	ldr	r3, [pc, #32]	(8000e68 <SummerTimeCorrection+0x38c>)
 8000e48:	881b      	ldrh	r3, [r3, #0]
 8000e4a:	ea42 0303 	orr.w	r3, r2, r3
 8000e4e:	b29b      	uxth	r3, r3
 8000e50:	4a05      	ldr	r2, [pc, #20]	(8000e68 <SummerTimeCorrection+0x38c>)
 8000e52:	8013      	strh	r3, [r2, #0]
 8000e54:	4b04      	ldr	r3, [pc, #16]	(8000e68 <SummerTimeCorrection+0x38c>)
 8000e56:	881b      	ldrh	r3, [r3, #0]
 8000e58:	f04f 001c 	mov.w	r0, #28	; 0x1c
 8000e5c:	4619      	mov	r1, r3
 8000e5e:	f002 fc4d 	bl	80036fc <BKP_WriteBackupRegister>
 8000e62:	b003      	add	sp, #12
 8000e64:	bd00      	pop	{pc}
 8000e66:	46c0      	nop			(mov r8, r8)
 8000e68:	200000f4 	.word	0x200000f4
 8000e6c:	200000e4 	.word	0x200000e4

08000e70 <rtc_Init>:
 8000e70:	4a02      	ldr	r2, [pc, #8]	(8000e7c <rtc_Init+0xc>)
 8000e72:	f04f 0300 	mov.w	r3, #0	; 0x0
 8000e76:	6013      	str	r3, [r2, #0]
 8000e78:	4770      	bx	lr
 8000e7a:	46c0      	nop			(mov r8, r8)
 8000e7c:	200000dc 	.word	0x200000dc

08000e80 <SetTime>:
 8000e80:	b500      	push	{lr}
 8000e82:	b085      	sub	sp, #20
 8000e84:	9003      	str	r0, [sp, #12]
 8000e86:	4618      	mov	r0, r3
 8000e88:	460b      	mov	r3, r1
 8000e8a:	f88d 3008 	strb.w	r3, [sp, #8]
 8000e8e:	4613      	mov	r3, r2
 8000e90:	f88d 3004 	strb.w	r3, [sp, #4]
 8000e94:	4603      	mov	r3, r0
 8000e96:	f88d 3000 	strb.w	r3, [sp]
 8000e9a:	f89d 3008 	ldrb.w	r3, [sp, #8]
 8000e9e:	2b17      	cmp	r3, #23
 8000ea0:	d807      	bhi.n	8000eb2 <SetTime+0x32>
 8000ea2:	f89d 3004 	ldrb.w	r3, [sp, #4]
 8000ea6:	2b3b      	cmp	r3, #59
 8000ea8:	d803      	bhi.n	8000eb2 <SetTime+0x32>
 8000eaa:	f89d 3000 	ldrb.w	r3, [sp]
 8000eae:	2b38      	cmp	r3, #56
 8000eb0:	d903      	bls.n	8000eba <SetTime+0x3a>
 8000eb2:	481b      	ldr	r0, [pc, #108]	(8000f20 <SetTime+0xa0>)
 8000eb4:	f7ff fba0 	bl	80005f8 <puts>
 8000eb8:	e030      	b.n	8000f1c <SetTime+0x9c>
 8000eba:	f89d 3008 	ldrb.w	r3, [sp, #8]
 8000ebe:	ea4f 1203 	mov.w	r2, r3, lsl #4
 8000ec2:	ea4f 1302 	mov.w	r3, r2, lsl #4
 8000ec6:	ebc2 0303 	rsb	r3, r2, r3
 8000eca:	ea4f 1203 	mov.w	r2, r3, lsl #4
 8000ece:	ebc3 0102 	rsb	r1, r3, r2
 8000ed2:	f89d 3004 	ldrb.w	r3, [sp, #4]
 8000ed6:	ea4f 0283 	mov.w	r2, r3, lsl #2
 8000eda:	ea4f 1302 	mov.w	r3, r2, lsl #4
 8000ede:	ebc2 0303 	rsb	r3, r2, r3
 8000ee2:	eb01 0203 	add.w	r2, r1, r3
 8000ee6:	f89d 3000 	ldrb.w	r3, [sp]
 8000eea:	4413      	add	r3, r2
 8000eec:	9304      	str	r3, [sp, #16]
 8000eee:	9b03      	ldr	r3, [sp, #12]
 8000ef0:	2b00      	cmp	r3, #0
 8000ef2:	d103      	bne.n	8000efc <SetTime+0x7c>
 8000ef4:	9804      	ldr	r0, [sp, #16]
 8000ef6:	f7ff fd25 	bl	8000944 <set_sec_counter>
 8000efa:	e00f      	b.n	8000f1c <SetTime+0x9c>
 8000efc:	9b04      	ldr	r3, [sp, #16]
 8000efe:	ea4f 4313 	mov.w	r3, r3, lsr #16
 8000f02:	b29b      	uxth	r3, r3
 8000f04:	f04f 0040 	mov.w	r0, #64	; 0x40
 8000f08:	4619      	mov	r1, r3
 8000f0a:	f002 fbf7 	bl	80036fc <BKP_WriteBackupRegister>
 8000f0e:	9b04      	ldr	r3, [sp, #16]
 8000f10:	b29b      	uxth	r3, r3
 8000f12:	f04f 0044 	mov.w	r0, #68	; 0x44
 8000f16:	4619      	mov	r1, r3
 8000f18:	f002 fbf0 	bl	80036fc <BKP_WriteBackupRegister>
 8000f1c:	b005      	add	sp, #20
 8000f1e:	bd00      	pop	{pc}
 8000f20:	080092c0 	.word	0x080092c0

08000f24 <SetDate>:
 8000f24:	b500      	push	{lr}
 8000f26:	b084      	sub	sp, #16
 8000f28:	9003      	str	r0, [sp, #12]
 8000f2a:	4618      	mov	r0, r3
 8000f2c:	460b      	mov	r3, r1
 8000f2e:	f88d 3008 	strb.w	r3, [sp, #8]
 8000f32:	4613      	mov	r3, r2
 8000f34:	f88d 3004 	strb.w	r3, [sp, #4]
 8000f38:	4603      	mov	r3, r0
 8000f3a:	f8ad 3000 	strh.w	r3, [sp]
 8000f3e:	f89d 3004 	ldrb.w	r3, [sp, #4]
 8000f42:	2b04      	cmp	r3, #4
 8000f44:	d00b      	beq.n	8000f5e <SetDate+0x3a>
 8000f46:	f89d 3004 	ldrb.w	r3, [sp, #4]
 8000f4a:	2b06      	cmp	r3, #6
 8000f4c:	d007      	beq.n	8000f5e <SetDate+0x3a>
 8000f4e:	f89d 3004 	ldrb.w	r3, [sp, #4]
 8000f52:	2b09      	cmp	r3, #9
 8000f54:	d003      	beq.n	8000f5e <SetDate+0x3a>
 8000f56:	f89d 3004 	ldrb.w	r3, [sp, #4]
 8000f5a:	2b0b      	cmp	r3, #11
 8000f5c:	d103      	bne.n	8000f66 <SetDate+0x42>
 8000f5e:	f89d 3008 	ldrb.w	r3, [sp, #8]
 8000f62:	2b1f      	cmp	r3, #31
 8000f64:	d017      	beq.n	8000f96 <SetDate+0x72>
 8000f66:	f89d 3004 	ldrb.w	r3, [sp, #4]
 8000f6a:	2b02      	cmp	r3, #2
 8000f6c:	d103      	bne.n	8000f76 <SetDate+0x52>
 8000f6e:	f89d 3008 	ldrb.w	r3, [sp, #8]
 8000f72:	2b1d      	cmp	r3, #29
 8000f74:	d80f      	bhi.n	8000f96 <SetDate+0x72>
 8000f76:	f89d 3004 	ldrb.w	r3, [sp, #4]
 8000f7a:	2b02      	cmp	r3, #2
 8000f7c:	d10f      	bne.n	8000f9e <SetDate+0x7a>
 8000f7e:	f89d 3008 	ldrb.w	r3, [sp, #8]
 8000f82:	2b1d      	cmp	r3, #29
 8000f84:	d10b      	bne.n	8000f9e <SetDate+0x7a>
 8000f86:	f8bd 3000 	ldrh.w	r3, [sp]
 8000f8a:	4618      	mov	r0, r3
 8000f8c:	f000 f9ba 	bl	8001304 <CheckLeap>
 8000f90:	4603      	mov	r3, r0
 8000f92:	2b00      	cmp	r3, #0
 8000f94:	d103      	bne.n	8000f9e <SetDate+0x7a>
 8000f96:	4827      	ldr	r0, [pc, #156]	(8001034 <SetDate+0x110>)
 8000f98:	f7ff fb2e 	bl	80005f8 <puts>
 8000f9c:	e047      	b.n	800102e <SetDate+0x10a>
 8000f9e:	9b03      	ldr	r3, [sp, #12]
 8000fa0:	2b00      	cmp	r3, #0
 8000fa2:	d121      	bne.n	8000fe8 <SetDate+0xc4>
 8000fa4:	4a24      	ldr	r2, [pc, #144]	(8001038 <SetDate+0x114>)
 8000fa6:	f8bd 3000 	ldrh.w	r3, [sp]
 8000faa:	8053      	strh	r3, [r2, #2]
 8000fac:	4a22      	ldr	r2, [pc, #136]	(8001038 <SetDate+0x114>)
 8000fae:	f89d 3004 	ldrb.w	r3, [sp, #4]
 8000fb2:	7013      	strb	r3, [r2, #0]
 8000fb4:	4a20      	ldr	r2, [pc, #128]	(8001038 <SetDate+0x114>)
 8000fb6:	f89d 3008 	ldrb.w	r3, [sp, #8]
 8000fba:	7053      	strb	r3, [r2, #1]
 8000fbc:	f89d 3004 	ldrb.w	r3, [sp, #4]
 8000fc0:	f04f 0008 	mov.w	r0, #8	; 0x8
 8000fc4:	4619      	mov	r1, r3
 8000fc6:	f002 fb99 	bl	80036fc <BKP_WriteBackupRegister>
 8000fca:	f89d 3008 	ldrb.w	r3, [sp, #8]
 8000fce:	f04f 000c 	mov.w	r0, #12	; 0xc
 8000fd2:	4619      	mov	r1, r3
 8000fd4:	f002 fb92 	bl	80036fc <BKP_WriteBackupRegister>
 8000fd8:	f8bd 3000 	ldrh.w	r3, [sp]
 8000fdc:	f04f 0010 	mov.w	r0, #16	; 0x10
 8000fe0:	4619      	mov	r1, r3
 8000fe2:	f002 fb8b 	bl	80036fc <BKP_WriteBackupRegister>
 8000fe6:	e022      	b.n	800102e <SetDate+0x10a>
 8000fe8:	4a14      	ldr	r2, [pc, #80]	(800103c <SetDate+0x118>)
 8000fea:	f8bd 3000 	ldrh.w	r3, [sp]
 8000fee:	8053      	strh	r3, [r2, #2]
 8000ff0:	4a12      	ldr	r2, [pc, #72]	(800103c <SetDate+0x118>)
 8000ff2:	f89d 3004 	ldrb.w	r3, [sp, #4]
 8000ff6:	7013      	strb	r3, [r2, #0]
 8000ff8:	4a10      	ldr	r2, [pc, #64]	(800103c <SetDate+0x118>)
 8000ffa:	f89d 3008 	ldrb.w	r3, [sp, #8]
 8000ffe:	7053      	strb	r3, [r2, #1]
 8001000:	f89d 3004 	ldrb.w	r3, [sp, #4]
 8001004:	f04f 0020 	mov.w	r0, #32	; 0x20
 8001008:	4619      	mov	r1, r3
 800100a:	f002 fb77 	bl	80036fc <BKP_WriteBackupRegister>
 800100e:	f89d 3008 	ldrb.w	r3, [sp, #8]
 8001012:	f04f 0024 	mov.w	r0, #36	; 0x24
 8001016:	4619      	mov	r1, r3
 8001018:	f002 fb70 	bl	80036fc <BKP_WriteBackupRegister>
 800101c:	f8bd 3000 	ldrh.w	r3, [sp]
 8001020:	f04f 0028 	mov.w	r0, #40	; 0x28
 8001024:	4619      	mov	r1, r3
 8001026:	f002 fb69 	bl	80036fc <BKP_WriteBackupRegister>
 800102a:	f7ff fd57 	bl	8000adc <SummerTimeCorrection>
 800102e:	b004      	add	sp, #16
 8001030:	bd00      	pop	{pc}
 8001032:	46c0      	nop			(mov r8, r8)
 8001034:	080092d4 	.word	0x080092d4
 8001038:	200000e4 	.word	0x200000e4
 800103c:	200000ec 	.word	0x200000ec

08001040 <check_alarm>:
 8001040:	b510      	push	{r4, lr}
 8001042:	f04f 0028 	mov.w	r0, #40	; 0x28
 8001046:	f002 fb6d 	bl	8003724 <BKP_ReadBackupRegister>
 800104a:	4603      	mov	r3, r0
 800104c:	461c      	mov	r4, r3
 800104e:	f04f 0010 	mov.w	r0, #16	; 0x10
 8001052:	f002 fb67 	bl	8003724 <BKP_ReadBackupRegister>
 8001056:	4603      	mov	r3, r0
 8001058:	429c      	cmp	r4, r3
 800105a:	d130      	bne.n	80010be <check_alarm+0x7e>
 800105c:	f04f 0024 	mov.w	r0, #36	; 0x24
 8001060:	f002 fb60 	bl	8003724 <BKP_ReadBackupRegister>
 8001064:	4603      	mov	r3, r0
 8001066:	461c      	mov	r4, r3
 8001068:	f04f 000c 	mov.w	r0, #12	; 0xc
 800106c:	f002 fb5a 	bl	8003724 <BKP_ReadBackupRegister>
 8001070:	4603      	mov	r3, r0
 8001072:	429c      	cmp	r4, r3
 8001074:	d123      	bne.n	80010be <check_alarm+0x7e>
 8001076:	f04f 0020 	mov.w	r0, #32	; 0x20
 800107a:	f002 fb53 	bl	8003724 <BKP_ReadBackupRegister>
 800107e:	4603      	mov	r3, r0
 8001080:	461c      	mov	r4, r3
 8001082:	f04f 0008 	mov.w	r0, #8	; 0x8
 8001086:	f002 fb4d 	bl	8003724 <BKP_ReadBackupRegister>
 800108a:	4603      	mov	r3, r0
 800108c:	429c      	cmp	r4, r3
 800108e:	d116      	bne.n	80010be <check_alarm+0x7e>
 8001090:	f04f 0040 	mov.w	r0, #64	; 0x40
 8001094:	f002 fb46 	bl	8003724 <BKP_ReadBackupRegister>
 8001098:	4603      	mov	r3, r0
 800109a:	ea4f 4403 	mov.w	r4, r3, lsl #16
 800109e:	f04f 0044 	mov.w	r0, #68	; 0x44
 80010a2:	f002 fb3f 	bl	8003724 <BKP_ReadBackupRegister>
 80010a6:	4603      	mov	r3, r0
 80010a8:	ea44 0403 	orr.w	r4, r4, r3
 80010ac:	f7ff fc44 	bl	8000938 <get_sec_counter>
 80010b0:	4603      	mov	r3, r0
 80010b2:	429c      	cmp	r4, r3
 80010b4:	d103      	bne.n	80010be <check_alarm+0x7e>
 80010b6:	4a02      	ldr	r2, [pc, #8]	(80010c0 <check_alarm+0x80>)
 80010b8:	f04f 0302 	mov.w	r3, #2	; 0x2
 80010bc:	6013      	str	r3, [r2, #0]
 80010be:	bd10      	pop	{r4, pc}
 80010c0:	200000dc 	.word	0x200000dc

080010c4 <alarm_Mgmt>:
 80010c4:	b500      	push	{lr}
 80010c6:	b081      	sub	sp, #4
 80010c8:	f7ff ffba 	bl	8001040 <check_alarm>
 80010cc:	4b1a      	ldr	r3, [pc, #104]	(8001138 <alarm_Mgmt+0x74>)
 80010ce:	681b      	ldr	r3, [r3, #0]
 80010d0:	2b00      	cmp	r3, #0
 80010d2:	d02e      	beq.n	8001132 <alarm_Mgmt+0x6e>
 80010d4:	4b18      	ldr	r3, [pc, #96]	(8001138 <alarm_Mgmt+0x74>)
 80010d6:	681b      	ldr	r3, [r3, #0]
 80010d8:	9300      	str	r3, [sp, #0]
 80010da:	9b00      	ldr	r3, [sp, #0]
 80010dc:	2b02      	cmp	r3, #2
 80010de:	d003      	beq.n	80010e8 <alarm_Mgmt+0x24>
 80010e0:	9b00      	ldr	r3, [sp, #0]
 80010e2:	2b03      	cmp	r3, #3
 80010e4:	d00f      	beq.n	8001106 <alarm_Mgmt+0x42>
 80010e6:	e024      	b.n	8001132 <alarm_Mgmt+0x6e>
 80010e8:	4814      	ldr	r0, [pc, #80]	(800113c <alarm_Mgmt+0x78>)
 80010ea:	f04f 0140 	mov.w	r1, #64	; 0x40
 80010ee:	f003 f9b5 	bl	800445c <GPIO_SetBits>
 80010f2:	f7ff fc21 	bl	8000938 <get_sec_counter>
 80010f6:	4602      	mov	r2, r0
 80010f8:	4b11      	ldr	r3, [pc, #68]	(8001140 <alarm_Mgmt+0x7c>)
 80010fa:	601a      	str	r2, [r3, #0]
 80010fc:	4a0e      	ldr	r2, [pc, #56]	(8001138 <alarm_Mgmt+0x74>)
 80010fe:	f04f 0303 	mov.w	r3, #3	; 0x3
 8001102:	6013      	str	r3, [r2, #0]
 8001104:	e015      	b.n	8001132 <alarm_Mgmt+0x6e>
 8001106:	f7ff fc17 	bl	8000938 <get_sec_counter>
 800110a:	4602      	mov	r2, r0
 800110c:	4b0c      	ldr	r3, [pc, #48]	(8001140 <alarm_Mgmt+0x7c>)
 800110e:	681b      	ldr	r3, [r3, #0]
 8001110:	ebc3 0302 	rsb	r3, r3, r2
 8001114:	2b04      	cmp	r3, #4
 8001116:	d10c      	bne.n	8001132 <alarm_Mgmt+0x6e>
 8001118:	4808      	ldr	r0, [pc, #32]	(800113c <alarm_Mgmt+0x78>)
 800111a:	f04f 0140 	mov.w	r1, #64	; 0x40
 800111e:	f003 f9a9 	bl	8004474 <GPIO_ResetBits>
 8001122:	4a07      	ldr	r2, [pc, #28]	(8001140 <alarm_Mgmt+0x7c>)
 8001124:	f04f 0300 	mov.w	r3, #0	; 0x0
 8001128:	6013      	str	r3, [r2, #0]
 800112a:	4a03      	ldr	r2, [pc, #12]	(8001138 <alarm_Mgmt+0x74>)
 800112c:	f04f 0301 	mov.w	r3, #1	; 0x1
 8001130:	6013      	str	r3, [r2, #0]
 8001132:	b001      	add	sp, #4
 8001134:	bd00      	pop	{pc}
 8001136:	46c0      	nop			(mov r8, r8)
 8001138:	200000dc 	.word	0x200000dc
 800113c:	40011000 	.word	0x40011000
 8001140:	200000e0 	.word	0x200000e0

08001144 <DateUpdate>:
 8001144:	b500      	push	{lr}
 8001146:	f04f 0008 	mov.w	r0, #8	; 0x8
 800114a:	f002 faeb 	bl	8003724 <BKP_ReadBackupRegister>
 800114e:	4603      	mov	r3, r0
 8001150:	b2db      	uxtb	r3, r3
 8001152:	4a6b      	ldr	r2, [pc, #428]	(8001300 <DateUpdate+0x1bc>)
 8001154:	7013      	strb	r3, [r2, #0]
 8001156:	f04f 0010 	mov.w	r0, #16	; 0x10
 800115a:	f002 fae3 	bl	8003724 <BKP_ReadBackupRegister>
 800115e:	4603      	mov	r3, r0
 8001160:	4a67      	ldr	r2, [pc, #412]	(8001300 <DateUpdate+0x1bc>)
 8001162:	8053      	strh	r3, [r2, #2]
 8001164:	f04f 000c 	mov.w	r0, #12	; 0xc
 8001168:	f002 fadc 	bl	8003724 <BKP_ReadBackupRegister>
 800116c:	4603      	mov	r3, r0
 800116e:	b2db      	uxtb	r3, r3
 8001170:	4a63      	ldr	r2, [pc, #396]	(8001300 <DateUpdate+0x1bc>)
 8001172:	7053      	strb	r3, [r2, #1]
 8001174:	4b62      	ldr	r3, [pc, #392]	(8001300 <DateUpdate+0x1bc>)
 8001176:	781b      	ldrb	r3, [r3, #0]
 8001178:	2b01      	cmp	r3, #1
 800117a:	d017      	beq.n	80011ac <DateUpdate+0x68>
 800117c:	4b60      	ldr	r3, [pc, #384]	(8001300 <DateUpdate+0x1bc>)
 800117e:	781b      	ldrb	r3, [r3, #0]
 8001180:	2b03      	cmp	r3, #3
 8001182:	d013      	beq.n	80011ac <DateUpdate+0x68>
 8001184:	4b5e      	ldr	r3, [pc, #376]	(8001300 <DateUpdate+0x1bc>)
 8001186:	781b      	ldrb	r3, [r3, #0]
 8001188:	2b05      	cmp	r3, #5
 800118a:	d00f      	beq.n	80011ac <DateUpdate+0x68>
 800118c:	4b5c      	ldr	r3, [pc, #368]	(8001300 <DateUpdate+0x1bc>)
 800118e:	781b      	ldrb	r3, [r3, #0]
 8001190:	2b07      	cmp	r3, #7
 8001192:	d00b      	beq.n	80011ac <DateUpdate+0x68>
 8001194:	4b5a      	ldr	r3, [pc, #360]	(8001300 <DateUpdate+0x1bc>)
 8001196:	781b      	ldrb	r3, [r3, #0]
 8001198:	2b08      	cmp	r3, #8
 800119a:	d007      	beq.n	80011ac <DateUpdate+0x68>
 800119c:	4b58      	ldr	r3, [pc, #352]	(8001300 <DateUpdate+0x1bc>)
 800119e:	781b      	ldrb	r3, [r3, #0]
 80011a0:	2b0a      	cmp	r3, #10
 80011a2:	d003      	beq.n	80011ac <DateUpdate+0x68>
 80011a4:	4b56      	ldr	r3, [pc, #344]	(8001300 <DateUpdate+0x1bc>)
 80011a6:	781b      	ldrb	r3, [r3, #0]
 80011a8:	2b0c      	cmp	r3, #12
 80011aa:	d12b      	bne.n	8001204 <DateUpdate+0xc0>
 80011ac:	4b54      	ldr	r3, [pc, #336]	(8001300 <DateUpdate+0x1bc>)
 80011ae:	785b      	ldrb	r3, [r3, #1]
 80011b0:	2b1e      	cmp	r3, #30
 80011b2:	d807      	bhi.n	80011c4 <DateUpdate+0x80>
 80011b4:	4b52      	ldr	r3, [pc, #328]	(8001300 <DateUpdate+0x1bc>)
 80011b6:	785b      	ldrb	r3, [r3, #1]
 80011b8:	f103 0301 	add.w	r3, r3, #1	; 0x1
 80011bc:	b2db      	uxtb	r3, r3
 80011be:	4a50      	ldr	r2, [pc, #320]	(8001300 <DateUpdate+0x1bc>)
 80011c0:	7053      	strb	r3, [r2, #1]
 80011c2:	e086      	b.n	80012d2 <DateUpdate+0x18e>
 80011c4:	4b4e      	ldr	r3, [pc, #312]	(8001300 <DateUpdate+0x1bc>)
 80011c6:	781b      	ldrb	r3, [r3, #0]
 80011c8:	2b0c      	cmp	r3, #12
 80011ca:	d00b      	beq.n	80011e4 <DateUpdate+0xa0>
 80011cc:	4b4c      	ldr	r3, [pc, #304]	(8001300 <DateUpdate+0x1bc>)
 80011ce:	781b      	ldrb	r3, [r3, #0]
 80011d0:	f103 0301 	add.w	r3, r3, #1	; 0x1
 80011d4:	b2db      	uxtb	r3, r3
 80011d6:	4a4a      	ldr	r2, [pc, #296]	(8001300 <DateUpdate+0x1bc>)
 80011d8:	7013      	strb	r3, [r2, #0]
 80011da:	4a49      	ldr	r2, [pc, #292]	(8001300 <DateUpdate+0x1bc>)
 80011dc:	f04f 0301 	mov.w	r3, #1	; 0x1
 80011e0:	7053      	strb	r3, [r2, #1]
 80011e2:	e076      	b.n	80012d2 <DateUpdate+0x18e>
 80011e4:	4a46      	ldr	r2, [pc, #280]	(8001300 <DateUpdate+0x1bc>)
 80011e6:	f04f 0301 	mov.w	r3, #1	; 0x1
 80011ea:	7013      	strb	r3, [r2, #0]
 80011ec:	4a44      	ldr	r2, [pc, #272]	(8001300 <DateUpdate+0x1bc>)
 80011ee:	f04f 0301 	mov.w	r3, #1	; 0x1
 80011f2:	7053      	strb	r3, [r2, #1]
 80011f4:	4b42      	ldr	r3, [pc, #264]	(8001300 <DateUpdate+0x1bc>)
 80011f6:	885b      	ldrh	r3, [r3, #2]
 80011f8:	f103 0301 	add.w	r3, r3, #1	; 0x1
 80011fc:	b29b      	uxth	r3, r3
 80011fe:	4a40      	ldr	r2, [pc, #256]	(8001300 <DateUpdate+0x1bc>)
 8001200:	8053      	strh	r3, [r2, #2]
 8001202:	e066      	b.n	80012d2 <DateUpdate+0x18e>
 8001204:	4b3e      	ldr	r3, [pc, #248]	(8001300 <DateUpdate+0x1bc>)
 8001206:	781b      	ldrb	r3, [r3, #0]
 8001208:	2b04      	cmp	r3, #4
 800120a:	d00b      	beq.n	8001224 <DateUpdate+0xe0>
 800120c:	4b3c      	ldr	r3, [pc, #240]	(8001300 <DateUpdate+0x1bc>)
 800120e:	781b      	ldrb	r3, [r3, #0]
 8001210:	2b06      	cmp	r3, #6
 8001212:	d007      	beq.n	8001224 <DateUpdate+0xe0>
 8001214:	4b3a      	ldr	r3, [pc, #232]	(8001300 <DateUpdate+0x1bc>)
 8001216:	781b      	ldrb	r3, [r3, #0]
 8001218:	2b09      	cmp	r3, #9
 800121a:	d003      	beq.n	8001224 <DateUpdate+0xe0>
 800121c:	4b38      	ldr	r3, [pc, #224]	(8001300 <DateUpdate+0x1bc>)
 800121e:	781b      	ldrb	r3, [r3, #0]
 8001220:	2b0b      	cmp	r3, #11
 8001222:	d117      	bne.n	8001254 <DateUpdate+0x110>
 8001224:	4b36      	ldr	r3, [pc, #216]	(8001300 <DateUpdate+0x1bc>)
 8001226:	785b      	ldrb	r3, [r3, #1]
 8001228:	2b1d      	cmp	r3, #29
 800122a:	d807      	bhi.n	800123c <DateUpdate+0xf8>
 800122c:	4b34      	ldr	r3, [pc, #208]	(8001300 <DateUpdate+0x1bc>)
 800122e:	785b      	ldrb	r3, [r3, #1]
 8001230:	f103 0301 	add.w	r3, r3, #1	; 0x1
 8001234:	b2db      	uxtb	r3, r3
 8001236:	4a32      	ldr	r2, [pc, #200]	(8001300 <DateUpdate+0x1bc>)
 8001238:	7053      	strb	r3, [r2, #1]
 800123a:	e04a      	b.n	80012d2 <DateUpdate+0x18e>
 800123c:	4b30      	ldr	r3, [pc, #192]	(8001300 <DateUpdate+0x1bc>)
 800123e:	781b      	ldrb	r3, [r3, #0]
 8001240:	f103 0301 	add.w	r3, r3, #1	; 0x1
 8001244:	b2db      	uxtb	r3, r3
 8001246:	4a2e      	ldr	r2, [pc, #184]	(8001300 <DateUpdate+0x1bc>)
 8001248:	7013      	strb	r3, [r2, #0]
 800124a:	4a2d      	ldr	r2, [pc, #180]	(8001300 <DateUpdate+0x1bc>)
 800124c:	f04f 0301 	mov.w	r3, #1	; 0x1
 8001250:	7053      	strb	r3, [r2, #1]
 8001252:	e03e      	b.n	80012d2 <DateUpdate+0x18e>
 8001254:	4b2a      	ldr	r3, [pc, #168]	(8001300 <DateUpdate+0x1bc>)
 8001256:	781b      	ldrb	r3, [r3, #0]
 8001258:	2b02      	cmp	r3, #2
 800125a:	d13a      	bne.n	80012d2 <DateUpdate+0x18e>
 800125c:	4b28      	ldr	r3, [pc, #160]	(8001300 <DateUpdate+0x1bc>)
 800125e:	785b      	ldrb	r3, [r3, #1]
 8001260:	2b1b      	cmp	r3, #27
 8001262:	d807      	bhi.n	8001274 <DateUpdate+0x130>
 8001264:	4b26      	ldr	r3, [pc, #152]	(8001300 <DateUpdate+0x1bc>)
 8001266:	785b      	ldrb	r3, [r3, #1]
 8001268:	f103 0301 	add.w	r3, r3, #1	; 0x1
 800126c:	b2db      	uxtb	r3, r3
 800126e:	4a24      	ldr	r2, [pc, #144]	(8001300 <DateUpdate+0x1bc>)
 8001270:	7053      	strb	r3, [r2, #1]
 8001272:	e02e      	b.n	80012d2 <DateUpdate+0x18e>
 8001274:	4b22      	ldr	r3, [pc, #136]	(8001300 <DateUpdate+0x1bc>)
 8001276:	785b      	ldrb	r3, [r3, #1]
 8001278:	2b1c      	cmp	r3, #28
 800127a:	d11b      	bne.n	80012b4 <DateUpdate+0x170>
 800127c:	4b20      	ldr	r3, [pc, #128]	(8001300 <DateUpdate+0x1bc>)
 800127e:	885b      	ldrh	r3, [r3, #2]
 8001280:	4618      	mov	r0, r3
 8001282:	f000 f83f 	bl	8001304 <CheckLeap>
 8001286:	4603      	mov	r3, r0
 8001288:	2b00      	cmp	r3, #0
 800128a:	d007      	beq.n	800129c <DateUpdate+0x158>
 800128c:	4b1c      	ldr	r3, [pc, #112]	(8001300 <DateUpdate+0x1bc>)
 800128e:	785b      	ldrb	r3, [r3, #1]
 8001290:	f103 0301 	add.w	r3, r3, #1	; 0x1
 8001294:	b2db      	uxtb	r3, r3
 8001296:	4a1a      	ldr	r2, [pc, #104]	(8001300 <DateUpdate+0x1bc>)
 8001298:	7053      	strb	r3, [r2, #1]
 800129a:	e01a      	b.n	80012d2 <DateUpdate+0x18e>
 800129c:	4b18      	ldr	r3, [pc, #96]	(8001300 <DateUpdate+0x1bc>)
 800129e:	781b      	ldrb	r3, [r3, #0]
 80012a0:	f103 0301 	add.w	r3, r3, #1	; 0x1
 80012a4:	b2db      	uxtb	r3, r3
 80012a6:	4a16      	ldr	r2, [pc, #88]	(8001300 <DateUpdate+0x1bc>)
 80012a8:	7013      	strb	r3, [r2, #0]
 80012aa:	4a15      	ldr	r2, [pc, #84]	(8001300 <DateUpdate+0x1bc>)
 80012ac:	f04f 0301 	mov.w	r3, #1	; 0x1
 80012b0:	7053      	strb	r3, [r2, #1]
 80012b2:	e00e      	b.n	80012d2 <DateUpdate+0x18e>
 80012b4:	4b12      	ldr	r3, [pc, #72]	(8001300 <DateUpdate+0x1bc>)
 80012b6:	785b      	ldrb	r3, [r3, #1]
 80012b8:	2b1d      	cmp	r3, #29
 80012ba:	d10a      	bne.n	80012d2 <DateUpdate+0x18e>
 80012bc:	4b10      	ldr	r3, [pc, #64]	(8001300 <DateUpdate+0x1bc>)
 80012be:	781b      	ldrb	r3, [r3, #0]
 80012c0:	f103 0301 	add.w	r3, r3, #1	; 0x1
 80012c4:	b2db      	uxtb	r3, r3
 80012c6:	4a0e      	ldr	r2, [pc, #56]	(8001300 <DateUpdate+0x1bc>)
 80012c8:	7013      	strb	r3, [r2, #0]
 80012ca:	4a0d      	ldr	r2, [pc, #52]	(8001300 <DateUpdate+0x1bc>)
 80012cc:	f04f 0301 	mov.w	r3, #1	; 0x1
 80012d0:	7053      	strb	r3, [r2, #1]
 80012d2:	4b0b      	ldr	r3, [pc, #44]	(8001300 <DateUpdate+0x1bc>)
 80012d4:	781b      	ldrb	r3, [r3, #0]
 80012d6:	f04f 0008 	mov.w	r0, #8	; 0x8
 80012da:	4619      	mov	r1, r3
 80012dc:	f002 fa0e 	bl	80036fc <BKP_WriteBackupRegister>
 80012e0:	4b07      	ldr	r3, [pc, #28]	(8001300 <DateUpdate+0x1bc>)
 80012e2:	785b      	ldrb	r3, [r3, #1]
 80012e4:	f04f 000c 	mov.w	r0, #12	; 0xc
 80012e8:	4619      	mov	r1, r3
 80012ea:	f002 fa07 	bl	80036fc <BKP_WriteBackupRegister>
 80012ee:	4b04      	ldr	r3, [pc, #16]	(8001300 <DateUpdate+0x1bc>)
 80012f0:	885b      	ldrh	r3, [r3, #2]
 80012f2:	f04f 0010 	mov.w	r0, #16	; 0x10
 80012f6:	4619      	mov	r1, r3
 80012f8:	f002 fa00 	bl	80036fc <BKP_WriteBackupRegister>
 80012fc:	bd00      	pop	{pc}
 80012fe:	46c0      	nop			(mov r8, r8)
 8001300:	200000e4 	.word	0x200000e4

08001304 <CheckLeap>:
 8001304:	b082      	sub	sp, #8
 8001306:	4603      	mov	r3, r0
 8001308:	f8ad 3004 	strh.w	r3, [sp, #4]
 800130c:	f8bd 1004 	ldrh.w	r1, [sp, #4]
 8001310:	4b1f      	ldr	r3, [pc, #124]	(8001390 <CheckLeap+0x8c>)
 8001312:	fba3 2301 	umull	r2, r3, r3, r1
 8001316:	ea4f 13d3 	mov.w	r3, r3, lsr #7
 800131a:	ea4f 1303 	mov.w	r3, r3, lsl #4
 800131e:	ea4f 0283 	mov.w	r2, r3, lsl #2
 8001322:	4413      	add	r3, r2
 8001324:	ea4f 0283 	mov.w	r2, r3, lsl #2
 8001328:	4413      	add	r3, r2
 800132a:	ebc3 0301 	rsb	r3, r3, r1
 800132e:	b29b      	uxth	r3, r3
 8001330:	2b00      	cmp	r3, #0
 8001332:	d103      	bne.n	800133c <CheckLeap+0x38>
 8001334:	f04f 0301 	mov.w	r3, #1	; 0x1
 8001338:	9300      	str	r3, [sp, #0]
 800133a:	e024      	b.n	8001386 <CheckLeap+0x82>
 800133c:	f8bd 1004 	ldrh.w	r1, [sp, #4]
 8001340:	4b13      	ldr	r3, [pc, #76]	(8001390 <CheckLeap+0x8c>)
 8001342:	fba3 2301 	umull	r2, r3, r3, r1
 8001346:	ea4f 1353 	mov.w	r3, r3, lsr #5
 800134a:	ea4f 0383 	mov.w	r3, r3, lsl #2
 800134e:	ea4f 0283 	mov.w	r2, r3, lsl #2
 8001352:	4413      	add	r3, r2
 8001354:	ea4f 0283 	mov.w	r2, r3, lsl #2
 8001358:	4413      	add	r3, r2
 800135a:	ebc3 0301 	rsb	r3, r3, r1
 800135e:	b29b      	uxth	r3, r3
 8001360:	2b00      	cmp	r3, #0
 8001362:	d103      	bne.n	800136c <CheckLeap+0x68>
 8001364:	f04f 0300 	mov.w	r3, #0	; 0x0
 8001368:	9300      	str	r3, [sp, #0]
 800136a:	e00c      	b.n	8001386 <CheckLeap+0x82>
 800136c:	f8bd 3004 	ldrh.w	r3, [sp, #4]
 8001370:	f003 0303 	and.w	r3, r3, #3	; 0x3
 8001374:	2b00      	cmp	r3, #0
 8001376:	d103      	bne.n	8001380 <CheckLeap+0x7c>
 8001378:	f04f 0201 	mov.w	r2, #1	; 0x1
 800137c:	9200      	str	r2, [sp, #0]
 800137e:	e002      	b.n	8001386 <CheckLeap+0x82>
 8001380:	f04f 0300 	mov.w	r3, #0	; 0x0
 8001384:	9300      	str	r3, [sp, #0]
 8001386:	9b00      	ldr	r3, [sp, #0]
 8001388:	4618      	mov	r0, r3
 800138a:	b002      	add	sp, #8
 800138c:	4770      	bx	lr
 800138e:	46c0      	nop			(mov r8, r8)
 8001390:	51eb851f 	.word	0x51eb851f

08001394 <WeekDay>:
 8001394:	b086      	sub	sp, #24
 8001396:	4603      	mov	r3, r0
 8001398:	f8ad 3008 	strh.w	r3, [sp, #8]
 800139c:	460b      	mov	r3, r1
 800139e:	f88d 3004 	strb.w	r3, [sp, #4]
 80013a2:	4613      	mov	r3, r2
 80013a4:	f88d 3000 	strb.w	r3, [sp]
 80013a8:	f89d 3004 	ldrb.w	r3, [sp, #4]
 80013ac:	2b02      	cmp	r3, #2
 80013ae:	d80b      	bhi.n	80013c8 <WeekDay+0x34>
 80013b0:	f89d 3004 	ldrb.w	r3, [sp, #4]
 80013b4:	f103 030c 	add.w	r3, r3, #12	; 0xc
 80013b8:	f88d 3004 	strb.w	r3, [sp, #4]
 80013bc:	f8bd 3008 	ldrh.w	r3, [sp, #8]
 80013c0:	f103 33ff 	add.w	r3, r3, #4294967295	; 0xffffffff
 80013c4:	f8ad 3008 	strh.w	r3, [sp, #8]
 80013c8:	f89d 3004 	ldrb.w	r3, [sp, #4]
 80013cc:	f103 0301 	add.w	r3, r3, #1	; 0x1
 80013d0:	ea4f 0243 	mov.w	r2, r3, lsl #1
 80013d4:	ea4f 0382 	mov.w	r3, r2, lsl #2
 80013d8:	ebc2 0103 	rsb	r1, r2, r3
 80013dc:	4b2f      	ldr	r3, [pc, #188]	(800149c <WeekDay+0x108>)
 80013de:	fb83 0301 	smull	r0, r3, r3, r1
 80013e2:	ea4f 02a3 	mov.w	r2, r3, asr #2
 80013e6:	ea4f 73e1 	mov.w	r3, r1, asr #31
 80013ea:	ebc3 0302 	rsb	r3, r3, r2
 80013ee:	f8ad 300e 	strh.w	r3, [sp, #14]
 80013f2:	f8bd 3008 	ldrh.w	r3, [sp, #8]
 80013f6:	ea4f 0393 	mov.w	r3, r3, lsr #2
 80013fa:	f8ad 3010 	strh.w	r3, [sp, #16]
 80013fe:	f8bd 2008 	ldrh.w	r2, [sp, #8]
 8001402:	4b27      	ldr	r3, [pc, #156]	(80014a0 <WeekDay+0x10c>)
 8001404:	fba3 1302 	umull	r1, r3, r3, r2
 8001408:	ea4f 1353 	mov.w	r3, r3, lsr #5
 800140c:	f8ad 3012 	strh.w	r3, [sp, #18]
 8001410:	f8bd 2008 	ldrh.w	r2, [sp, #8]
 8001414:	4b22      	ldr	r3, [pc, #136]	(80014a0 <WeekDay+0x10c>)
 8001416:	fba3 0302 	umull	r0, r3, r3, r2
 800141a:	ea4f 13d3 	mov.w	r3, r3, lsr #7
 800141e:	f8ad 3014 	strh.w	r3, [sp, #20]
 8001422:	f89d 2000 	ldrb.w	r2, [sp]
 8001426:	f89d 3004 	ldrb.w	r3, [sp, #4]
 800142a:	ea4f 0343 	mov.w	r3, r3, lsl #1
 800142e:	b29b      	uxth	r3, r3
 8001430:	4413      	add	r3, r2
 8001432:	b29a      	uxth	r2, r3
 8001434:	f8bd 300e 	ldrh.w	r3, [sp, #14]
 8001438:	4413      	add	r3, r2
 800143a:	b29a      	uxth	r2, r3
 800143c:	f8bd 3008 	ldrh.w	r3, [sp, #8]
 8001440:	4413      	add	r3, r2
 8001442:	b29a      	uxth	r2, r3
 8001444:	f8bd 3010 	ldrh.w	r3, [sp, #16]
 8001448:	4413      	add	r3, r2
 800144a:	b29a      	uxth	r2, r3
 800144c:	f8bd 3012 	ldrh.w	r3, [sp, #18]
 8001450:	ebc3 0302 	rsb	r3, r3, r2
 8001454:	b29a      	uxth	r2, r3
 8001456:	f8bd 3014 	ldrh.w	r3, [sp, #20]
 800145a:	4413      	add	r3, r2
 800145c:	b29b      	uxth	r3, r3
 800145e:	f103 0301 	add.w	r3, r3, #1	; 0x1
 8001462:	f8ad 3016 	strh.w	r3, [sp, #22]
 8001466:	f8bd 1016 	ldrh.w	r1, [sp, #22]
 800146a:	4b0e      	ldr	r3, [pc, #56]	(80014a4 <WeekDay+0x110>)
 800146c:	fba3 0201 	umull	r0, r2, r3, r1
 8001470:	ebc2 0301 	rsb	r3, r2, r1
 8001474:	ea4f 0353 	mov.w	r3, r3, lsr #1
 8001478:	4413      	add	r3, r2
 800147a:	ea4f 0293 	mov.w	r2, r3, lsr #2
 800147e:	4613      	mov	r3, r2
 8001480:	ea4f 03c3 	mov.w	r3, r3, lsl #3
 8001484:	ebc2 0303 	rsb	r3, r2, r3
 8001488:	ebc3 0301 	rsb	r3, r3, r1
 800148c:	f8ad 3016 	strh.w	r3, [sp, #22]
 8001490:	f8bd 3016 	ldrh.w	r3, [sp, #22]
 8001494:	4618      	mov	r0, r3
 8001496:	b006      	add	sp, #24
 8001498:	4770      	bx	lr
 800149a:	46c0      	nop			(mov r8, r8)
 800149c:	66666667 	.word	0x66666667
 80014a0:	51eb851f 	.word	0x51eb851f
 80014a4:	24924925 	.word	0x24924925

080014a8 <CalculateTime>:
 80014a8:	b500      	push	{lr}
 80014aa:	b081      	sub	sp, #4
 80014ac:	f7ff fa44 	bl	8000938 <get_sec_counter>
 80014b0:	4603      	mov	r3, r0
 80014b2:	9300      	str	r3, [sp, #0]
 80014b4:	9900      	ldr	r1, [sp, #0]
 80014b6:	4b06      	ldr	r3, [pc, #24]	(80014d0 <CalculateTime+0x28>)
 80014b8:	fba3 2301 	umull	r2, r3, r3, r1
 80014bc:	ea4f 4213 	mov.w	r2, r3, lsr #16
 80014c0:	4b04      	ldr	r3, [pc, #16]	(80014d4 <CalculateTime+0x2c>)
 80014c2:	fb03 f302 	mul.w	r3, r3, r2
 80014c6:	ebc3 0301 	rsb	r3, r3, r1
 80014ca:	9300      	str	r3, [sp, #0]
 80014cc:	b001      	add	sp, #4
 80014ce:	bd00      	pop	{pc}
 80014d0:	c22e4507 	.word	0xc22e4507
 80014d4:	00015180 	.word	0x00015180

080014d8 <CheckForDaysElapsed>:
 80014d8:	b510      	push	{r4, lr}
 80014da:	b082      	sub	sp, #8
 80014dc:	f7ff fa2c 	bl	8000938 <get_sec_counter>
 80014e0:	4602      	mov	r2, r0
 80014e2:	4b1d      	ldr	r3, [pc, #116]	(8001558 <CheckForDaysElapsed+0x80>)
 80014e4:	429a      	cmp	r2, r3
 80014e6:	d935      	bls.n	8001554 <CheckForDaysElapsed+0x7c>
 80014e8:	f04f 0300 	mov.w	r3, #0	; 0x0
 80014ec:	f88d 3007 	strb.w	r3, [sp, #7]
 80014f0:	e007      	b.n	8001502 <CheckForDaysElapsed+0x2a>
 80014f2:	f7ff fe27 	bl	8001144 <DateUpdate>
 80014f6:	f89d 3007 	ldrb.w	r3, [sp, #7]
 80014fa:	f103 0301 	add.w	r3, r3, #1	; 0x1
 80014fe:	f88d 3007 	strb.w	r3, [sp, #7]
 8001502:	f89d 4007 	ldrb.w	r4, [sp, #7]
 8001506:	f7ff fa17 	bl	8000938 <get_sec_counter>
 800150a:	4602      	mov	r2, r0
 800150c:	4b13      	ldr	r3, [pc, #76]	(800155c <CheckForDaysElapsed+0x84>)
 800150e:	fba3 0102 	umull	r0, r1, r3, r2
 8001512:	ebc1 0302 	rsb	r3, r1, r2
 8001516:	ea4f 0353 	mov.w	r3, r3, lsr #1
 800151a:	440b      	add	r3, r1
 800151c:	ea4f 4313 	mov.w	r3, r3, lsr #16
 8001520:	429c      	cmp	r4, r3
 8001522:	d3e6      	bcc.n	80014f2 <CheckForDaysElapsed+0x1a>
 8001524:	f7ff fa08 	bl	8000938 <get_sec_counter>
 8001528:	4601      	mov	r1, r0
 800152a:	4b0c      	ldr	r3, [pc, #48]	(800155c <CheckForDaysElapsed+0x84>)
 800152c:	fba3 0201 	umull	r0, r2, r3, r1
 8001530:	ebc2 0301 	rsb	r3, r2, r1
 8001534:	ea4f 0353 	mov.w	r3, r3, lsr #1
 8001538:	4413      	add	r3, r2
 800153a:	ea4f 4313 	mov.w	r3, r3, lsr #16
 800153e:	9300      	str	r3, [sp, #0]
 8001540:	4b07      	ldr	r3, [pc, #28]	(8001560 <CheckForDaysElapsed+0x88>)
 8001542:	9a00      	ldr	r2, [sp, #0]
 8001544:	fb03 f302 	mul.w	r3, r3, r2
 8001548:	ebc3 0301 	rsb	r3, r3, r1
 800154c:	9300      	str	r3, [sp, #0]
 800154e:	9800      	ldr	r0, [sp, #0]
 8001550:	f7ff f9f8 	bl	8000944 <set_sec_counter>
 8001554:	b002      	add	sp, #8
 8001556:	bd10      	pop	{r4, pc}
 8001558:	0001517e 	.word	0x0001517e
 800155c:	845db0a3 	.word	0x845db0a3
 8001560:	0001517f 	.word	0x0001517f

08001564 <Set_System>:
 8001564:	b500      	push	{lr}
 8001566:	f000 fb91 	bl	8001c8c <SystemInit>
 800156a:	4b24      	ldr	r3, [pc, #144]	(80015fc <Set_System+0x98>)
 800156c:	681b      	ldr	r3, [r3, #0]
 800156e:	461a      	mov	r2, r3
 8001570:	4b23      	ldr	r3, [pc, #140]	(8001600 <Set_System+0x9c>)
 8001572:	601a      	str	r2, [r3, #0]
 8001574:	4b22      	ldr	r3, [pc, #136]	(8001600 <Set_System+0x9c>)
 8001576:	6819      	ldr	r1, [r3, #0]
 8001578:	4b22      	ldr	r3, [pc, #136]	(8001604 <Set_System+0xa0>)
 800157a:	fb83 2301 	smull	r2, r3, r3, r1
 800157e:	ea4f 12a3 	mov.w	r2, r3, asr #6
 8001582:	ea4f 73e1 	mov.w	r3, r1, asr #31
 8001586:	ebc3 0302 	rsb	r3, r3, r2
 800158a:	4618      	mov	r0, r3
 800158c:	f000 f83e 	bl	800160c <SysTick_Config>
 8001590:	481d      	ldr	r0, [pc, #116]	(8001608 <Set_System+0xa4>)
 8001592:	f7ff f88d 	bl	80006b0 <printf_init>
 8001596:	f04f 50c0 	mov.w	r0, #402653184	; 0x18000000
 800159a:	f04f 0101 	mov.w	r1, #1	; 0x1
 800159e:	f001 ff59 	bl	8003454 <RCC_APB1PeriphClockCmd>
 80015a2:	f44f 4080 	mov.w	r0, #16384	; 0x4000
 80015a6:	f04f 0101 	mov.w	r1, #1	; 0x1
 80015aa:	f001 ff37 	bl	800341c <RCC_APB2PeriphClockCmd>
 80015ae:	f04f 0004 	mov.w	r0, #4	; 0x4
 80015b2:	f04f 0101 	mov.w	r1, #1	; 0x1
 80015b6:	f001 ff31 	bl	800341c <RCC_APB2PeriphClockCmd>
 80015ba:	f04f 0008 	mov.w	r0, #8	; 0x8
 80015be:	f04f 0101 	mov.w	r1, #1	; 0x1
 80015c2:	f001 ff2b 	bl	800341c <RCC_APB2PeriphClockCmd>
 80015c6:	f04f 0010 	mov.w	r0, #16	; 0x10
 80015ca:	f04f 0101 	mov.w	r1, #1	; 0x1
 80015ce:	f001 ff25 	bl	800341c <RCC_APB2PeriphClockCmd>
 80015d2:	f04f 0020 	mov.w	r0, #32	; 0x20
 80015d6:	f04f 0101 	mov.w	r1, #1	; 0x1
 80015da:	f001 ff1f 	bl	800341c <RCC_APB2PeriphClockCmd>
 80015de:	f04f 001c 	mov.w	r0, #28	; 0x1c
 80015e2:	f04f 0100 	mov.w	r1, #0	; 0x0
 80015e6:	f001 ff51 	bl	800348c <RCC_APB2PeriphResetCmd>
 80015ea:	f000 f9bb 	bl	8001964 <GPIO_Configuration>
 80015ee:	f000 f88d 	bl	800170c <USART_Config>
 80015f2:	f000 f857 	bl	80016a4 <Interrupts_Config>
 80015f6:	f006 fd79 	bl	80080ec <FLASH_Unlock>
 80015fa:	bd00      	pop	{pc}
 80015fc:	080092e8 	.word	0x080092e8
 8001600:	200000f8 	.word	0x200000f8
 8001604:	10624dd3 	.word	0x10624dd3
 8001608:	080018fd 	.word	0x080018fd

0800160c <SysTick_Config>:
 800160c:	b500      	push	{lr}
 800160e:	b082      	sub	sp, #8
 8001610:	9001      	str	r0, [sp, #4]
 8001612:	9a01      	ldr	r2, [sp, #4]
 8001614:	f06f 437f 	mvn.w	r3, #4278190080	; 0xff000000
 8001618:	429a      	cmp	r2, r3
 800161a:	d903      	bls.n	8001624 <SysTick_Config+0x18>
 800161c:	f04f 0301 	mov.w	r3, #1	; 0x1
 8001620:	9300      	str	r3, [sp, #0]
 8001622:	e017      	b.n	8001654 <SysTick_Config+0x48>
 8001624:	4a0d      	ldr	r2, [pc, #52]	(800165c <SysTick_Config+0x50>)
 8001626:	9b01      	ldr	r3, [sp, #4]
 8001628:	f023 437f 	bic.w	r3, r3, #4278190080	; 0xff000000
 800162c:	f103 33ff 	add.w	r3, r3, #4294967295	; 0xffffffff
 8001630:	6053      	str	r3, [r2, #4]
 8001632:	f04f 30ff 	mov.w	r0, #4294967295	; 0xffffffff
 8001636:	f04f 010f 	mov.w	r1, #15	; 0xf
 800163a:	f000 f811 	bl	8001660 <NVIC_SetPriority>
 800163e:	4a07      	ldr	r2, [pc, #28]	(800165c <SysTick_Config+0x50>)
 8001640:	f04f 0300 	mov.w	r3, #0	; 0x0
 8001644:	6093      	str	r3, [r2, #8]
 8001646:	4a05      	ldr	r2, [pc, #20]	(800165c <SysTick_Config+0x50>)
 8001648:	f04f 0307 	mov.w	r3, #7	; 0x7
 800164c:	6013      	str	r3, [r2, #0]
 800164e:	f04f 0300 	mov.w	r3, #0	; 0x0
 8001652:	9300      	str	r3, [sp, #0]
 8001654:	9b00      	ldr	r3, [sp, #0]
 8001656:	4618      	mov	r0, r3
 8001658:	b002      	add	sp, #8
 800165a:	bd00      	pop	{pc}
 800165c:	e000e010 	.word	0xe000e010

08001660 <NVIC_SetPriority>:
 8001660:	b082      	sub	sp, #8
 8001662:	9001      	str	r0, [sp, #4]
 8001664:	9100      	str	r1, [sp, #0]
 8001666:	9b01      	ldr	r3, [sp, #4]
 8001668:	2b00      	cmp	r3, #0
 800166a:	da0c      	bge.n	8001686 <NVIC_SetPriority+0x26>
 800166c:	490b      	ldr	r1, [pc, #44]	(800169c <NVIC_SetPriority+0x3c>)
 800166e:	9b01      	ldr	r3, [sp, #4]
 8001670:	f003 030f 	and.w	r3, r3, #15	; 0xf
 8001674:	f1a3 0204 	sub.w	r2, r3, #4	; 0x4
 8001678:	9b00      	ldr	r3, [sp, #0]
 800167a:	ea4f 1303 	mov.w	r3, r3, lsl #4
 800167e:	b2db      	uxtb	r3, r3
 8001680:	440a      	add	r2, r1
 8001682:	7613      	strb	r3, [r2, #24]
 8001684:	e008      	b.n	8001698 <NVIC_SetPriority+0x38>
 8001686:	4a06      	ldr	r2, [pc, #24]	(80016a0 <NVIC_SetPriority+0x40>)
 8001688:	9901      	ldr	r1, [sp, #4]
 800168a:	9b00      	ldr	r3, [sp, #0]
 800168c:	ea4f 1303 	mov.w	r3, r3, lsl #4
 8001690:	b2db      	uxtb	r3, r3
 8001692:	440a      	add	r2, r1
 8001694:	f882 3300 	strb.w	r3, [r2, #768]
 8001698:	b002      	add	sp, #8
 800169a:	4770      	bx	lr
 800169c:	e000ed00 	.word	0xe000ed00
 80016a0:	e000e100 	.word	0xe000e100

080016a4 <Interrupts_Config>:
 80016a4:	b500      	push	{lr}
 80016a6:	b082      	sub	sp, #8
 80016a8:	f04f 6000 	mov.w	r0, #134217728	; 0x8000000
 80016ac:	f04f 0100 	mov.w	r1, #0	; 0x0
 80016b0:	f000 fc24 	bl	8001efc <NVIC_SetVectorTable>
 80016b4:	f44f 60a0 	mov.w	r0, #1280	; 0x500
 80016b8:	f000 fba8 	bl	8001e0c <NVIC_PriorityGroupConfig>
 80016bc:	f04f 0303 	mov.w	r3, #3	; 0x3
 80016c0:	f88d 3000 	strb.w	r3, [sp]
 80016c4:	f04f 0303 	mov.w	r3, #3	; 0x3
 80016c8:	f88d 3001 	strb.w	r3, [sp, #1]
 80016cc:	f04f 0300 	mov.w	r3, #0	; 0x0
 80016d0:	f88d 3002 	strb.w	r3, [sp, #2]
 80016d4:	f04f 0301 	mov.w	r3, #1	; 0x1
 80016d8:	9301      	str	r3, [sp, #4]
 80016da:	466b      	mov	r3, sp
 80016dc:	4618      	mov	r0, r3
 80016de:	f000 fba3 	bl	8001e28 <NVIC_Init>
 80016e2:	f04f 0325 	mov.w	r3, #37	; 0x25
 80016e6:	f88d 3000 	strb.w	r3, [sp]
 80016ea:	f04f 0300 	mov.w	r3, #0	; 0x0
 80016ee:	f88d 3001 	strb.w	r3, [sp, #1]
 80016f2:	f04f 0300 	mov.w	r3, #0	; 0x0
 80016f6:	f88d 3002 	strb.w	r3, [sp, #2]
 80016fa:	f04f 0301 	mov.w	r3, #1	; 0x1
 80016fe:	9301      	str	r3, [sp, #4]
 8001700:	466b      	mov	r3, sp
 8001702:	4618      	mov	r0, r3
 8001704:	f000 fb90 	bl	8001e28 <NVIC_Init>
 8001708:	b002      	add	sp, #8
 800170a:	bd00      	pop	{pc}

0800170c <USART_Config>:
 800170c:	b500      	push	{lr}
 800170e:	b084      	sub	sp, #16
 8001710:	4816      	ldr	r0, [pc, #88]	(800176c <USART_Config+0x60>)
 8001712:	f002 fff5 	bl	8004700 <USART_DeInit>
 8001716:	f44f 33e1 	mov.w	r3, #115200	; 0x1c200
 800171a:	9300      	str	r3, [sp, #0]
 800171c:	f04f 0300 	mov.w	r3, #0	; 0x0
 8001720:	f8ad 3004 	strh.w	r3, [sp, #4]
 8001724:	f04f 0300 	mov.w	r3, #0	; 0x0
 8001728:	f8ad 3006 	strh.w	r3, [sp, #6]
 800172c:	f04f 0300 	mov.w	r3, #0	; 0x0
 8001730:	f8ad 3008 	strh.w	r3, [sp, #8]
 8001734:	f04f 0300 	mov.w	r3, #0	; 0x0
 8001738:	f8ad 300c 	strh.w	r3, [sp, #12]
 800173c:	f04f 0308 	mov.w	r3, #8	; 0x8
 8001740:	f8ad 300a 	strh.w	r3, [sp, #10]
 8001744:	466b      	mov	r3, sp
 8001746:	4809      	ldr	r0, [pc, #36]	(800176c <USART_Config+0x60>)
 8001748:	4619      	mov	r1, r3
 800174a:	f003 f845 	bl	80047d8 <USART_Init>
 800174e:	4a08      	ldr	r2, [pc, #32]	(8001770 <USART_Config+0x64>)
 8001750:	f04f 0300 	mov.w	r3, #0	; 0x0
 8001754:	8013      	strh	r3, [r2, #0]
 8001756:	4a07      	ldr	r2, [pc, #28]	(8001774 <USART_Config+0x68>)
 8001758:	f04f 0300 	mov.w	r3, #0	; 0x0
 800175c:	8013      	strh	r3, [r2, #0]
 800175e:	4803      	ldr	r0, [pc, #12]	(800176c <USART_Config+0x60>)
 8001760:	f04f 0101 	mov.w	r1, #1	; 0x1
 8001764:	f003 f944 	bl	80049f0 <USART_Cmd>
 8001768:	b004      	add	sp, #16
 800176a:	bd00      	pop	{pc}
 800176c:	40013800 	.word	0x40013800
 8001770:	2000017c 	.word	0x2000017c
 8001774:	2000017e 	.word	0x2000017e

08001778 <USART_Wait_Empty>:
 8001778:	4b04      	ldr	r3, [pc, #16]	(800178c <USART_Wait_Empty+0x14>)
 800177a:	881b      	ldrh	r3, [r3, #0]
 800177c:	b29a      	uxth	r2, r3
 800177e:	4b04      	ldr	r3, [pc, #16]	(8001790 <USART_Wait_Empty+0x18>)
 8001780:	881b      	ldrh	r3, [r3, #0]
 8001782:	b29b      	uxth	r3, r3
 8001784:	429a      	cmp	r2, r3
 8001786:	d1f7      	bne.n	8001778 <USART_Wait_Empty>
 8001788:	4770      	bx	lr
 800178a:	46c0      	nop			(mov r8, r8)
 800178c:	2000017e 	.word	0x2000017e
 8001790:	2000017c 	.word	0x2000017c

08001794 <USART_Send_Char>:
 8001794:	b500      	push	{lr}
 8001796:	b082      	sub	sp, #8
 8001798:	4603      	mov	r3, r0
 800179a:	f88d 3004 	strb.w	r3, [sp, #4]
 800179e:	4b26      	ldr	r3, [pc, #152]	(8001838 <USART_Send_Char+0xa4>)
 80017a0:	881b      	ldrh	r3, [r3, #0]
 80017a2:	b29a      	uxth	r2, r3
 80017a4:	4b25      	ldr	r3, [pc, #148]	(800183c <USART_Send_Char+0xa8>)
 80017a6:	881b      	ldrh	r3, [r3, #0]
 80017a8:	b29b      	uxth	r3, r3
 80017aa:	429a      	cmp	r2, r3
 80017ac:	d90f      	bls.n	80017ce <USART_Send_Char+0x3a>
 80017ae:	4b22      	ldr	r3, [pc, #136]	(8001838 <USART_Send_Char+0xa4>)
 80017b0:	881b      	ldrh	r3, [r3, #0]
 80017b2:	b29b      	uxth	r3, r3
 80017b4:	461a      	mov	r2, r3
 80017b6:	4b21      	ldr	r3, [pc, #132]	(800183c <USART_Send_Char+0xa8>)
 80017b8:	881b      	ldrh	r3, [r3, #0]
 80017ba:	b29b      	uxth	r3, r3
 80017bc:	ebc3 0302 	rsb	r3, r3, r2
 80017c0:	2b7f      	cmp	r3, #127
 80017c2:	bf14      	ite	ne
 80017c4:	2300      	movne	r3, #0
 80017c6:	2301      	moveq	r3, #1
 80017c8:	b2db      	uxtb	r3, r3
 80017ca:	9300      	str	r3, [sp, #0]
 80017cc:	e00e      	b.n	80017ec <USART_Send_Char+0x58>
 80017ce:	4b1b      	ldr	r3, [pc, #108]	(800183c <USART_Send_Char+0xa8>)
 80017d0:	881b      	ldrh	r3, [r3, #0]
 80017d2:	b29b      	uxth	r3, r3
 80017d4:	461a      	mov	r2, r3
 80017d6:	4b18      	ldr	r3, [pc, #96]	(8001838 <USART_Send_Char+0xa4>)
 80017d8:	881b      	ldrh	r3, [r3, #0]
 80017da:	b29b      	uxth	r3, r3
 80017dc:	ebc3 0302 	rsb	r3, r3, r2
 80017e0:	2b01      	cmp	r3, #1
 80017e2:	bf14      	ite	ne
 80017e4:	2300      	movne	r3, #0
 80017e6:	2301      	moveq	r3, #1
 80017e8:	b2db      	uxtb	r3, r3
 80017ea:	9300      	str	r3, [sp, #0]
 80017ec:	9b00      	ldr	r3, [sp, #0]
 80017ee:	2b00      	cmp	r3, #0
 80017f0:	d1d5      	bne.n	800179e <USART_Send_Char+0xa>
 80017f2:	4b11      	ldr	r3, [pc, #68]	(8001838 <USART_Send_Char+0xa4>)
 80017f4:	881b      	ldrh	r3, [r3, #0]
 80017f6:	b29b      	uxth	r3, r3
 80017f8:	4619      	mov	r1, r3
 80017fa:	4a11      	ldr	r2, [pc, #68]	(8001840 <USART_Send_Char+0xac>)
 80017fc:	f89d 3004 	ldrb.w	r3, [sp, #4]
 8001800:	5453      	strb	r3, [r2, r1]
 8001802:	4b0d      	ldr	r3, [pc, #52]	(8001838 <USART_Send_Char+0xa4>)
 8001804:	881b      	ldrh	r3, [r3, #0]
 8001806:	b29b      	uxth	r3, r3
 8001808:	2b7f      	cmp	r3, #127
 800180a:	d104      	bne.n	8001816 <USART_Send_Char+0x82>
 800180c:	4b0a      	ldr	r3, [pc, #40]	(8001838 <USART_Send_Char+0xa4>)
 800180e:	f04f 0200 	mov.w	r2, #0	; 0x0
 8001812:	801a      	strh	r2, [r3, #0]
 8001814:	e007      	b.n	8001826 <USART_Send_Char+0x92>
 8001816:	4b08      	ldr	r3, [pc, #32]	(8001838 <USART_Send_Char+0xa4>)
 8001818:	881b      	ldrh	r3, [r3, #0]
 800181a:	b29b      	uxth	r3, r3
 800181c:	f103 0301 	add.w	r3, r3, #1	; 0x1
 8001820:	b29b      	uxth	r3, r3
 8001822:	4a05      	ldr	r2, [pc, #20]	(8001838 <USART_Send_Char+0xa4>)
 8001824:	8013      	strh	r3, [r2, #0]
 8001826:	4807      	ldr	r0, [pc, #28]	(8001844 <USART_Send_Char+0xb0>)
 8001828:	f240 7127 	movw	r1, #1831	; 0x727
 800182c:	f04f 0201 	mov.w	r2, #1	; 0x1
 8001830:	f003 f8fe 	bl	8004a30 <USART_ITConfig>
 8001834:	b002      	add	sp, #8
 8001836:	bd00      	pop	{pc}
 8001838:	2000017e 	.word	0x2000017e
 800183c:	2000017c 	.word	0x2000017c
 8001840:	200000fc 	.word	0x200000fc
 8001844:	40013800 	.word	0x40013800

08001848 <USART1_GetFifo>:
 8001848:	b082      	sub	sp, #8
 800184a:	9001      	str	r0, [sp, #4]
 800184c:	4b16      	ldr	r3, [pc, #88]	(80018a8 <USART1_GetFifo+0x60>)
 800184e:	881b      	ldrh	r3, [r3, #0]
 8001850:	b29a      	uxth	r2, r3
 8001852:	4b16      	ldr	r3, [pc, #88]	(80018ac <USART1_GetFifo+0x64>)
 8001854:	881b      	ldrh	r3, [r3, #0]
 8001856:	b29b      	uxth	r3, r3
 8001858:	429a      	cmp	r2, r3
 800185a:	d103      	bne.n	8001864 <USART1_GetFifo+0x1c>
 800185c:	f04f 0300 	mov.w	r3, #0	; 0x0
 8001860:	9300      	str	r3, [sp, #0]
 8001862:	e01d      	b.n	80018a0 <USART1_GetFifo+0x58>
 8001864:	4b11      	ldr	r3, [pc, #68]	(80018ac <USART1_GetFifo+0x64>)
 8001866:	881b      	ldrh	r3, [r3, #0]
 8001868:	b29b      	uxth	r3, r3
 800186a:	461a      	mov	r2, r3
 800186c:	4b10      	ldr	r3, [pc, #64]	(80018b0 <USART1_GetFifo+0x68>)
 800186e:	5c9b      	ldrb	r3, [r3, r2]
 8001870:	b2db      	uxtb	r3, r3
 8001872:	9a01      	ldr	r2, [sp, #4]
 8001874:	7013      	strb	r3, [r2, #0]
 8001876:	4b0d      	ldr	r3, [pc, #52]	(80018ac <USART1_GetFifo+0x64>)
 8001878:	881b      	ldrh	r3, [r3, #0]
 800187a:	b29b      	uxth	r3, r3
 800187c:	2b7f      	cmp	r3, #127
 800187e:	d104      	bne.n	800188a <USART1_GetFifo+0x42>
 8001880:	4b0a      	ldr	r3, [pc, #40]	(80018ac <USART1_GetFifo+0x64>)
 8001882:	f04f 0200 	mov.w	r2, #0	; 0x0
 8001886:	801a      	strh	r2, [r3, #0]
 8001888:	e007      	b.n	800189a <USART1_GetFifo+0x52>
 800188a:	4b08      	ldr	r3, [pc, #32]	(80018ac <USART1_GetFifo+0x64>)
 800188c:	881b      	ldrh	r3, [r3, #0]
 800188e:	b29b      	uxth	r3, r3
 8001890:	f103 0301 	add.w	r3, r3, #1	; 0x1
 8001894:	b29b      	uxth	r3, r3
 8001896:	4a05      	ldr	r2, [pc, #20]	(80018ac <USART1_GetFifo+0x64>)
 8001898:	8013      	strh	r3, [r2, #0]
 800189a:	f04f 0301 	mov.w	r3, #1	; 0x1
 800189e:	9300      	str	r3, [sp, #0]
 80018a0:	9b00      	ldr	r3, [sp, #0]
 80018a2:	4618      	mov	r0, r3
 80018a4:	b002      	add	sp, #8
 80018a6:	4770      	bx	lr
 80018a8:	2000017e 	.word	0x2000017e
 80018ac:	2000017c 	.word	0x2000017c
 80018b0:	200000fc 	.word	0x200000fc

080018b4 <USART1_Istr>:
 80018b4:	b500      	push	{lr}
 80018b6:	b081      	sub	sp, #4
 80018b8:	480f      	ldr	r0, [pc, #60]	(80018f8 <USART1_Istr+0x44>)
 80018ba:	f240 7127 	movw	r1, #1831	; 0x727
 80018be:	f003 fafd 	bl	8004ebc <USART_GetITStatus>
 80018c2:	4603      	mov	r3, r0
 80018c4:	2b00      	cmp	r3, #0
 80018c6:	d015      	beq.n	80018f4 <USART1_Istr+0x40>
 80018c8:	f10d 0303 	add.w	r3, sp, #3	; 0x3
 80018cc:	4618      	mov	r0, r3
 80018ce:	f7ff ffbb 	bl	8001848 <USART1_GetFifo>
 80018d2:	4603      	mov	r3, r0
 80018d4:	2b01      	cmp	r3, #1
 80018d6:	d106      	bne.n	80018e6 <USART1_Istr+0x32>
 80018d8:	f89d 3003 	ldrb.w	r3, [sp, #3]
 80018dc:	4806      	ldr	r0, [pc, #24]	(80018f8 <USART1_Istr+0x44>)
 80018de:	4619      	mov	r1, r3
 80018e0:	f003 f9bc 	bl	8004c5c <USART_SendData>
 80018e4:	e006      	b.n	80018f4 <USART1_Istr+0x40>
 80018e6:	4804      	ldr	r0, [pc, #16]	(80018f8 <USART1_Istr+0x44>)
 80018e8:	f240 7127 	movw	r1, #1831	; 0x727
 80018ec:	f04f 0200 	mov.w	r2, #0	; 0x0
 80018f0:	f003 f89e 	bl	8004a30 <USART_ITConfig>
 80018f4:	b001      	add	sp, #4
 80018f6:	bd00      	pop	{pc}
 80018f8:	40013800 	.word	0x40013800

080018fc <USART_Send_Buffer>:
 80018fc:	b500      	push	{lr}
 80018fe:	b083      	sub	sp, #12
 8001900:	9001      	str	r0, [sp, #4]
 8001902:	460b      	mov	r3, r1
 8001904:	f88d 3000 	strb.w	r3, [sp]
 8001908:	f04f 0300 	mov.w	r3, #0	; 0x0
 800190c:	9302      	str	r3, [sp, #8]
 800190e:	e01f      	b.n	8001950 <USART_Send_Buffer+0x54>
 8001910:	9a01      	ldr	r2, [sp, #4]
 8001912:	9b02      	ldr	r3, [sp, #8]
 8001914:	4413      	add	r3, r2
 8001916:	781b      	ldrb	r3, [r3, #0]
 8001918:	2b0a      	cmp	r3, #10
 800191a:	d104      	bne.n	8001926 <USART_Send_Buffer+0x2a>
 800191c:	f04f 000d 	mov.w	r0, #13	; 0xd
 8001920:	f7ff ff38 	bl	8001794 <USART_Send_Char>
 8001924:	e009      	b.n	800193a <USART_Send_Buffer+0x3e>
 8001926:	9a01      	ldr	r2, [sp, #4]
 8001928:	9b02      	ldr	r3, [sp, #8]
 800192a:	4413      	add	r3, r2
 800192c:	781b      	ldrb	r3, [r3, #0]
 800192e:	2b0d      	cmp	r3, #13
 8001930:	d103      	bne.n	800193a <USART_Send_Buffer+0x3e>
 8001932:	f04f 000a 	mov.w	r0, #10	; 0xa
 8001936:	f7ff ff2d 	bl	8001794 <USART_Send_Char>
 800193a:	9a01      	ldr	r2, [sp, #4]
 800193c:	9b02      	ldr	r3, [sp, #8]
 800193e:	4413      	add	r3, r2
 8001940:	781b      	ldrb	r3, [r3, #0]
 8001942:	4618      	mov	r0, r3
 8001944:	f7ff ff26 	bl	8001794 <USART_Send_Char>
 8001948:	9b02      	ldr	r3, [sp, #8]
 800194a:	f103 0301 	add.w	r3, r3, #1	; 0x1
 800194e:	9302      	str	r3, [sp, #8]
 8001950:	f89d 2000 	ldrb.w	r2, [sp]
 8001954:	9b02      	ldr	r3, [sp, #8]
 8001956:	429a      	cmp	r2, r3
 8001958:	d8da      	bhi.n	8001910 <USART_Send_Buffer+0x14>
 800195a:	f89d 3000 	ldrb.w	r3, [sp]
 800195e:	4618      	mov	r0, r3
 8001960:	b003      	add	sp, #12
 8001962:	bd00      	pop	{pc}

08001964 <GPIO_Configuration>:
 8001964:	b500      	push	{lr}
 8001966:	b083      	sub	sp, #12
 8001968:	f04f 0303 	mov.w	r3, #3	; 0x3
 800196c:	9301      	str	r3, [sp, #4]
 800196e:	f04f 0004 	mov.w	r0, #4	; 0x4
 8001972:	f04f 0100 	mov.w	r1, #0	; 0x0
 8001976:	f002 fdfd 	bl	8004574 <GPIO_PinRemapConfig>
 800197a:	f44f 6380 	mov.w	r3, #1024	; 0x400
 800197e:	f8ad 3000 	strh.w	r3, [sp]
 8001982:	f04f 0304 	mov.w	r3, #4	; 0x4
 8001986:	9302      	str	r3, [sp, #8]
 8001988:	466b      	mov	r3, sp
 800198a:	4819      	ldr	r0, [pc, #100]	(80019f0 <GPIO_Configuration+0x8c>)
 800198c:	4619      	mov	r1, r3
 800198e:	f002 fc27 	bl	80041e0 <GPIO_Init>
 8001992:	f44f 7300 	mov.w	r3, #512	; 0x200
 8001996:	f8ad 3000 	strh.w	r3, [sp]
 800199a:	f04f 0318 	mov.w	r3, #24	; 0x18
 800199e:	9302      	str	r3, [sp, #8]
 80019a0:	466b      	mov	r3, sp
 80019a2:	4813      	ldr	r0, [pc, #76]	(80019f0 <GPIO_Configuration+0x8c>)
 80019a4:	4619      	mov	r1, r3
 80019a6:	f002 fc1b 	bl	80041e0 <GPIO_Init>
 80019aa:	f44f 5380 	mov.w	r3, #4096	; 0x1000
 80019ae:	f8ad 3000 	strh.w	r3, [sp]
 80019b2:	f04f 0303 	mov.w	r3, #3	; 0x3
 80019b6:	9301      	str	r3, [sp, #4]
 80019b8:	f04f 0310 	mov.w	r3, #16	; 0x10
 80019bc:	9302      	str	r3, [sp, #8]
 80019be:	466b      	mov	r3, sp
 80019c0:	480c      	ldr	r0, [pc, #48]	(80019f4 <GPIO_Configuration+0x90>)
 80019c2:	4619      	mov	r1, r3
 80019c4:	f002 fc0c 	bl	80041e0 <GPIO_Init>
 80019c8:	480a      	ldr	r0, [pc, #40]	(80019f4 <GPIO_Configuration+0x90>)
 80019ca:	f44f 5180 	mov.w	r1, #4096	; 0x1000
 80019ce:	f002 fd45 	bl	800445c <GPIO_SetBits>
 80019d2:	f04f 0301 	mov.w	r3, #1	; 0x1
 80019d6:	f8ad 3000 	strh.w	r3, [sp]
 80019da:	f04f 0304 	mov.w	r3, #4	; 0x4
 80019de:	9302      	str	r3, [sp, #8]
 80019e0:	466b      	mov	r3, sp
 80019e2:	4803      	ldr	r0, [pc, #12]	(80019f0 <GPIO_Configuration+0x8c>)
 80019e4:	4619      	mov	r1, r3
 80019e6:	f002 fbfb 	bl	80041e0 <GPIO_Init>
 80019ea:	b003      	add	sp, #12
 80019ec:	bd00      	pop	{pc}
 80019ee:	46c0      	nop			(mov r8, r8)
 80019f0:	40010800 	.word	0x40010800
 80019f4:	40011000 	.word	0x40011000

080019f8 <ndelay>:
 80019f8:	b081      	sub	sp, #4
 80019fa:	4603      	mov	r3, r0
 80019fc:	f8ad 3000 	strh.w	r3, [sp]
 8001a00:	f8bd 3000 	ldrh.w	r3, [sp]
 8001a04:	2b00      	cmp	r3, #0
 8001a06:	bf0c      	ite	eq
 8001a08:	2300      	moveq	r3, #0
 8001a0a:	2301      	movne	r3, #1
 8001a0c:	b2da      	uxtb	r2, r3
 8001a0e:	f8bd 3000 	ldrh.w	r3, [sp]
 8001a12:	f103 33ff 	add.w	r3, r3, #4294967295	; 0xffffffff
 8001a16:	f8ad 3000 	strh.w	r3, [sp]
 8001a1a:	2a00      	cmp	r2, #0
 8001a1c:	d1f0      	bne.n	8001a00 <ndelay+0x8>
 8001a1e:	b001      	add	sp, #4
 8001a20:	4770      	bx	lr
 8001a22:	46c0      	nop			(mov r8, r8)

08001a24 <udelay>:
 8001a24:	b083      	sub	sp, #12
 8001a26:	4603      	mov	r3, r0
 8001a28:	f8ad 3000 	strh.w	r3, [sp]
 8001a2c:	4b1e      	ldr	r3, [pc, #120]	(8001aa8 <udelay+0x84>)
 8001a2e:	689b      	ldr	r3, [r3, #8]
 8001a30:	9301      	str	r3, [sp, #4]
 8001a32:	4b1e      	ldr	r3, [pc, #120]	(8001aac <udelay+0x88>)
 8001a34:	6819      	ldr	r1, [r3, #0]
 8001a36:	4b1e      	ldr	r3, [pc, #120]	(8001ab0 <udelay+0x8c>)
 8001a38:	fb83 2301 	smull	r2, r3, r3, r1
 8001a3c:	ea4f 42a3 	mov.w	r2, r3, asr #18
 8001a40:	ea4f 73e1 	mov.w	r3, r1, asr #31
 8001a44:	ebc3 0302 	rsb	r3, r3, r2
 8001a48:	9302      	str	r3, [sp, #8]
 8001a4a:	f8bd 2000 	ldrh.w	r2, [sp]
 8001a4e:	9b02      	ldr	r3, [sp, #8]
 8001a50:	fb02 f303 	mul.w	r3, r2, r3
 8001a54:	9302      	str	r3, [sp, #8]
 8001a56:	9b02      	ldr	r3, [sp, #8]
 8001a58:	2b01      	cmp	r3, #1
 8001a5a:	d922      	bls.n	8001aa2 <udelay+0x7e>
 8001a5c:	9b02      	ldr	r3, [sp, #8]
 8001a5e:	f1a3 0302 	sub.w	r3, r3, #2	; 0x2
 8001a62:	9302      	str	r3, [sp, #8]
 8001a64:	9a02      	ldr	r2, [sp, #8]
 8001a66:	9b01      	ldr	r3, [sp, #4]
 8001a68:	429a      	cmp	r2, r3
 8001a6a:	d910      	bls.n	8001a8e <udelay+0x6a>
 8001a6c:	4b0e      	ldr	r3, [pc, #56]	(8001aa8 <udelay+0x84>)
 8001a6e:	689a      	ldr	r2, [r3, #8]
 8001a70:	9b01      	ldr	r3, [sp, #4]
 8001a72:	429a      	cmp	r2, r3
 8001a74:	d3fa      	bcc.n	8001a6c <udelay+0x48>
 8001a76:	9a02      	ldr	r2, [sp, #8]
 8001a78:	9b01      	ldr	r3, [sp, #4]
 8001a7a:	ebc3 0302 	rsb	r3, r3, r2
 8001a7e:	9302      	str	r3, [sp, #8]
 8001a80:	4b09      	ldr	r3, [pc, #36]	(8001aa8 <udelay+0x84>)
 8001a82:	685a      	ldr	r2, [r3, #4]
 8001a84:	9b02      	ldr	r3, [sp, #8]
 8001a86:	ebc3 0302 	rsb	r3, r3, r2
 8001a8a:	9301      	str	r3, [sp, #4]
 8001a8c:	e004      	b.n	8001a98 <udelay+0x74>
 8001a8e:	9b01      	ldr	r3, [sp, #4]
 8001a90:	9a02      	ldr	r2, [sp, #8]
 8001a92:	ebc2 0303 	rsb	r3, r2, r3
 8001a96:	9301      	str	r3, [sp, #4]
 8001a98:	4b03      	ldr	r3, [pc, #12]	(8001aa8 <udelay+0x84>)
 8001a9a:	689a      	ldr	r2, [r3, #8]
 8001a9c:	9b01      	ldr	r3, [sp, #4]
 8001a9e:	429a      	cmp	r2, r3
 8001aa0:	d8fa      	bhi.n	8001a98 <udelay+0x74>
 8001aa2:	b003      	add	sp, #12
 8001aa4:	4770      	bx	lr
 8001aa6:	46c0      	nop			(mov r8, r8)
 8001aa8:	e000e010 	.word	0xe000e010
 8001aac:	200000f8 	.word	0x200000f8
 8001ab0:	431bde83 	.word	0x431bde83

08001ab4 <mdelay>:
 8001ab4:	b500      	push	{lr}
 8001ab6:	b081      	sub	sp, #4
 8001ab8:	4603      	mov	r3, r0
 8001aba:	f8ad 3000 	strh.w	r3, [sp]
 8001abe:	e003      	b.n	8001ac8 <mdelay+0x14>
 8001ac0:	f44f 707a 	mov.w	r0, #1000	; 0x3e8
 8001ac4:	f7ff ffae 	bl	8001a24 <udelay>
 8001ac8:	f8bd 3000 	ldrh.w	r3, [sp]
 8001acc:	2b00      	cmp	r3, #0
 8001ace:	bf0c      	ite	eq
 8001ad0:	2300      	moveq	r3, #0
 8001ad2:	2301      	movne	r3, #1
 8001ad4:	b2da      	uxtb	r2, r3
 8001ad6:	f8bd 3000 	ldrh.w	r3, [sp]
 8001ada:	f103 33ff 	add.w	r3, r3, #4294967295	; 0xffffffff
 8001ade:	f8ad 3000 	strh.w	r3, [sp]
 8001ae2:	2a00      	cmp	r2, #0
 8001ae4:	d1ec      	bne.n	8001ac0 <mdelay+0xc>
 8001ae6:	b001      	add	sp, #4
 8001ae8:	bd00      	pop	{pc}
 8001aea:	46c0      	nop			(mov r8, r8)

08001aec <stepping_switch>:
 8001aec:	b500      	push	{lr}
 8001aee:	b081      	sub	sp, #4
 8001af0:	9000      	str	r0, [sp, #0]
 8001af2:	f000 f8bb 	bl	8001c6c <__disable_irq>
 8001af6:	4a56      	ldr	r2, [pc, #344]	(8001c50 <stepping_switch+0x164>)
 8001af8:	4b55      	ldr	r3, [pc, #340]	(8001c50 <stepping_switch+0x164>)
 8001afa:	681b      	ldr	r3, [r3, #0]
 8001afc:	f043 0301 	orr.w	r3, r3, #1	; 0x1
 8001b00:	6013      	str	r3, [r2, #0]
 8001b02:	4b53      	ldr	r3, [pc, #332]	(8001c50 <stepping_switch+0x164>)
 8001b04:	681b      	ldr	r3, [r3, #0]
 8001b06:	f003 0302 	and.w	r3, r3, #2	; 0x2
 8001b0a:	2b00      	cmp	r3, #0
 8001b0c:	d0f9      	beq.n	8001b02 <stepping_switch+0x16>
 8001b0e:	4a50      	ldr	r2, [pc, #320]	(8001c50 <stepping_switch+0x164>)
 8001b10:	4b4f      	ldr	r3, [pc, #316]	(8001c50 <stepping_switch+0x164>)
 8001b12:	685b      	ldr	r3, [r3, #4]
 8001b14:	f023 0303 	bic.w	r3, r3, #3	; 0x3
 8001b18:	6053      	str	r3, [r2, #4]
 8001b1a:	4a4d      	ldr	r2, [pc, #308]	(8001c50 <stepping_switch+0x164>)
 8001b1c:	4b4c      	ldr	r3, [pc, #304]	(8001c50 <stepping_switch+0x164>)
 8001b1e:	685b      	ldr	r3, [r3, #4]
 8001b20:	6053      	str	r3, [r2, #4]
 8001b22:	4b4b      	ldr	r3, [pc, #300]	(8001c50 <stepping_switch+0x164>)
 8001b24:	685b      	ldr	r3, [r3, #4]
 8001b26:	f003 030c 	and.w	r3, r3, #12	; 0xc
 8001b2a:	2b00      	cmp	r3, #0
 8001b2c:	d1f9      	bne.n	8001b22 <stepping_switch+0x36>
 8001b2e:	4a48      	ldr	r2, [pc, #288]	(8001c50 <stepping_switch+0x164>)
 8001b30:	4b47      	ldr	r3, [pc, #284]	(8001c50 <stepping_switch+0x164>)
 8001b32:	681b      	ldr	r3, [r3, #0]
 8001b34:	f023 7380 	bic.w	r3, r3, #16777216	; 0x1000000
 8001b38:	6013      	str	r3, [r2, #0]
 8001b3a:	9b00      	ldr	r3, [sp, #0]
 8001b3c:	2b00      	cmp	r3, #0
 8001b3e:	d03f      	beq.n	8001bc0 <stepping_switch+0xd4>
 8001b40:	4b44      	ldr	r3, [pc, #272]	(8001c54 <stepping_switch+0x168>)
 8001b42:	681b      	ldr	r3, [r3, #0]
 8001b44:	461a      	mov	r2, r3
 8001b46:	4b44      	ldr	r3, [pc, #272]	(8001c58 <stepping_switch+0x16c>)
 8001b48:	601a      	str	r2, [r3, #0]
 8001b4a:	4a44      	ldr	r2, [pc, #272]	(8001c5c <stepping_switch+0x170>)
 8001b4c:	4b43      	ldr	r3, [pc, #268]	(8001c5c <stepping_switch+0x170>)
 8001b4e:	681b      	ldr	r3, [r3, #0]
 8001b50:	f023 0303 	bic.w	r3, r3, #3	; 0x3
 8001b54:	6013      	str	r3, [r2, #0]
 8001b56:	4a41      	ldr	r2, [pc, #260]	(8001c5c <stepping_switch+0x170>)
 8001b58:	4b40      	ldr	r3, [pc, #256]	(8001c5c <stepping_switch+0x170>)
 8001b5a:	681b      	ldr	r3, [r3, #0]
 8001b5c:	f043 0302 	orr.w	r3, r3, #2	; 0x2
 8001b60:	6013      	str	r3, [r2, #0]
 8001b62:	4a3b      	ldr	r2, [pc, #236]	(8001c50 <stepping_switch+0x164>)
 8001b64:	4b3a      	ldr	r3, [pc, #232]	(8001c50 <stepping_switch+0x164>)
 8001b66:	685b      	ldr	r3, [r3, #4]
 8001b68:	f423 137c 	bic.w	r3, r3, #4128768	; 0x3f0000
 8001b6c:	6053      	str	r3, [r2, #4]
 8001b6e:	4a38      	ldr	r2, [pc, #224]	(8001c50 <stepping_switch+0x164>)
 8001b70:	4b37      	ldr	r3, [pc, #220]	(8001c50 <stepping_switch+0x164>)
 8001b72:	685b      	ldr	r3, [r3, #4]
 8001b74:	f443 13e8 	orr.w	r3, r3, #1900544	; 0x1d0000
 8001b78:	6053      	str	r3, [r2, #4]
 8001b7a:	4a35      	ldr	r2, [pc, #212]	(8001c50 <stepping_switch+0x164>)
 8001b7c:	4b34      	ldr	r3, [pc, #208]	(8001c50 <stepping_switch+0x164>)
 8001b7e:	681b      	ldr	r3, [r3, #0]
 8001b80:	f043 7380 	orr.w	r3, r3, #16777216	; 0x1000000
 8001b84:	6013      	str	r3, [r2, #0]
 8001b86:	4b32      	ldr	r3, [pc, #200]	(8001c50 <stepping_switch+0x164>)
 8001b88:	681b      	ldr	r3, [r3, #0]
 8001b8a:	f003 7300 	and.w	r3, r3, #33554432	; 0x2000000
 8001b8e:	2b00      	cmp	r3, #0
 8001b90:	d0f9      	beq.n	8001b86 <stepping_switch+0x9a>
 8001b92:	4a2f      	ldr	r2, [pc, #188]	(8001c50 <stepping_switch+0x164>)
 8001b94:	4b2e      	ldr	r3, [pc, #184]	(8001c50 <stepping_switch+0x164>)
 8001b96:	685b      	ldr	r3, [r3, #4]
 8001b98:	f023 0303 	bic.w	r3, r3, #3	; 0x3
 8001b9c:	6053      	str	r3, [r2, #4]
 8001b9e:	4a2c      	ldr	r2, [pc, #176]	(8001c50 <stepping_switch+0x164>)
 8001ba0:	4b2b      	ldr	r3, [pc, #172]	(8001c50 <stepping_switch+0x164>)
 8001ba2:	685b      	ldr	r3, [r3, #4]
 8001ba4:	f043 0302 	orr.w	r3, r3, #2	; 0x2
 8001ba8:	6053      	str	r3, [r2, #4]
 8001baa:	4b29      	ldr	r3, [pc, #164]	(8001c50 <stepping_switch+0x164>)
 8001bac:	685b      	ldr	r3, [r3, #4]
 8001bae:	f003 030c 	and.w	r3, r3, #12	; 0xc
 8001bb2:	2b08      	cmp	r3, #8
 8001bb4:	d1f9      	bne.n	8001baa <stepping_switch+0xbe>
 8001bb6:	4b2a      	ldr	r3, [pc, #168]	(8001c60 <stepping_switch+0x174>)
 8001bb8:	f240 2271 	movw	r2, #625	; 0x271
 8001bbc:	811a      	strh	r2, [r3, #8]
 8001bbe:	e034      	b.n	8001c2a <stepping_switch+0x13e>
 8001bc0:	4a25      	ldr	r2, [pc, #148]	(8001c58 <stepping_switch+0x16c>)
 8001bc2:	4b28      	ldr	r3, [pc, #160]	(8001c64 <stepping_switch+0x178>)
 8001bc4:	6013      	str	r3, [r2, #0]
 8001bc6:	4a25      	ldr	r2, [pc, #148]	(8001c5c <stepping_switch+0x170>)
 8001bc8:	4b24      	ldr	r3, [pc, #144]	(8001c5c <stepping_switch+0x170>)
 8001bca:	681b      	ldr	r3, [r3, #0]
 8001bcc:	f023 0303 	bic.w	r3, r3, #3	; 0x3
 8001bd0:	6013      	str	r3, [r2, #0]
 8001bd2:	4a22      	ldr	r2, [pc, #136]	(8001c5c <stepping_switch+0x170>)
 8001bd4:	4b21      	ldr	r3, [pc, #132]	(8001c5c <stepping_switch+0x170>)
 8001bd6:	681b      	ldr	r3, [r3, #0]
 8001bd8:	6013      	str	r3, [r2, #0]
 8001bda:	4a1d      	ldr	r2, [pc, #116]	(8001c50 <stepping_switch+0x164>)
 8001bdc:	4b1c      	ldr	r3, [pc, #112]	(8001c50 <stepping_switch+0x164>)
 8001bde:	685b      	ldr	r3, [r3, #4]
 8001be0:	f423 3340 	bic.w	r3, r3, #196608	; 0x30000
 8001be4:	6053      	str	r3, [r2, #4]
 8001be6:	4a1a      	ldr	r2, [pc, #104]	(8001c50 <stepping_switch+0x164>)
 8001be8:	4b19      	ldr	r3, [pc, #100]	(8001c50 <stepping_switch+0x164>)
 8001bea:	685b      	ldr	r3, [r3, #4]
 8001bec:	f443 1374 	orr.w	r3, r3, #3997696	; 0x3d0000
 8001bf0:	6053      	str	r3, [r2, #4]
 8001bf2:	4a17      	ldr	r2, [pc, #92]	(8001c50 <stepping_switch+0x164>)
 8001bf4:	4b16      	ldr	r3, [pc, #88]	(8001c50 <stepping_switch+0x164>)
 8001bf6:	681b      	ldr	r3, [r3, #0]
 8001bf8:	f043 7380 	orr.w	r3, r3, #16777216	; 0x1000000
 8001bfc:	6013      	str	r3, [r2, #0]
 8001bfe:	4a14      	ldr	r2, [pc, #80]	(8001c50 <stepping_switch+0x164>)
 8001c00:	4b13      	ldr	r3, [pc, #76]	(8001c50 <stepping_switch+0x164>)
 8001c02:	685b      	ldr	r3, [r3, #4]
 8001c04:	f023 0303 	bic.w	r3, r3, #3	; 0x3
 8001c08:	6053      	str	r3, [r2, #4]
 8001c0a:	4a11      	ldr	r2, [pc, #68]	(8001c50 <stepping_switch+0x164>)
 8001c0c:	4b10      	ldr	r3, [pc, #64]	(8001c50 <stepping_switch+0x164>)
 8001c0e:	685b      	ldr	r3, [r3, #4]
 8001c10:	f043 0302 	orr.w	r3, r3, #2	; 0x2
 8001c14:	6053      	str	r3, [r2, #4]
 8001c16:	4b0e      	ldr	r3, [pc, #56]	(8001c50 <stepping_switch+0x164>)
 8001c18:	685b      	ldr	r3, [r3, #4]
 8001c1a:	f003 030c 	and.w	r3, r3, #12	; 0xc
 8001c1e:	2b08      	cmp	r3, #8
 8001c20:	d1f9      	bne.n	8001c16 <stepping_switch+0x12a>
 8001c22:	4b0f      	ldr	r3, [pc, #60]	(8001c60 <stepping_switch+0x174>)
 8001c24:	f04f 028b 	mov.w	r2, #139	; 0x8b
 8001c28:	811a      	strh	r2, [r3, #8]
 8001c2a:	4b0b      	ldr	r3, [pc, #44]	(8001c58 <stepping_switch+0x16c>)
 8001c2c:	6819      	ldr	r1, [r3, #0]
 8001c2e:	4b0e      	ldr	r3, [pc, #56]	(8001c68 <stepping_switch+0x17c>)
 8001c30:	fb83 2301 	smull	r2, r3, r3, r1
 8001c34:	ea4f 12a3 	mov.w	r2, r3, asr #6
 8001c38:	ea4f 73e1 	mov.w	r3, r1, asr #31
 8001c3c:	ebc3 0302 	rsb	r3, r3, r2
 8001c40:	4618      	mov	r0, r3
 8001c42:	f7ff fce3 	bl	800160c <SysTick_Config>
 8001c46:	f000 f813 	bl	8001c70 <__enable_irq>
 8001c4a:	b001      	add	sp, #4
 8001c4c:	bd00      	pop	{pc}
 8001c4e:	46c0      	nop			(mov r8, r8)
 8001c50:	40021000 	.word	0x40021000
 8001c54:	080092e8 	.word	0x080092e8
 8001c58:	200000f8 	.word	0x200000f8
 8001c5c:	40022000 	.word	0x40022000
 8001c60:	40013800 	.word	0x40013800
 8001c64:	00f42400 	.word	0x00f42400
 8001c68:	10624dd3 	.word	0x10624dd3

08001c6c <__disable_irq>:
 8001c6c:	b672      	cpsid	i
 8001c6e:	4770      	bx	lr

08001c70 <__enable_irq>:
 8001c70:	b662      	cpsie	i
 8001c72:	4770      	bx	lr

08001c74 <cpu_reset>:
 8001c74:	b500      	push	{lr}
 8001c76:	f44f 6000 	mov.w	r0, #2048	; 0x800
 8001c7a:	f04f 0101 	mov.w	r1, #1	; 0x1
 8001c7e:	f001 fbe9 	bl	8003454 <RCC_APB1PeriphClockCmd>
 8001c82:	f04f 004f 	mov.w	r0, #79	; 0x4f
 8001c86:	f006 fe8b 	bl	80089a0 <WWDG_Enable>
 8001c8a:	e7fe      	b.n	8001c8a <cpu_reset+0x16>

08001c8c <SystemInit>:
 8001c8c:	b500      	push	{lr}
 8001c8e:	f001 f929 	bl	8002ee4 <RCC_DeInit>
 8001c92:	4a1a      	ldr	r2, [pc, #104]	(8001cfc <SystemInit+0x70>)
 8001c94:	4b19      	ldr	r3, [pc, #100]	(8001cfc <SystemInit+0x70>)
 8001c96:	681b      	ldr	r3, [r3, #0]
 8001c98:	f043 0301 	orr.w	r3, r3, #1	; 0x1
 8001c9c:	6013      	str	r3, [r2, #0]
 8001c9e:	4b17      	ldr	r3, [pc, #92]	(8001cfc <SystemInit+0x70>)
 8001ca0:	681b      	ldr	r3, [r3, #0]
 8001ca2:	f003 0302 	and.w	r3, r3, #2	; 0x2
 8001ca6:	2b00      	cmp	r3, #0
 8001ca8:	d0f9      	beq.n	8001c9e <SystemInit+0x12>
 8001caa:	4914      	ldr	r1, [pc, #80]	(8001cfc <SystemInit+0x70>)
 8001cac:	4b13      	ldr	r3, [pc, #76]	(8001cfc <SystemInit+0x70>)
 8001cae:	685a      	ldr	r2, [r3, #4]
 8001cb0:	4b13      	ldr	r3, [pc, #76]	(8001d00 <SystemInit+0x74>)
 8001cb2:	ea02 0303 	and.w	r3, r2, r3
 8001cb6:	604b      	str	r3, [r1, #4]
 8001cb8:	4a10      	ldr	r2, [pc, #64]	(8001cfc <SystemInit+0x70>)
 8001cba:	4b10      	ldr	r3, [pc, #64]	(8001cfc <SystemInit+0x70>)
 8001cbc:	681b      	ldr	r3, [r3, #0]
 8001cbe:	f023 7384 	bic.w	r3, r3, #17301504	; 0x1080000
 8001cc2:	f423 3380 	bic.w	r3, r3, #65536	; 0x10000
 8001cc6:	6013      	str	r3, [r2, #0]
 8001cc8:	4a0c      	ldr	r2, [pc, #48]	(8001cfc <SystemInit+0x70>)
 8001cca:	4b0c      	ldr	r3, [pc, #48]	(8001cfc <SystemInit+0x70>)
 8001ccc:	681b      	ldr	r3, [r3, #0]
 8001cce:	f023 7380 	bic.w	r3, r3, #16777216	; 0x1000000
 8001cd2:	6013      	str	r3, [r2, #0]
 8001cd4:	4a09      	ldr	r2, [pc, #36]	(8001cfc <SystemInit+0x70>)
 8001cd6:	4b09      	ldr	r3, [pc, #36]	(8001cfc <SystemInit+0x70>)
 8001cd8:	681b      	ldr	r3, [r3, #0]
 8001cda:	f423 2380 	bic.w	r3, r3, #262144	; 0x40000
 8001cde:	6013      	str	r3, [r2, #0]
 8001ce0:	4a06      	ldr	r2, [pc, #24]	(8001cfc <SystemInit+0x70>)
 8001ce2:	4b06      	ldr	r3, [pc, #24]	(8001cfc <SystemInit+0x70>)
 8001ce4:	685b      	ldr	r3, [r3, #4]
 8001ce6:	f423 03fe 	bic.w	r3, r3, #8323072	; 0x7f0000
 8001cea:	6053      	str	r3, [r2, #4]
 8001cec:	4a03      	ldr	r2, [pc, #12]	(8001cfc <SystemInit+0x70>)
 8001cee:	f44f 031f 	mov.w	r3, #10420224	; 0x9f0000
 8001cf2:	6093      	str	r3, [r2, #8]
 8001cf4:	f000 f806 	bl	8001d04 <SetSysClock>
 8001cf8:	bd00      	pop	{pc}
 8001cfa:	46c0      	nop			(mov r8, r8)
 8001cfc:	40021000 	.word	0x40021000
 8001d00:	f8ff0000 	.word	0xf8ff0000

08001d04 <SetSysClock>:
 8001d04:	b500      	push	{lr}
 8001d06:	f000 f801 	bl	8001d0c <SetSysClockTo72>
 8001d0a:	bd00      	pop	{pc}

08001d0c <SetSysClockTo72>:
 8001d0c:	b082      	sub	sp, #8
 8001d0e:	f04f 0300 	mov.w	r3, #0	; 0x0
 8001d12:	9301      	str	r3, [sp, #4]
 8001d14:	f04f 0300 	mov.w	r3, #0	; 0x0
 8001d18:	9300      	str	r3, [sp, #0]
 8001d1a:	4a3a      	ldr	r2, [pc, #232]	(8001e04 <SetSysClockTo72+0xf8>)
 8001d1c:	4b39      	ldr	r3, [pc, #228]	(8001e04 <SetSysClockTo72+0xf8>)
 8001d1e:	681b      	ldr	r3, [r3, #0]
 8001d20:	f443 3380 	orr.w	r3, r3, #65536	; 0x10000
 8001d24:	6013      	str	r3, [r2, #0]
 8001d26:	4b37      	ldr	r3, [pc, #220]	(8001e04 <SetSysClockTo72+0xf8>)
 8001d28:	681b      	ldr	r3, [r3, #0]
 8001d2a:	f403 3300 	and.w	r3, r3, #131072	; 0x20000
 8001d2e:	9300      	str	r3, [sp, #0]
 8001d30:	9b01      	ldr	r3, [sp, #4]
 8001d32:	f103 0301 	add.w	r3, r3, #1	; 0x1
 8001d36:	9301      	str	r3, [sp, #4]
 8001d38:	9b00      	ldr	r3, [sp, #0]
 8001d3a:	2b00      	cmp	r3, #0
 8001d3c:	d103      	bne.n	8001d46 <SetSysClockTo72+0x3a>
 8001d3e:	9b01      	ldr	r3, [sp, #4]
 8001d40:	f5b3 6fa0 	cmp.w	r3, #1280	; 0x500
 8001d44:	d1ef      	bne.n	8001d26 <SetSysClockTo72+0x1a>
 8001d46:	4b2f      	ldr	r3, [pc, #188]	(8001e04 <SetSysClockTo72+0xf8>)
 8001d48:	681b      	ldr	r3, [r3, #0]
 8001d4a:	f403 3300 	and.w	r3, r3, #131072	; 0x20000
 8001d4e:	2b00      	cmp	r3, #0
 8001d50:	d003      	beq.n	8001d5a <SetSysClockTo72+0x4e>
 8001d52:	f04f 0301 	mov.w	r3, #1	; 0x1
 8001d56:	9300      	str	r3, [sp, #0]
 8001d58:	e002      	b.n	8001d60 <SetSysClockTo72+0x54>
 8001d5a:	f04f 0300 	mov.w	r3, #0	; 0x0
 8001d5e:	9300      	str	r3, [sp, #0]
 8001d60:	9b00      	ldr	r3, [sp, #0]
 8001d62:	2b01      	cmp	r3, #1
 8001d64:	d14a      	bne.n	8001dfc <SetSysClockTo72+0xf0>
 8001d66:	4a28      	ldr	r2, [pc, #160]	(8001e08 <SetSysClockTo72+0xfc>)
 8001d68:	4b27      	ldr	r3, [pc, #156]	(8001e08 <SetSysClockTo72+0xfc>)
 8001d6a:	681b      	ldr	r3, [r3, #0]
 8001d6c:	f043 0310 	orr.w	r3, r3, #16	; 0x10
 8001d70:	6013      	str	r3, [r2, #0]
 8001d72:	4a25      	ldr	r2, [pc, #148]	(8001e08 <SetSysClockTo72+0xfc>)
 8001d74:	4b24      	ldr	r3, [pc, #144]	(8001e08 <SetSysClockTo72+0xfc>)
 8001d76:	681b      	ldr	r3, [r3, #0]
 8001d78:	f023 0303 	bic.w	r3, r3, #3	; 0x3
 8001d7c:	6013      	str	r3, [r2, #0]
 8001d7e:	4a22      	ldr	r2, [pc, #136]	(8001e08 <SetSysClockTo72+0xfc>)
 8001d80:	4b21      	ldr	r3, [pc, #132]	(8001e08 <SetSysClockTo72+0xfc>)
 8001d82:	681b      	ldr	r3, [r3, #0]
 8001d84:	f043 0302 	orr.w	r3, r3, #2	; 0x2
 8001d88:	6013      	str	r3, [r2, #0]
 8001d8a:	4a1e      	ldr	r2, [pc, #120]	(8001e04 <SetSysClockTo72+0xf8>)
 8001d8c:	4b1d      	ldr	r3, [pc, #116]	(8001e04 <SetSysClockTo72+0xf8>)
 8001d8e:	685b      	ldr	r3, [r3, #4]
 8001d90:	6053      	str	r3, [r2, #4]
 8001d92:	4a1c      	ldr	r2, [pc, #112]	(8001e04 <SetSysClockTo72+0xf8>)
 8001d94:	4b1b      	ldr	r3, [pc, #108]	(8001e04 <SetSysClockTo72+0xf8>)
 8001d96:	685b      	ldr	r3, [r3, #4]
 8001d98:	6053      	str	r3, [r2, #4]
 8001d9a:	4a1a      	ldr	r2, [pc, #104]	(8001e04 <SetSysClockTo72+0xf8>)
 8001d9c:	4b19      	ldr	r3, [pc, #100]	(8001e04 <SetSysClockTo72+0xf8>)
 8001d9e:	685b      	ldr	r3, [r3, #4]
 8001da0:	f443 6380 	orr.w	r3, r3, #1024	; 0x400
 8001da4:	6053      	str	r3, [r2, #4]
 8001da6:	4a17      	ldr	r2, [pc, #92]	(8001e04 <SetSysClockTo72+0xf8>)
 8001da8:	4b16      	ldr	r3, [pc, #88]	(8001e04 <SetSysClockTo72+0xf8>)
 8001daa:	685b      	ldr	r3, [r3, #4]
 8001dac:	f423 137c 	bic.w	r3, r3, #4128768	; 0x3f0000
 8001db0:	6053      	str	r3, [r2, #4]
 8001db2:	4a14      	ldr	r2, [pc, #80]	(8001e04 <SetSysClockTo72+0xf8>)
 8001db4:	4b13      	ldr	r3, [pc, #76]	(8001e04 <SetSysClockTo72+0xf8>)
 8001db6:	685b      	ldr	r3, [r3, #4]
 8001db8:	f443 13e8 	orr.w	r3, r3, #1900544	; 0x1d0000
 8001dbc:	6053      	str	r3, [r2, #4]
 8001dbe:	4a11      	ldr	r2, [pc, #68]	(8001e04 <SetSysClockTo72+0xf8>)
 8001dc0:	4b10      	ldr	r3, [pc, #64]	(8001e04 <SetSysClockTo72+0xf8>)
 8001dc2:	681b      	ldr	r3, [r3, #0]
 8001dc4:	f043 7380 	orr.w	r3, r3, #16777216	; 0x1000000
 8001dc8:	6013      	str	r3, [r2, #0]
 8001dca:	4b0e      	ldr	r3, [pc, #56]	(8001e04 <SetSysClockTo72+0xf8>)
 8001dcc:	681b      	ldr	r3, [r3, #0]
 8001dce:	f003 7300 	and.w	r3, r3, #33554432	; 0x2000000
 8001dd2:	2b00      	cmp	r3, #0
 8001dd4:	d0f9      	beq.n	8001dca <SetSysClockTo72+0xbe>
 8001dd6:	4a0b      	ldr	r2, [pc, #44]	(8001e04 <SetSysClockTo72+0xf8>)
 8001dd8:	4b0a      	ldr	r3, [pc, #40]	(8001e04 <SetSysClockTo72+0xf8>)
 8001dda:	685b      	ldr	r3, [r3, #4]
 8001ddc:	f023 0303 	bic.w	r3, r3, #3	; 0x3
 8001de0:	6053      	str	r3, [r2, #4]
 8001de2:	4a08      	ldr	r2, [pc, #32]	(8001e04 <SetSysClockTo72+0xf8>)
 8001de4:	4b07      	ldr	r3, [pc, #28]	(8001e04 <SetSysClockTo72+0xf8>)
 8001de6:	685b      	ldr	r3, [r3, #4]
 8001de8:	f043 0302 	orr.w	r3, r3, #2	; 0x2
 8001dec:	6053      	str	r3, [r2, #4]
 8001dee:	4b05      	ldr	r3, [pc, #20]	(8001e04 <SetSysClockTo72+0xf8>)
 8001df0:	685b      	ldr	r3, [r3, #4]
 8001df2:	f003 030c 	and.w	r3, r3, #12	; 0xc
 8001df6:	2b08      	cmp	r3, #8
 8001df8:	d1f9      	bne.n	8001dee <SetSysClockTo72+0xe2>
 8001dfa:	e000      	b.n	8001dfe <SetSysClockTo72+0xf2>
 8001dfc:	e7fe      	b.n	8001dfc <SetSysClockTo72+0xf0>
 8001dfe:	b002      	add	sp, #8
 8001e00:	4770      	bx	lr
 8001e02:	46c0      	nop			(mov r8, r8)
 8001e04:	40021000 	.word	0x40021000
 8001e08:	40022000 	.word	0x40022000

08001e0c <NVIC_PriorityGroupConfig>:
 8001e0c:	b081      	sub	sp, #4
 8001e0e:	9000      	str	r0, [sp, #0]
 8001e10:	4a04      	ldr	r2, [pc, #16]	(8001e24 <NVIC_PriorityGroupConfig+0x18>)
 8001e12:	9b00      	ldr	r3, [sp, #0]
 8001e14:	f043 63be 	orr.w	r3, r3, #99614720	; 0x5f00000
 8001e18:	f443 2320 	orr.w	r3, r3, #655360	; 0xa0000
 8001e1c:	60d3      	str	r3, [r2, #12]
 8001e1e:	b001      	add	sp, #4
 8001e20:	4770      	bx	lr
 8001e22:	46c0      	nop			(mov r8, r8)
 8001e24:	e000ed00 	.word	0xe000ed00

08001e28 <NVIC_Init>:
 8001e28:	b084      	sub	sp, #16
 8001e2a:	9000      	str	r0, [sp, #0]
 8001e2c:	f04f 0300 	mov.w	r3, #0	; 0x0
 8001e30:	9301      	str	r3, [sp, #4]
 8001e32:	f04f 0300 	mov.w	r3, #0	; 0x0
 8001e36:	9302      	str	r3, [sp, #8]
 8001e38:	f04f 030f 	mov.w	r3, #15	; 0xf
 8001e3c:	9303      	str	r3, [sp, #12]
 8001e3e:	9b00      	ldr	r3, [sp, #0]
 8001e40:	685b      	ldr	r3, [r3, #4]
 8001e42:	2b00      	cmp	r3, #0
 8001e44:	d041      	beq.n	8001eca <NVIC_Init+0xa2>
 8001e46:	4b2b      	ldr	r3, [pc, #172]	(8001ef4 <NVIC_Init+0xcc>)
 8001e48:	68db      	ldr	r3, [r3, #12]
 8001e4a:	ea6f 0303 	mvn.w	r3, r3
 8001e4e:	f403 63e0 	and.w	r3, r3, #1792	; 0x700
 8001e52:	ea4f 2313 	mov.w	r3, r3, lsr #8
 8001e56:	9301      	str	r3, [sp, #4]
 8001e58:	9b01      	ldr	r3, [sp, #4]
 8001e5a:	f1c3 0304 	rsb	r3, r3, #4	; 0x4
 8001e5e:	9302      	str	r3, [sp, #8]
 8001e60:	9a01      	ldr	r2, [sp, #4]
 8001e62:	9b03      	ldr	r3, [sp, #12]
 8001e64:	fa23 f302 	lsr.w	r3, r3, r2
 8001e68:	9303      	str	r3, [sp, #12]
 8001e6a:	9b00      	ldr	r3, [sp, #0]
 8001e6c:	785b      	ldrb	r3, [r3, #1]
 8001e6e:	461a      	mov	r2, r3
 8001e70:	9b02      	ldr	r3, [sp, #8]
 8001e72:	fa02 f303 	lsl.w	r3, r2, r3
 8001e76:	9301      	str	r3, [sp, #4]
 8001e78:	9b00      	ldr	r3, [sp, #0]
 8001e7a:	789b      	ldrb	r3, [r3, #2]
 8001e7c:	461a      	mov	r2, r3
 8001e7e:	9b03      	ldr	r3, [sp, #12]
 8001e80:	ea02 0203 	and.w	r2, r2, r3
 8001e84:	9b01      	ldr	r3, [sp, #4]
 8001e86:	ea43 0302 	orr.w	r3, r3, r2
 8001e8a:	9301      	str	r3, [sp, #4]
 8001e8c:	9b01      	ldr	r3, [sp, #4]
 8001e8e:	ea4f 1303 	mov.w	r3, r3, lsl #4
 8001e92:	9301      	str	r3, [sp, #4]
 8001e94:	4918      	ldr	r1, [pc, #96]	(8001ef8 <NVIC_Init+0xd0>)
 8001e96:	9b00      	ldr	r3, [sp, #0]
 8001e98:	781b      	ldrb	r3, [r3, #0]
 8001e9a:	461a      	mov	r2, r3
 8001e9c:	9b01      	ldr	r3, [sp, #4]
 8001e9e:	b2db      	uxtb	r3, r3
 8001ea0:	440a      	add	r2, r1
 8001ea2:	f882 3300 	strb.w	r3, [r2, #768]
 8001ea6:	4814      	ldr	r0, [pc, #80]	(8001ef8 <NVIC_Init+0xd0>)
 8001ea8:	9b00      	ldr	r3, [sp, #0]
 8001eaa:	781b      	ldrb	r3, [r3, #0]
 8001eac:	ea4f 1353 	mov.w	r3, r3, lsr #5
 8001eb0:	b2db      	uxtb	r3, r3
 8001eb2:	4619      	mov	r1, r3
 8001eb4:	9b00      	ldr	r3, [sp, #0]
 8001eb6:	781b      	ldrb	r3, [r3, #0]
 8001eb8:	f003 021f 	and.w	r2, r3, #31	; 0x1f
 8001ebc:	f04f 0301 	mov.w	r3, #1	; 0x1
 8001ec0:	fa03 f302 	lsl.w	r3, r3, r2
 8001ec4:	f840 3021 	str.w	r3, [r0, r1, lsl #2]
 8001ec8:	e012      	b.n	8001ef0 <NVIC_Init+0xc8>
 8001eca:	480b      	ldr	r0, [pc, #44]	(8001ef8 <NVIC_Init+0xd0>)
 8001ecc:	9b00      	ldr	r3, [sp, #0]
 8001ece:	781b      	ldrb	r3, [r3, #0]
 8001ed0:	ea4f 1353 	mov.w	r3, r3, lsr #5
 8001ed4:	b2db      	uxtb	r3, r3
 8001ed6:	4619      	mov	r1, r3
 8001ed8:	9b00      	ldr	r3, [sp, #0]
 8001eda:	781b      	ldrb	r3, [r3, #0]
 8001edc:	f003 021f 	and.w	r2, r3, #31	; 0x1f
 8001ee0:	f04f 0301 	mov.w	r3, #1	; 0x1
 8001ee4:	fa03 f202 	lsl.w	r2, r3, r2
 8001ee8:	f101 0320 	add.w	r3, r1, #32	; 0x20
 8001eec:	f840 2023 	str.w	r2, [r0, r3, lsl #2]
 8001ef0:	b004      	add	sp, #16
 8001ef2:	4770      	bx	lr
 8001ef4:	e000ed00 	.word	0xe000ed00
 8001ef8:	e000e100 	.word	0xe000e100

08001efc <NVIC_SetVectorTable>:
 8001efc:	b082      	sub	sp, #8
 8001efe:	9001      	str	r0, [sp, #4]
 8001f00:	9100      	str	r1, [sp, #0]
 8001f02:	4906      	ldr	r1, [pc, #24]	(8001f1c <NVIC_SetVectorTable+0x20>)
 8001f04:	9b00      	ldr	r3, [sp, #0]
 8001f06:	f023 4360 	bic.w	r3, r3, #3758096384	; 0xe0000000
 8001f0a:	f023 037f 	bic.w	r3, r3, #127	; 0x7f
 8001f0e:	9a01      	ldr	r2, [sp, #4]
 8001f10:	ea43 0302 	orr.w	r3, r3, r2
 8001f14:	608b      	str	r3, [r1, #8]
 8001f16:	b002      	add	sp, #8
 8001f18:	4770      	bx	lr
 8001f1a:	46c0      	nop			(mov r8, r8)
 8001f1c:	e000ed00 	.word	0xe000ed00

08001f20 <NVIC_SystemLPConfig>:
 8001f20:	b082      	sub	sp, #8
 8001f22:	4603      	mov	r3, r0
 8001f24:	9100      	str	r1, [sp, #0]
 8001f26:	f88d 3004 	strb.w	r3, [sp, #4]
 8001f2a:	9b00      	ldr	r3, [sp, #0]
 8001f2c:	2b00      	cmp	r3, #0
 8001f2e:	d008      	beq.n	8001f42 <NVIC_SystemLPConfig+0x22>
 8001f30:	490a      	ldr	r1, [pc, #40]	(8001f5c <NVIC_SystemLPConfig+0x3c>)
 8001f32:	4b0a      	ldr	r3, [pc, #40]	(8001f5c <NVIC_SystemLPConfig+0x3c>)
 8001f34:	691a      	ldr	r2, [r3, #16]
 8001f36:	f89d 3004 	ldrb.w	r3, [sp, #4]
 8001f3a:	ea42 0303 	orr.w	r3, r2, r3
 8001f3e:	610b      	str	r3, [r1, #16]
 8001f40:	e009      	b.n	8001f56 <NVIC_SystemLPConfig+0x36>
 8001f42:	4906      	ldr	r1, [pc, #24]	(8001f5c <NVIC_SystemLPConfig+0x3c>)
 8001f44:	4b05      	ldr	r3, [pc, #20]	(8001f5c <NVIC_SystemLPConfig+0x3c>)
 8001f46:	691a      	ldr	r2, [r3, #16]
 8001f48:	f89d 3004 	ldrb.w	r3, [sp, #4]
 8001f4c:	ea6f 0303 	mvn.w	r3, r3
 8001f50:	ea02 0303 	and.w	r3, r2, r3
 8001f54:	610b      	str	r3, [r1, #16]
 8001f56:	b002      	add	sp, #8
 8001f58:	4770      	bx	lr
 8001f5a:	46c0      	nop			(mov r8, r8)
 8001f5c:	e000ed00 	.word	0xe000ed00

08001f60 <SysTick_CLKSourceConfig>:
 8001f60:	b081      	sub	sp, #4
 8001f62:	9000      	str	r0, [sp, #0]
 8001f64:	9b00      	ldr	r3, [sp, #0]
 8001f66:	2b04      	cmp	r3, #4
 8001f68:	d106      	bne.n	8001f78 <SysTick_CLKSourceConfig+0x18>
 8001f6a:	4a07      	ldr	r2, [pc, #28]	(8001f88 <SysTick_CLKSourceConfig+0x28>)
 8001f6c:	4b06      	ldr	r3, [pc, #24]	(8001f88 <SysTick_CLKSourceConfig+0x28>)
 8001f6e:	681b      	ldr	r3, [r3, #0]
 8001f70:	f043 0304 	orr.w	r3, r3, #4	; 0x4
 8001f74:	6013      	str	r3, [r2, #0]
 8001f76:	e005      	b.n	8001f84 <SysTick_CLKSourceConfig+0x24>
 8001f78:	4a03      	ldr	r2, [pc, #12]	(8001f88 <SysTick_CLKSourceConfig+0x28>)
 8001f7a:	4b03      	ldr	r3, [pc, #12]	(8001f88 <SysTick_CLKSourceConfig+0x28>)
 8001f7c:	681b      	ldr	r3, [r3, #0]
 8001f7e:	f023 0304 	bic.w	r3, r3, #4	; 0x4
 8001f82:	6013      	str	r3, [r2, #0]
 8001f84:	b001      	add	sp, #4
 8001f86:	4770      	bx	lr
 8001f88:	e000e010 	.word	0xe000e010

08001f8c <Reset_Handler>:
 8001f8c:	4668      	mov	r0, sp
 8001f8e:	f020 0107 	bic.w	r1, r0, #7	; 0x7
 8001f92:	468d      	mov	sp, r1
 8001f94:	b501      	push	{r0, lr}
 8001f96:	b081      	sub	sp, #4
 8001f98:	4b0b      	ldr	r3, [pc, #44]	(8001fc8 <Reset_Handler+0x3c>)
 8001f9a:	9300      	str	r3, [sp, #0]
 8001f9c:	e007      	b.n	8001fae <Reset_Handler+0x22>
 8001f9e:	9a00      	ldr	r2, [sp, #0]
 8001fa0:	f04f 0300 	mov.w	r3, #0	; 0x0
 8001fa4:	7013      	strb	r3, [r2, #0]
 8001fa6:	9b00      	ldr	r3, [sp, #0]
 8001fa8:	f103 0301 	add.w	r3, r3, #1	; 0x1
 8001fac:	9300      	str	r3, [sp, #0]
 8001fae:	466a      	mov	r2, sp
 8001fb0:	9b00      	ldr	r3, [sp, #0]
 8001fb2:	429a      	cmp	r2, r3
 8001fb4:	d8f3      	bhi.n	8001f9e <Reset_Handler+0x12>
 8001fb6:	f000 f809 	bl	8001fcc <__Init_Data>
 8001fba:	f7fe fc31 	bl	8000820 <main>
 8001fbe:	b001      	add	sp, #4
 8001fc0:	e8bd 4001 	ldmia.w	sp!, {r0, lr}
 8001fc4:	4685      	mov	sp, r0
 8001fc6:	4770      	bx	lr
 8001fc8:	20000190 	.word	0x20000190

08001fcc <__Init_Data>:
 8001fcc:	b082      	sub	sp, #8
 8001fce:	4b13      	ldr	r3, [pc, #76]	(800201c <__Init_Data+0x50>)
 8001fd0:	9300      	str	r3, [sp, #0]
 8001fd2:	4b13      	ldr	r3, [pc, #76]	(8002020 <__Init_Data+0x54>)
 8001fd4:	9301      	str	r3, [sp, #4]
 8001fd6:	e00b      	b.n	8001ff0 <__Init_Data+0x24>
 8001fd8:	9b00      	ldr	r3, [sp, #0]
 8001fda:	681a      	ldr	r2, [r3, #0]
 8001fdc:	9b01      	ldr	r3, [sp, #4]
 8001fde:	601a      	str	r2, [r3, #0]
 8001fe0:	9b01      	ldr	r3, [sp, #4]
 8001fe2:	f103 0304 	add.w	r3, r3, #4	; 0x4
 8001fe6:	9301      	str	r3, [sp, #4]
 8001fe8:	9b00      	ldr	r3, [sp, #0]
 8001fea:	f103 0304 	add.w	r3, r3, #4	; 0x4
 8001fee:	9300      	str	r3, [sp, #0]
 8001ff0:	9a01      	ldr	r2, [sp, #4]
 8001ff2:	4b0c      	ldr	r3, [pc, #48]	(8002024 <__Init_Data+0x58>)
 8001ff4:	429a      	cmp	r2, r3
 8001ff6:	d3ef      	bcc.n	8001fd8 <__Init_Data+0xc>
 8001ff8:	4b0b      	ldr	r3, [pc, #44]	(8002028 <__Init_Data+0x5c>)
 8001ffa:	9301      	str	r3, [sp, #4]
 8001ffc:	e007      	b.n	800200e <__Init_Data+0x42>
 8001ffe:	9a01      	ldr	r2, [sp, #4]
 8002000:	f04f 0300 	mov.w	r3, #0	; 0x0
 8002004:	6013      	str	r3, [r2, #0]
 8002006:	9b01      	ldr	r3, [sp, #4]
 8002008:	f103 0304 	add.w	r3, r3, #4	; 0x4
 800200c:	9301      	str	r3, [sp, #4]
 800200e:	9a01      	ldr	r2, [sp, #4]
 8002010:	4b06      	ldr	r3, [pc, #24]	(800202c <__Init_Data+0x60>)
 8002012:	429a      	cmp	r2, r3
 8002014:	d3f3      	bcc.n	8001ffe <__Init_Data+0x32>
 8002016:	b002      	add	sp, #8
 8002018:	4770      	bx	lr
 800201a:	46c0      	nop			(mov r8, r8)
 800201c:	08009360 	.word	0x08009360
 8002020:	20000000 	.word	0x20000000
 8002024:	2000004c 	.word	0x2000004c
 8002028:	2000004c 	.word	0x2000004c
 800202c:	20000190 	.word	0x20000190

08002030 <Default_Handler>:
 8002030:	e7fe      	b.n	8002030 <Default_Handler>
 8002032:	46c0      	nop			(mov r8, r8)

08002034 <Halt>:
 8002034:	b081      	sub	sp, #4
 8002036:	f04f 0300 	mov.w	r3, #0	; 0x0
 800203a:	9300      	str	r3, [sp, #0]
 800203c:	9a00      	ldr	r2, [sp, #0]
 800203e:	f04f 0300 	mov.w	r3, #0	; 0x0
 8002042:	6013      	str	r3, [r2, #0]
 8002044:	b001      	add	sp, #4
 8002046:	4770      	bx	lr

08002048 <EE_ReadUShort>:
 8002048:	b500      	push	{lr}
 800204a:	b082      	sub	sp, #8
 800204c:	4603      	mov	r3, r0
 800204e:	9100      	str	r1, [sp, #0]
 8002050:	f8ad 3004 	strh.w	r3, [sp, #4]
 8002054:	f8bd 3004 	ldrh.w	r3, [sp, #4]
 8002058:	4618      	mov	r0, r3
 800205a:	9900      	ldr	r1, [sp, #0]
 800205c:	f000 fbea 	bl	8002834 <EE_ReadVariable>
 8002060:	4603      	mov	r3, r0
 8002062:	2b00      	cmp	r3, #0
 8002064:	bf14      	ite	ne
 8002066:	2300      	movne	r3, #0
 8002068:	2301      	moveq	r3, #1
 800206a:	4618      	mov	r0, r3
 800206c:	b002      	add	sp, #8
 800206e:	bd00      	pop	{pc}

08002070 <EE_WriteUShort>:
 8002070:	b500      	push	{lr}
 8002072:	b082      	sub	sp, #8
 8002074:	4603      	mov	r3, r0
 8002076:	460a      	mov	r2, r1
 8002078:	f8ad 3004 	strh.w	r3, [sp, #4]
 800207c:	4613      	mov	r3, r2
 800207e:	f8ad 3000 	strh.w	r3, [sp]
 8002082:	f8bd 3004 	ldrh.w	r3, [sp, #4]
 8002086:	f8bd 2000 	ldrh.w	r2, [sp]
 800208a:	4618      	mov	r0, r3
 800208c:	4611      	mov	r1, r2
 800208e:	f000 fc2f 	bl	80028f0 <EE_WriteVariable>
 8002092:	4603      	mov	r3, r0
 8002094:	2b04      	cmp	r3, #4
 8002096:	bf14      	ite	ne
 8002098:	2300      	movne	r3, #0
 800209a:	2301      	moveq	r3, #1
 800209c:	4618      	mov	r0, r3
 800209e:	b002      	add	sp, #8
 80020a0:	bd00      	pop	{pc}
 80020a2:	46c0      	nop			(mov r8, r8)

080020a4 <EE_ReadShort>:
 80020a4:	b500      	push	{lr}
 80020a6:	b082      	sub	sp, #8
 80020a8:	4603      	mov	r3, r0
 80020aa:	9100      	str	r1, [sp, #0]
 80020ac:	f8ad 3004 	strh.w	r3, [sp, #4]
 80020b0:	f8bd 3004 	ldrh.w	r3, [sp, #4]
 80020b4:	9a00      	ldr	r2, [sp, #0]
 80020b6:	4618      	mov	r0, r3
 80020b8:	4611      	mov	r1, r2
 80020ba:	f000 fbbb 	bl	8002834 <EE_ReadVariable>
 80020be:	4603      	mov	r3, r0
 80020c0:	2b00      	cmp	r3, #0
 80020c2:	bf14      	ite	ne
 80020c4:	2300      	movne	r3, #0
 80020c6:	2301      	moveq	r3, #1
 80020c8:	4618      	mov	r0, r3
 80020ca:	b002      	add	sp, #8
 80020cc:	bd00      	pop	{pc}
 80020ce:	46c0      	nop			(mov r8, r8)

080020d0 <EE_WriteShort>:
 80020d0:	b500      	push	{lr}
 80020d2:	b082      	sub	sp, #8
 80020d4:	4603      	mov	r3, r0
 80020d6:	460a      	mov	r2, r1
 80020d8:	f8ad 3004 	strh.w	r3, [sp, #4]
 80020dc:	4613      	mov	r3, r2
 80020de:	f8ad 3000 	strh.w	r3, [sp]
 80020e2:	f8bd 2004 	ldrh.w	r2, [sp, #4]
 80020e6:	f8bd 3000 	ldrh.w	r3, [sp]
 80020ea:	4610      	mov	r0, r2
 80020ec:	4619      	mov	r1, r3
 80020ee:	f000 fbff 	bl	80028f0 <EE_WriteVariable>
 80020f2:	4603      	mov	r3, r0
 80020f4:	2b04      	cmp	r3, #4
 80020f6:	bf14      	ite	ne
 80020f8:	2300      	movne	r3, #0
 80020fa:	2301      	moveq	r3, #1
 80020fc:	4618      	mov	r0, r3
 80020fe:	b002      	add	sp, #8
 8002100:	bd00      	pop	{pc}
 8002102:	46c0      	nop			(mov r8, r8)

08002104 <EE_ReadUChar>:
 8002104:	b500      	push	{lr}
 8002106:	b084      	sub	sp, #16
 8002108:	4603      	mov	r3, r0
 800210a:	9100      	str	r1, [sp, #0]
 800210c:	f8ad 3004 	strh.w	r3, [sp, #4]
 8002110:	f8bd 3004 	ldrh.w	r3, [sp, #4]
 8002114:	f10d 020a 	add.w	r2, sp, #10	; 0xa
 8002118:	4618      	mov	r0, r3
 800211a:	4611      	mov	r1, r2
 800211c:	f000 fb8a 	bl	8002834 <EE_ReadVariable>
 8002120:	4603      	mov	r3, r0
 8002122:	2b00      	cmp	r3, #0
 8002124:	bf14      	ite	ne
 8002126:	2300      	movne	r3, #0
 8002128:	2301      	moveq	r3, #1
 800212a:	9303      	str	r3, [sp, #12]
 800212c:	f8bd 300a 	ldrh.w	r3, [sp, #10]
 8002130:	b2db      	uxtb	r3, r3
 8002132:	9a00      	ldr	r2, [sp, #0]
 8002134:	7013      	strb	r3, [r2, #0]
 8002136:	9b03      	ldr	r3, [sp, #12]
 8002138:	4618      	mov	r0, r3
 800213a:	b004      	add	sp, #16
 800213c:	bd00      	pop	{pc}
 800213e:	46c0      	nop			(mov r8, r8)

08002140 <EE_WriteUChar>:
 8002140:	b500      	push	{lr}
 8002142:	b082      	sub	sp, #8
 8002144:	4603      	mov	r3, r0
 8002146:	460a      	mov	r2, r1
 8002148:	f8ad 3004 	strh.w	r3, [sp, #4]
 800214c:	4613      	mov	r3, r2
 800214e:	f88d 3000 	strb.w	r3, [sp]
 8002152:	f8bd 3004 	ldrh.w	r3, [sp, #4]
 8002156:	f89d 2000 	ldrb.w	r2, [sp]
 800215a:	4618      	mov	r0, r3
 800215c:	4611      	mov	r1, r2
 800215e:	f000 fbc7 	bl	80028f0 <EE_WriteVariable>
 8002162:	4603      	mov	r3, r0
 8002164:	2b04      	cmp	r3, #4
 8002166:	bf14      	ite	ne
 8002168:	2300      	movne	r3, #0
 800216a:	2301      	moveq	r3, #1
 800216c:	4618      	mov	r0, r3
 800216e:	b002      	add	sp, #8
 8002170:	bd00      	pop	{pc}
 8002172:	46c0      	nop			(mov r8, r8)

08002174 <EE_ReadChar>:
 8002174:	b500      	push	{lr}
 8002176:	b084      	sub	sp, #16
 8002178:	4603      	mov	r3, r0
 800217a:	9100      	str	r1, [sp, #0]
 800217c:	f8ad 3004 	strh.w	r3, [sp, #4]
 8002180:	f8bd 3004 	ldrh.w	r3, [sp, #4]
 8002184:	f10d 020a 	add.w	r2, sp, #10	; 0xa
 8002188:	4618      	mov	r0, r3
 800218a:	4611      	mov	r1, r2
 800218c:	f000 fb52 	bl	8002834 <EE_ReadVariable>
 8002190:	4603      	mov	r3, r0
 8002192:	2b00      	cmp	r3, #0
 8002194:	bf14      	ite	ne
 8002196:	2300      	movne	r3, #0
 8002198:	2301      	moveq	r3, #1
 800219a:	9303      	str	r3, [sp, #12]
 800219c:	f8bd 300a 	ldrh.w	r3, [sp, #10]
 80021a0:	b2db      	uxtb	r3, r3
 80021a2:	9a00      	ldr	r2, [sp, #0]
 80021a4:	7013      	strb	r3, [r2, #0]
 80021a6:	9b03      	ldr	r3, [sp, #12]
 80021a8:	4618      	mov	r0, r3
 80021aa:	b004      	add	sp, #16
 80021ac:	bd00      	pop	{pc}
 80021ae:	46c0      	nop			(mov r8, r8)

080021b0 <EE_WriteChar>:
 80021b0:	b500      	push	{lr}
 80021b2:	b082      	sub	sp, #8
 80021b4:	4603      	mov	r3, r0
 80021b6:	460a      	mov	r2, r1
 80021b8:	f8ad 3004 	strh.w	r3, [sp, #4]
 80021bc:	4613      	mov	r3, r2
 80021be:	f88d 3000 	strb.w	r3, [sp]
 80021c2:	f8bd 2004 	ldrh.w	r2, [sp, #4]
 80021c6:	f99d 3000 	ldrsb.w	r3, [sp]
 80021ca:	b29b      	uxth	r3, r3
 80021cc:	4610      	mov	r0, r2
 80021ce:	4619      	mov	r1, r3
 80021d0:	f000 fb8e 	bl	80028f0 <EE_WriteVariable>
 80021d4:	4603      	mov	r3, r0
 80021d6:	2b04      	cmp	r3, #4
 80021d8:	bf14      	ite	ne
 80021da:	2300      	movne	r3, #0
 80021dc:	2301      	moveq	r3, #1
 80021de:	4618      	mov	r0, r3
 80021e0:	b002      	add	sp, #8
 80021e2:	bd00      	pop	{pc}

080021e4 <EE_ReadULong>:
 80021e4:	b500      	push	{lr}
 80021e6:	b085      	sub	sp, #20
 80021e8:	4603      	mov	r3, r0
 80021ea:	9101      	str	r1, [sp, #4]
 80021ec:	f8ad 3008 	strh.w	r3, [sp, #8]
 80021f0:	f8bd 2008 	ldrh.w	r2, [sp, #8]
 80021f4:	f8bd 3008 	ldrh.w	r3, [sp, #8]
 80021f8:	f103 0301 	add.w	r3, r3, #1	; 0x1
 80021fc:	f8ad 3008 	strh.w	r3, [sp, #8]
 8002200:	f10d 030e 	add.w	r3, sp, #14	; 0xe
 8002204:	4610      	mov	r0, r2
 8002206:	4619      	mov	r1, r3
 8002208:	f000 fb14 	bl	8002834 <EE_ReadVariable>
 800220c:	4603      	mov	r3, r0
 800220e:	2b00      	cmp	r3, #0
 8002210:	bf14      	ite	ne
 8002212:	2300      	movne	r3, #0
 8002214:	2301      	moveq	r3, #1
 8002216:	9304      	str	r3, [sp, #16]
 8002218:	9b04      	ldr	r3, [sp, #16]
 800221a:	2b01      	cmp	r3, #1
 800221c:	d002      	beq.n	8002224 <EE_ReadULong+0x40>
 800221e:	9b04      	ldr	r3, [sp, #16]
 8002220:	9300      	str	r3, [sp, #0]
 8002222:	e027      	b.n	8002274 <EE_ReadULong+0x90>
 8002224:	f8bd 3008 	ldrh.w	r3, [sp, #8]
 8002228:	aa03      	add	r2, sp, #12
 800222a:	4618      	mov	r0, r3
 800222c:	4611      	mov	r1, r2
 800222e:	f000 fb01 	bl	8002834 <EE_ReadVariable>
 8002232:	4603      	mov	r3, r0
 8002234:	2b00      	cmp	r3, #0
 8002236:	bf14      	ite	ne
 8002238:	2300      	movne	r3, #0
 800223a:	2301      	moveq	r3, #1
 800223c:	9304      	str	r3, [sp, #16]
 800223e:	9b04      	ldr	r3, [sp, #16]
 8002240:	2b01      	cmp	r3, #1
 8002242:	d002      	beq.n	800224a <EE_ReadULong+0x66>
 8002244:	9b04      	ldr	r3, [sp, #16]
 8002246:	9300      	str	r3, [sp, #0]
 8002248:	e014      	b.n	8002274 <EE_ReadULong+0x90>
 800224a:	f8bd 300c 	ldrh.w	r3, [sp, #12]
 800224e:	461a      	mov	r2, r3
 8002250:	9b01      	ldr	r3, [sp, #4]
 8002252:	601a      	str	r2, [r3, #0]
 8002254:	9b01      	ldr	r3, [sp, #4]
 8002256:	681b      	ldr	r3, [r3, #0]
 8002258:	ea4f 4203 	mov.w	r2, r3, lsl #16
 800225c:	9b01      	ldr	r3, [sp, #4]
 800225e:	601a      	str	r2, [r3, #0]
 8002260:	9b01      	ldr	r3, [sp, #4]
 8002262:	681a      	ldr	r2, [r3, #0]
 8002264:	f8bd 300e 	ldrh.w	r3, [sp, #14]
 8002268:	ea42 0203 	orr.w	r2, r2, r3
 800226c:	9b01      	ldr	r3, [sp, #4]
 800226e:	601a      	str	r2, [r3, #0]
 8002270:	9b04      	ldr	r3, [sp, #16]
 8002272:	9300      	str	r3, [sp, #0]
 8002274:	9b00      	ldr	r3, [sp, #0]
 8002276:	4618      	mov	r0, r3
 8002278:	b005      	add	sp, #20
 800227a:	bd00      	pop	{pc}

0800227c <EE_WriteULong>:
 800227c:	b500      	push	{lr}
 800227e:	b085      	sub	sp, #20
 8002280:	4603      	mov	r3, r0
 8002282:	9101      	str	r1, [sp, #4]
 8002284:	f8ad 3008 	strh.w	r3, [sp, #8]
 8002288:	9b01      	ldr	r3, [sp, #4]
 800228a:	f8ad 300c 	strh.w	r3, [sp, #12]
 800228e:	9b01      	ldr	r3, [sp, #4]
 8002290:	ea4f 4313 	mov.w	r3, r3, lsr #16
 8002294:	9301      	str	r3, [sp, #4]
 8002296:	9b01      	ldr	r3, [sp, #4]
 8002298:	f8ad 300e 	strh.w	r3, [sp, #14]
 800229c:	f8bd 2008 	ldrh.w	r2, [sp, #8]
 80022a0:	f8bd 3008 	ldrh.w	r3, [sp, #8]
 80022a4:	f103 0301 	add.w	r3, r3, #1	; 0x1
 80022a8:	f8ad 3008 	strh.w	r3, [sp, #8]
 80022ac:	f8bd 300c 	ldrh.w	r3, [sp, #12]
 80022b0:	4610      	mov	r0, r2
 80022b2:	4619      	mov	r1, r3
 80022b4:	f000 fb1c 	bl	80028f0 <EE_WriteVariable>
 80022b8:	4603      	mov	r3, r0
 80022ba:	2b04      	cmp	r3, #4
 80022bc:	bf14      	ite	ne
 80022be:	2300      	movne	r3, #0
 80022c0:	2301      	moveq	r3, #1
 80022c2:	9304      	str	r3, [sp, #16]
 80022c4:	9b04      	ldr	r3, [sp, #16]
 80022c6:	2b01      	cmp	r3, #1
 80022c8:	d002      	beq.n	80022d0 <EE_WriteULong+0x54>
 80022ca:	9b04      	ldr	r3, [sp, #16]
 80022cc:	9300      	str	r3, [sp, #0]
 80022ce:	e00d      	b.n	80022ec <EE_WriteULong+0x70>
 80022d0:	f8bd 3008 	ldrh.w	r3, [sp, #8]
 80022d4:	f8bd 200e 	ldrh.w	r2, [sp, #14]
 80022d8:	4618      	mov	r0, r3
 80022da:	4611      	mov	r1, r2
 80022dc:	f000 fb08 	bl	80028f0 <EE_WriteVariable>
 80022e0:	4603      	mov	r3, r0
 80022e2:	2b04      	cmp	r3, #4
 80022e4:	bf14      	ite	ne
 80022e6:	2300      	movne	r3, #0
 80022e8:	2301      	moveq	r3, #1
 80022ea:	9300      	str	r3, [sp, #0]
 80022ec:	9b00      	ldr	r3, [sp, #0]
 80022ee:	4618      	mov	r0, r3
 80022f0:	b005      	add	sp, #20
 80022f2:	bd00      	pop	{pc}

080022f4 <EE_ReadLong>:
 80022f4:	b500      	push	{lr}
 80022f6:	b084      	sub	sp, #16
 80022f8:	4603      	mov	r3, r0
 80022fa:	9100      	str	r1, [sp, #0]
 80022fc:	f8ad 3004 	strh.w	r3, [sp, #4]
 8002300:	f8bd 3004 	ldrh.w	r3, [sp, #4]
 8002304:	aa02      	add	r2, sp, #8
 8002306:	4618      	mov	r0, r3
 8002308:	4611      	mov	r1, r2
 800230a:	f7ff ff6b 	bl	80021e4 <EE_ReadULong>
 800230e:	4603      	mov	r3, r0
 8002310:	9303      	str	r3, [sp, #12]
 8002312:	9b02      	ldr	r3, [sp, #8]
 8002314:	461a      	mov	r2, r3
 8002316:	9b00      	ldr	r3, [sp, #0]
 8002318:	601a      	str	r2, [r3, #0]
 800231a:	9b03      	ldr	r3, [sp, #12]
 800231c:	4618      	mov	r0, r3
 800231e:	b004      	add	sp, #16
 8002320:	bd00      	pop	{pc}
 8002322:	46c0      	nop			(mov r8, r8)

08002324 <EE_WriteLong>:
 8002324:	b500      	push	{lr}
 8002326:	b082      	sub	sp, #8
 8002328:	4603      	mov	r3, r0
 800232a:	9100      	str	r1, [sp, #0]
 800232c:	f8ad 3004 	strh.w	r3, [sp, #4]
 8002330:	f8bd 3004 	ldrh.w	r3, [sp, #4]
 8002334:	9a00      	ldr	r2, [sp, #0]
 8002336:	4618      	mov	r0, r3
 8002338:	4611      	mov	r1, r2
 800233a:	f7ff ff9f 	bl	800227c <EE_WriteULong>
 800233e:	4603      	mov	r3, r0
 8002340:	4618      	mov	r0, r3
 8002342:	b002      	add	sp, #8
 8002344:	bd00      	pop	{pc}
 8002346:	46c0      	nop			(mov r8, r8)

08002348 <EE_ReadString>:
 8002348:	b500      	push	{lr}
 800234a:	b086      	sub	sp, #24
 800234c:	4603      	mov	r3, r0
 800234e:	9102      	str	r1, [sp, #8]
 8002350:	9201      	str	r2, [sp, #4]
 8002352:	f8ad 300c 	strh.w	r3, [sp, #12]
 8002356:	f8bd 200c 	ldrh.w	r2, [sp, #12]
 800235a:	f8bd 300c 	ldrh.w	r3, [sp, #12]
 800235e:	f103 0301 	add.w	r3, r3, #1	; 0x1
 8002362:	f8ad 300c 	strh.w	r3, [sp, #12]
 8002366:	f10d 0313 	add.w	r3, sp, #19	; 0x13
 800236a:	4610      	mov	r0, r2
 800236c:	4619      	mov	r1, r3
 800236e:	f7ff ff01 	bl	8002174 <EE_ReadChar>
 8002372:	4603      	mov	r3, r0
 8002374:	9305      	str	r3, [sp, #20]
 8002376:	9b05      	ldr	r3, [sp, #20]
 8002378:	2b01      	cmp	r3, #1
 800237a:	d002      	beq.n	8002382 <EE_ReadString+0x3a>
 800237c:	9b05      	ldr	r3, [sp, #20]
 800237e:	9300      	str	r3, [sp, #0]
 8002380:	e04a      	b.n	8002418 <EE_ReadString+0xd0>
 8002382:	f89d 3013 	ldrb.w	r3, [sp, #19]
 8002386:	9a01      	ldr	r2, [sp, #4]
 8002388:	7013      	strb	r3, [r2, #0]
 800238a:	e03f      	b.n	800240c <EE_ReadString+0xc4>
 800238c:	f8bd 200c 	ldrh.w	r2, [sp, #12]
 8002390:	f8bd 300c 	ldrh.w	r3, [sp, #12]
 8002394:	f103 0301 	add.w	r3, r3, #1	; 0x1
 8002398:	f8ad 300c 	strh.w	r3, [sp, #12]
 800239c:	ab04      	add	r3, sp, #16
 800239e:	4610      	mov	r0, r2
 80023a0:	4619      	mov	r1, r3
 80023a2:	f7ff fe51 	bl	8002048 <EE_ReadUShort>
 80023a6:	4603      	mov	r3, r0
 80023a8:	9305      	str	r3, [sp, #20]
 80023aa:	9b05      	ldr	r3, [sp, #20]
 80023ac:	2b01      	cmp	r3, #1
 80023ae:	d002      	beq.n	80023b6 <EE_ReadString+0x6e>
 80023b0:	9b05      	ldr	r3, [sp, #20]
 80023b2:	9300      	str	r3, [sp, #0]
 80023b4:	e030      	b.n	8002418 <EE_ReadString+0xd0>
 80023b6:	f8bd 3010 	ldrh.w	r3, [sp, #16]
 80023ba:	b2db      	uxtb	r3, r3
 80023bc:	9a02      	ldr	r2, [sp, #8]
 80023be:	7013      	strb	r3, [r2, #0]
 80023c0:	f89d 3013 	ldrb.w	r3, [sp, #19]
 80023c4:	f103 33ff 	add.w	r3, r3, #4294967295	; 0xffffffff
 80023c8:	b2db      	uxtb	r3, r3
 80023ca:	f88d 3013 	strb.w	r3, [sp, #19]
 80023ce:	9b02      	ldr	r3, [sp, #8]
 80023d0:	f103 0301 	add.w	r3, r3, #1	; 0x1
 80023d4:	9302      	str	r3, [sp, #8]
 80023d6:	f89d 3013 	ldrb.w	r3, [sp, #19]
 80023da:	2b00      	cmp	r3, #0
 80023dc:	d016      	beq.n	800240c <EE_ReadString+0xc4>
 80023de:	f8bd 3010 	ldrh.w	r3, [sp, #16]
 80023e2:	ea4f 2313 	mov.w	r3, r3, lsr #8
 80023e6:	b29b      	uxth	r3, r3
 80023e8:	f8ad 3010 	strh.w	r3, [sp, #16]
 80023ec:	f8bd 3010 	ldrh.w	r3, [sp, #16]
 80023f0:	b2db      	uxtb	r3, r3
 80023f2:	9a02      	ldr	r2, [sp, #8]
 80023f4:	7013      	strb	r3, [r2, #0]
 80023f6:	f89d 3013 	ldrb.w	r3, [sp, #19]
 80023fa:	f103 33ff 	add.w	r3, r3, #4294967295	; 0xffffffff
 80023fe:	b2db      	uxtb	r3, r3
 8002400:	f88d 3013 	strb.w	r3, [sp, #19]
 8002404:	9b02      	ldr	r3, [sp, #8]
 8002406:	f103 0301 	add.w	r3, r3, #1	; 0x1
 800240a:	9302      	str	r3, [sp, #8]
 800240c:	f89d 3013 	ldrb.w	r3, [sp, #19]
 8002410:	2b00      	cmp	r3, #0
 8002412:	d1bb      	bne.n	800238c <EE_ReadString+0x44>
 8002414:	9b05      	ldr	r3, [sp, #20]
 8002416:	9300      	str	r3, [sp, #0]
 8002418:	9b00      	ldr	r3, [sp, #0]
 800241a:	4618      	mov	r0, r3
 800241c:	b006      	add	sp, #24
 800241e:	bd00      	pop	{pc}

08002420 <EE_WriteString>:
 8002420:	b500      	push	{lr}
 8002422:	b087      	sub	sp, #28
 8002424:	4603      	mov	r3, r0
 8002426:	9102      	str	r1, [sp, #8]
 8002428:	f8ad 300c 	strh.w	r3, [sp, #12]
 800242c:	4613      	mov	r3, r2
 800242e:	f88d 3004 	strb.w	r3, [sp, #4]
 8002432:	f8bd 300c 	ldrh.w	r3, [sp, #12]
 8002436:	f103 0301 	add.w	r3, r3, #1	; 0x1
 800243a:	f8ad 3016 	strh.w	r3, [sp, #22]
 800243e:	f89d 3004 	ldrb.w	r3, [sp, #4]
 8002442:	f88d 3013 	strb.w	r3, [sp, #19]
 8002446:	e043      	b.n	80024d0 <EE_WriteString+0xb0>
 8002448:	f89d 3013 	ldrb.w	r3, [sp, #19]
 800244c:	2b01      	cmp	r3, #1
 800244e:	d91f      	bls.n	8002490 <EE_WriteString+0x70>
 8002450:	9b02      	ldr	r3, [sp, #8]
 8002452:	f103 0301 	add.w	r3, r3, #1	; 0x1
 8002456:	781b      	ldrb	r3, [r3, #0]
 8002458:	f8ad 3014 	strh.w	r3, [sp, #20]
 800245c:	f8bd 3014 	ldrh.w	r3, [sp, #20]
 8002460:	ea4f 2303 	mov.w	r3, r3, lsl #8
 8002464:	f8ad 3014 	strh.w	r3, [sp, #20]
 8002468:	9b02      	ldr	r3, [sp, #8]
 800246a:	781b      	ldrb	r3, [r3, #0]
 800246c:	461a      	mov	r2, r3
 800246e:	f8bd 3014 	ldrh.w	r3, [sp, #20]
 8002472:	ea42 0303 	orr.w	r3, r2, r3
 8002476:	f8ad 3014 	strh.w	r3, [sp, #20]
 800247a:	f89d 3013 	ldrb.w	r3, [sp, #19]
 800247e:	f1a3 0302 	sub.w	r3, r3, #2	; 0x2
 8002482:	f88d 3013 	strb.w	r3, [sp, #19]
 8002486:	9b02      	ldr	r3, [sp, #8]
 8002488:	f103 0302 	add.w	r3, r3, #2	; 0x2
 800248c:	9302      	str	r3, [sp, #8]
 800248e:	e009      	b.n	80024a4 <EE_WriteString+0x84>
 8002490:	9b02      	ldr	r3, [sp, #8]
 8002492:	781b      	ldrb	r3, [r3, #0]
 8002494:	f8ad 3014 	strh.w	r3, [sp, #20]
 8002498:	f89d 3013 	ldrb.w	r3, [sp, #19]
 800249c:	f103 33ff 	add.w	r3, r3, #4294967295	; 0xffffffff
 80024a0:	f88d 3013 	strb.w	r3, [sp, #19]
 80024a4:	f8bd 2016 	ldrh.w	r2, [sp, #22]
 80024a8:	f8bd 3016 	ldrh.w	r3, [sp, #22]
 80024ac:	f103 0301 	add.w	r3, r3, #1	; 0x1
 80024b0:	f8ad 3016 	strh.w	r3, [sp, #22]
 80024b4:	f8bd 3014 	ldrh.w	r3, [sp, #20]
 80024b8:	4610      	mov	r0, r2
 80024ba:	4619      	mov	r1, r3
 80024bc:	f7ff fdd8 	bl	8002070 <EE_WriteUShort>
 80024c0:	4603      	mov	r3, r0
 80024c2:	9306      	str	r3, [sp, #24]
 80024c4:	9b06      	ldr	r3, [sp, #24]
 80024c6:	2b01      	cmp	r3, #1
 80024c8:	d002      	beq.n	80024d0 <EE_WriteString+0xb0>
 80024ca:	9b06      	ldr	r3, [sp, #24]
 80024cc:	9300      	str	r3, [sp, #0]
 80024ce:	e00e      	b.n	80024ee <EE_WriteString+0xce>
 80024d0:	f89d 3013 	ldrb.w	r3, [sp, #19]
 80024d4:	2b00      	cmp	r3, #0
 80024d6:	d1b7      	bne.n	8002448 <EE_WriteString+0x28>
 80024d8:	f8bd 200c 	ldrh.w	r2, [sp, #12]
 80024dc:	f89d 3004 	ldrb.w	r3, [sp, #4]
 80024e0:	b25b      	sxtb	r3, r3
 80024e2:	4610      	mov	r0, r2
 80024e4:	4619      	mov	r1, r3
 80024e6:	f7ff fe63 	bl	80021b0 <EE_WriteChar>
 80024ea:	4603      	mov	r3, r0
 80024ec:	9300      	str	r3, [sp, #0]
 80024ee:	9b00      	ldr	r3, [sp, #0]
 80024f0:	4618      	mov	r0, r3
 80024f2:	b007      	add	sp, #28
 80024f4:	bd00      	pop	{pc}
 80024f6:	46c0      	nop			(mov r8, r8)

080024f8 <EE_Init>:
 80024f8:	b500      	push	{lr}
 80024fa:	b086      	sub	sp, #24
 80024fc:	f04f 0306 	mov.w	r3, #6	; 0x6
 8002500:	f8ad 300a 	strh.w	r3, [sp, #10]
 8002504:	f04f 0306 	mov.w	r3, #6	; 0x6
 8002508:	f8ad 300c 	strh.w	r3, [sp, #12]
 800250c:	f04f 0300 	mov.w	r3, #0	; 0x0
 8002510:	f8ad 300e 	strh.w	r3, [sp, #14]
 8002514:	f04f 0300 	mov.w	r3, #0	; 0x0
 8002518:	f8ad 3010 	strh.w	r3, [sp, #16]
 800251c:	f04f 0300 	mov.w	r3, #0	; 0x0
 8002520:	f8ad 3012 	strh.w	r3, [sp, #18]
 8002524:	f64f 73ff 	movw	r3, #65535	; 0xffff
 8002528:	f8ad 3014 	strh.w	r3, [sp, #20]
 800252c:	f005 fdde 	bl	80080ec <FLASH_Unlock>
 8002530:	4bb7      	ldr	r3, [pc, #732]	(8002810 <EE_Init+0x318>)
 8002532:	881b      	ldrh	r3, [r3, #0]
 8002534:	f8ad 300a 	strh.w	r3, [sp, #10]
 8002538:	4bb6      	ldr	r3, [pc, #728]	(8002814 <EE_Init+0x31c>)
 800253a:	881b      	ldrh	r3, [r3, #0]
 800253c:	f8ad 300c 	strh.w	r3, [sp, #12]
 8002540:	f8bd 200a 	ldrh.w	r2, [sp, #10]
 8002544:	9200      	str	r2, [sp, #0]
 8002546:	f64e 63ee 	movw	r3, #61166	; 0xeeee
 800254a:	9a00      	ldr	r2, [sp, #0]
 800254c:	429a      	cmp	r2, r3
 800254e:	d03d      	beq.n	80025cc <EE_Init+0xd4>
 8002550:	f64f 73ff 	movw	r3, #65535	; 0xffff
 8002554:	9a00      	ldr	r2, [sp, #0]
 8002556:	429a      	cmp	r2, r3
 8002558:	d004      	beq.n	8002564 <EE_Init+0x6c>
 800255a:	9b00      	ldr	r3, [sp, #0]
 800255c:	2b00      	cmp	r3, #0
 800255e:	f000 80c1 	beq.w	80026e4 <EE_Init+0x1ec>
 8002562:	e13d      	b.n	80027e0 <EE_Init+0x2e8>
 8002564:	f8bd 300c 	ldrh.w	r3, [sp, #12]
 8002568:	2b00      	cmp	r3, #0
 800256a:	d109      	bne.n	8002580 <EE_Init+0x88>
 800256c:	48a8      	ldr	r0, [pc, #672]	(8002810 <EE_Init+0x318>)
 800256e:	f005 fdd5 	bl	800811c <FLASH_ErasePage>
 8002572:	4603      	mov	r3, r0
 8002574:	f8ad 3016 	strh.w	r3, [sp, #22]
 8002578:	f8bd 3016 	ldrh.w	r3, [sp, #22]
 800257c:	2b04      	cmp	r3, #4
 800257e:	e134      	b.n	80027ea <EE_Init+0x2f2>
 8002580:	f8bd 200c 	ldrh.w	r2, [sp, #12]
 8002584:	f64e 63ee 	movw	r3, #61166	; 0xeeee
 8002588:	429a      	cmp	r2, r3
 800258a:	d116      	bne.n	80025ba <EE_Init+0xc2>
 800258c:	48a0      	ldr	r0, [pc, #640]	(8002810 <EE_Init+0x318>)
 800258e:	f005 fdc5 	bl	800811c <FLASH_ErasePage>
 8002592:	4603      	mov	r3, r0
 8002594:	f8ad 3016 	strh.w	r3, [sp, #22]
 8002598:	f8bd 3016 	ldrh.w	r3, [sp, #22]
 800259c:	2b04      	cmp	r3, #4
 800259e:	f040 8124 	bne.w	80027ea <EE_Init+0x2f2>
 80025a2:	489c      	ldr	r0, [pc, #624]	(8002814 <EE_Init+0x31c>)
 80025a4:	f04f 0100 	mov.w	r1, #0	; 0x0
 80025a8:	f005 fed4 	bl	8008354 <FLASH_ProgramHalfWord>
 80025ac:	4603      	mov	r3, r0
 80025ae:	f8ad 3016 	strh.w	r3, [sp, #22]
 80025b2:	f8bd 3016 	ldrh.w	r3, [sp, #22]
 80025b6:	2b04      	cmp	r3, #4
 80025b8:	e117      	b.n	80027ea <EE_Init+0x2f2>
 80025ba:	f000 f9c5 	bl	8002948 <EE_Format>
 80025be:	4603      	mov	r3, r0
 80025c0:	f8ad 3016 	strh.w	r3, [sp, #22]
 80025c4:	f8bd 3016 	ldrh.w	r3, [sp, #22]
 80025c8:	2b04      	cmp	r3, #4
 80025ca:	e10e      	b.n	80027ea <EE_Init+0x2f2>
 80025cc:	f8bd 300c 	ldrh.w	r3, [sp, #12]
 80025d0:	2b00      	cmp	r3, #0
 80025d2:	d161      	bne.n	8002698 <EE_Init+0x1a0>
 80025d4:	f04f 0300 	mov.w	r3, #0	; 0x0
 80025d8:	f8ad 300e 	strh.w	r3, [sp, #14]
 80025dc:	e041      	b.n	8002662 <EE_Init+0x16a>
 80025de:	4b8e      	ldr	r3, [pc, #568]	(8002818 <EE_Init+0x320>)
 80025e0:	881b      	ldrh	r3, [r3, #0]
 80025e2:	b299      	uxth	r1, r3
 80025e4:	f8bd 200e 	ldrh.w	r2, [sp, #14]
 80025e8:	4b8c      	ldr	r3, [pc, #560]	(800281c <EE_Init+0x324>)
 80025ea:	f833 3012 	ldrh.w	r3, [r3, r2, lsl #1]
 80025ee:	4299      	cmp	r1, r3
 80025f0:	d103      	bne.n	80025fa <EE_Init+0x102>
 80025f2:	f8bd 300e 	ldrh.w	r3, [sp, #14]
 80025f6:	f8ad 3014 	strh.w	r3, [sp, #20]
 80025fa:	f8bd 200e 	ldrh.w	r2, [sp, #14]
 80025fe:	f9bd 3014 	ldrsh.w	r3, [sp, #20]
 8002602:	429a      	cmp	r2, r3
 8002604:	d027      	beq.n	8002656 <EE_Init+0x15e>
 8002606:	f8bd 200e 	ldrh.w	r2, [sp, #14]
 800260a:	4b84      	ldr	r3, [pc, #528]	(800281c <EE_Init+0x324>)
 800260c:	f833 3012 	ldrh.w	r3, [r3, r2, lsl #1]
 8002610:	4618      	mov	r0, r3
 8002612:	4983      	ldr	r1, [pc, #524]	(8002820 <EE_Init+0x328>)
 8002614:	f000 f90e 	bl	8002834 <EE_ReadVariable>
 8002618:	4603      	mov	r3, r0
 800261a:	f8ad 3012 	strh.w	r3, [sp, #18]
 800261e:	f8bd 3012 	ldrh.w	r3, [sp, #18]
 8002622:	2b01      	cmp	r3, #1
 8002624:	d017      	beq.n	8002656 <EE_Init+0x15e>
 8002626:	f8bd 200e 	ldrh.w	r2, [sp, #14]
 800262a:	4b7c      	ldr	r3, [pc, #496]	(800281c <EE_Init+0x324>)
 800262c:	f833 3012 	ldrh.w	r3, [r3, r2, lsl #1]
 8002630:	461a      	mov	r2, r3
 8002632:	4b7b      	ldr	r3, [pc, #492]	(8002820 <EE_Init+0x328>)
 8002634:	881b      	ldrh	r3, [r3, #0]
 8002636:	4610      	mov	r0, r2
 8002638:	4619      	mov	r1, r3
 800263a:	f000 fa15 	bl	8002a68 <EE_VerifyPageFullWriteVariable>
 800263e:	4603      	mov	r3, r0
 8002640:	f8ad 3010 	strh.w	r3, [sp, #16]
 8002644:	f8bd 3010 	ldrh.w	r3, [sp, #16]
 8002648:	2b04      	cmp	r3, #4
 800264a:	d004      	beq.n	8002656 <EE_Init+0x15e>
 800264c:	f8bd 3010 	ldrh.w	r3, [sp, #16]
 8002650:	f8ad 3016 	strh.w	r3, [sp, #22]
 8002654:	e0c9      	b.n	80027ea <EE_Init+0x2f2>
 8002656:	f8bd 300e 	ldrh.w	r3, [sp, #14]
 800265a:	f103 0301 	add.w	r3, r3, #1	; 0x1
 800265e:	f8ad 300e 	strh.w	r3, [sp, #14]
 8002662:	f8bd 300e 	ldrh.w	r3, [sp, #14]
 8002666:	2b02      	cmp	r3, #2
 8002668:	d9b9      	bls.n	80025de <EE_Init+0xe6>
 800266a:	4869      	ldr	r0, [pc, #420]	(8002810 <EE_Init+0x318>)
 800266c:	f04f 0100 	mov.w	r1, #0	; 0x0
 8002670:	f005 fe70 	bl	8008354 <FLASH_ProgramHalfWord>
 8002674:	4603      	mov	r3, r0
 8002676:	f8ad 3016 	strh.w	r3, [sp, #22]
 800267a:	f8bd 3016 	ldrh.w	r3, [sp, #22]
 800267e:	2b04      	cmp	r3, #4
 8002680:	f040 80b3 	bne.w	80027ea <EE_Init+0x2f2>
 8002684:	4863      	ldr	r0, [pc, #396]	(8002814 <EE_Init+0x31c>)
 8002686:	f005 fd49 	bl	800811c <FLASH_ErasePage>
 800268a:	4603      	mov	r3, r0
 800268c:	f8ad 3016 	strh.w	r3, [sp, #22]
 8002690:	f8bd 3016 	ldrh.w	r3, [sp, #22]
 8002694:	2b04      	cmp	r3, #4
 8002696:	e0a8      	b.n	80027ea <EE_Init+0x2f2>
 8002698:	f8bd 200c 	ldrh.w	r2, [sp, #12]
 800269c:	f64f 73ff 	movw	r3, #65535	; 0xffff
 80026a0:	429a      	cmp	r2, r3
 80026a2:	d116      	bne.n	80026d2 <EE_Init+0x1da>
 80026a4:	485b      	ldr	r0, [pc, #364]	(8002814 <EE_Init+0x31c>)
 80026a6:	f005 fd39 	bl	800811c <FLASH_ErasePage>
 80026aa:	4603      	mov	r3, r0
 80026ac:	f8ad 3016 	strh.w	r3, [sp, #22]
 80026b0:	f8bd 3016 	ldrh.w	r3, [sp, #22]
 80026b4:	2b04      	cmp	r3, #4
 80026b6:	f040 8098 	bne.w	80027ea <EE_Init+0x2f2>
 80026ba:	4855      	ldr	r0, [pc, #340]	(8002810 <EE_Init+0x318>)
 80026bc:	f04f 0100 	mov.w	r1, #0	; 0x0
 80026c0:	f005 fe48 	bl	8008354 <FLASH_ProgramHalfWord>
 80026c4:	4603      	mov	r3, r0
 80026c6:	f8ad 3016 	strh.w	r3, [sp, #22]
 80026ca:	f8bd 3016 	ldrh.w	r3, [sp, #22]
 80026ce:	2b04      	cmp	r3, #4
 80026d0:	e08b      	b.n	80027ea <EE_Init+0x2f2>
 80026d2:	f000 f939 	bl	8002948 <EE_Format>
 80026d6:	4603      	mov	r3, r0
 80026d8:	f8ad 3016 	strh.w	r3, [sp, #22]
 80026dc:	f8bd 3016 	ldrh.w	r3, [sp, #22]
 80026e0:	2b04      	cmp	r3, #4
 80026e2:	e082      	b.n	80027ea <EE_Init+0x2f2>
 80026e4:	f8bd 300c 	ldrh.w	r3, [sp, #12]
 80026e8:	2b00      	cmp	r3, #0
 80026ea:	d108      	bne.n	80026fe <EE_Init+0x206>
 80026ec:	f000 f92c 	bl	8002948 <EE_Format>
 80026f0:	4603      	mov	r3, r0
 80026f2:	f8ad 3016 	strh.w	r3, [sp, #22]
 80026f6:	f8bd 3016 	ldrh.w	r3, [sp, #22]
 80026fa:	2b04      	cmp	r3, #4
 80026fc:	e075      	b.n	80027ea <EE_Init+0x2f2>
 80026fe:	f8bd 200c 	ldrh.w	r2, [sp, #12]
 8002702:	f64f 73ff 	movw	r3, #65535	; 0xffff
 8002706:	429a      	cmp	r2, r3
 8002708:	d109      	bne.n	800271e <EE_Init+0x226>
 800270a:	4842      	ldr	r0, [pc, #264]	(8002814 <EE_Init+0x31c>)
 800270c:	f005 fd06 	bl	800811c <FLASH_ErasePage>
 8002710:	4603      	mov	r3, r0
 8002712:	f8ad 3016 	strh.w	r3, [sp, #22]
 8002716:	f8bd 3016 	ldrh.w	r3, [sp, #22]
 800271a:	2b04      	cmp	r3, #4
 800271c:	e065      	b.n	80027ea <EE_Init+0x2f2>
 800271e:	f04f 0300 	mov.w	r3, #0	; 0x0
 8002722:	f8ad 300e 	strh.w	r3, [sp, #14]
 8002726:	e041      	b.n	80027ac <EE_Init+0x2b4>
 8002728:	4b3e      	ldr	r3, [pc, #248]	(8002824 <EE_Init+0x32c>)
 800272a:	881b      	ldrh	r3, [r3, #0]
 800272c:	b299      	uxth	r1, r3
 800272e:	f8bd 200e 	ldrh.w	r2, [sp, #14]
 8002732:	4b3a      	ldr	r3, [pc, #232]	(800281c <EE_Init+0x324>)
 8002734:	f833 3012 	ldrh.w	r3, [r3, r2, lsl #1]
 8002738:	4299      	cmp	r1, r3
 800273a:	d103      	bne.n	8002744 <EE_Init+0x24c>
 800273c:	f8bd 300e 	ldrh.w	r3, [sp, #14]
 8002740:	f8ad 3014 	strh.w	r3, [sp, #20]
 8002744:	f8bd 200e 	ldrh.w	r2, [sp, #14]
 8002748:	f9bd 3014 	ldrsh.w	r3, [sp, #20]
 800274c:	429a      	cmp	r2, r3
 800274e:	d027      	beq.n	80027a0 <EE_Init+0x2a8>
 8002750:	f8bd 200e 	ldrh.w	r2, [sp, #14]
 8002754:	4b31      	ldr	r3, [pc, #196]	(800281c <EE_Init+0x324>)
 8002756:	f833 3012 	ldrh.w	r3, [r3, r2, lsl #1]
 800275a:	4618      	mov	r0, r3
 800275c:	4930      	ldr	r1, [pc, #192]	(8002820 <EE_Init+0x328>)
 800275e:	f000 f869 	bl	8002834 <EE_ReadVariable>
 8002762:	4603      	mov	r3, r0
 8002764:	f8ad 3012 	strh.w	r3, [sp, #18]
 8002768:	f8bd 3012 	ldrh.w	r3, [sp, #18]
 800276c:	2b01      	cmp	r3, #1
 800276e:	d017      	beq.n	80027a0 <EE_Init+0x2a8>
 8002770:	f8bd 200e 	ldrh.w	r2, [sp, #14]
 8002774:	4b29      	ldr	r3, [pc, #164]	(800281c <EE_Init+0x324>)
 8002776:	f833 3012 	ldrh.w	r3, [r3, r2, lsl #1]
 800277a:	461a      	mov	r2, r3
 800277c:	4b28      	ldr	r3, [pc, #160]	(8002820 <EE_Init+0x328>)
 800277e:	881b      	ldrh	r3, [r3, #0]
 8002780:	4610      	mov	r0, r2
 8002782:	4619      	mov	r1, r3
 8002784:	f000 f970 	bl	8002a68 <EE_VerifyPageFullWriteVariable>
 8002788:	4603      	mov	r3, r0
 800278a:	f8ad 3010 	strh.w	r3, [sp, #16]
 800278e:	f8bd 3010 	ldrh.w	r3, [sp, #16]
 8002792:	2b04      	cmp	r3, #4
 8002794:	d004      	beq.n	80027a0 <EE_Init+0x2a8>
 8002796:	f8bd 3010 	ldrh.w	r3, [sp, #16]
 800279a:	f8ad 3016 	strh.w	r3, [sp, #22]
 800279e:	e024      	b.n	80027ea <EE_Init+0x2f2>
 80027a0:	f8bd 300e 	ldrh.w	r3, [sp, #14]
 80027a4:	f103 0301 	add.w	r3, r3, #1	; 0x1
 80027a8:	f8ad 300e 	strh.w	r3, [sp, #14]
 80027ac:	f8bd 300e 	ldrh.w	r3, [sp, #14]
 80027b0:	2b02      	cmp	r3, #2
 80027b2:	d9b9      	bls.n	8002728 <EE_Init+0x230>
 80027b4:	4817      	ldr	r0, [pc, #92]	(8002814 <EE_Init+0x31c>)
 80027b6:	f04f 0100 	mov.w	r1, #0	; 0x0
 80027ba:	f005 fdcb 	bl	8008354 <FLASH_ProgramHalfWord>
 80027be:	4603      	mov	r3, r0
 80027c0:	f8ad 3016 	strh.w	r3, [sp, #22]
 80027c4:	f8bd 3016 	ldrh.w	r3, [sp, #22]
 80027c8:	2b04      	cmp	r3, #4
 80027ca:	d10e      	bne.n	80027ea <EE_Init+0x2f2>
 80027cc:	4810      	ldr	r0, [pc, #64]	(8002810 <EE_Init+0x318>)
 80027ce:	f005 fca5 	bl	800811c <FLASH_ErasePage>
 80027d2:	4603      	mov	r3, r0
 80027d4:	f8ad 3016 	strh.w	r3, [sp, #22]
 80027d8:	f8bd 3016 	ldrh.w	r3, [sp, #22]
 80027dc:	2b04      	cmp	r3, #4
 80027de:	e004      	b.n	80027ea <EE_Init+0x2f2>
 80027e0:	f000 f8b2 	bl	8002948 <EE_Format>
 80027e4:	4603      	mov	r3, r0
 80027e6:	f8ad 3016 	strh.w	r3, [sp, #22]
 80027ea:	f8bd 3016 	ldrh.w	r3, [sp, #22]
 80027ee:	2b04      	cmp	r3, #4
 80027f0:	d102      	bne.n	80027f8 <EE_Init+0x300>
 80027f2:	4a0d      	ldr	r2, [pc, #52]	(8002828 <EE_Init+0x330>)
 80027f4:	9201      	str	r2, [sp, #4]
 80027f6:	e001      	b.n	80027fc <EE_Init+0x304>
 80027f8:	4b0c      	ldr	r3, [pc, #48]	(800282c <EE_Init+0x334>)
 80027fa:	9301      	str	r3, [sp, #4]
 80027fc:	480c      	ldr	r0, [pc, #48]	(8002830 <EE_Init+0x338>)
 80027fe:	9901      	ldr	r1, [sp, #4]
 8002800:	f7fd ff16 	bl	8000630 <printf>
 8002804:	f8bd 3016 	ldrh.w	r3, [sp, #22]
 8002808:	4618      	mov	r0, r3
 800280a:	b006      	add	sp, #24
 800280c:	bd00      	pop	{pc}
 800280e:	46c0      	nop			(mov r8, r8)
 8002810:	0801f800 	.word	0x0801f800
 8002814:	0801fc00 	.word	0x0801fc00
 8002818:	0801f806 	.word	0x0801f806
 800281c:	20000030 	.word	0x20000030
 8002820:	20000180 	.word	0x20000180
 8002824:	0801fc06 	.word	0x0801fc06
 8002828:	080092fc 	.word	0x080092fc
 800282c:	08009300 	.word	0x08009300
 8002830:	08009308 	.word	0x08009308

08002834 <EE_ReadVariable>:
 8002834:	b500      	push	{lr}
 8002836:	b087      	sub	sp, #28
 8002838:	4603      	mov	r3, r0
 800283a:	9101      	str	r1, [sp, #4]
 800283c:	f8ad 3008 	strh.w	r3, [sp, #8]
 8002840:	f04f 0300 	mov.w	r3, #0	; 0x0
 8002844:	f8ad 300e 	strh.w	r3, [sp, #14]
 8002848:	f245 5355 	movw	r3, #21845	; 0x5555
 800284c:	f8ad 3010 	strh.w	r3, [sp, #16]
 8002850:	f04f 0301 	mov.w	r3, #1	; 0x1
 8002854:	f8ad 3012 	strh.w	r3, [sp, #18]
 8002858:	f04f 0000 	mov.w	r0, #0	; 0x0
 800285c:	f000 f8a0 	bl	80029a0 <EE_FindValidPage>
 8002860:	4603      	mov	r3, r0
 8002862:	f8ad 300e 	strh.w	r3, [sp, #14]
 8002866:	f8bd 300e 	ldrh.w	r3, [sp, #14]
 800286a:	2bab      	cmp	r3, #171
 800286c:	d103      	bne.n	8002876 <EE_ReadVariable+0x42>
 800286e:	f04f 03ab 	mov.w	r3, #171	; 0xab
 8002872:	9300      	str	r3, [sp, #0]
 8002874:	e036      	b.n	80028e4 <EE_ReadVariable+0xb0>
 8002876:	f8bd 300e 	ldrh.w	r3, [sp, #14]
 800287a:	f503 3300 	add.w	r3, r3, #131072	; 0x20000
 800287e:	f103 037e 	add.w	r3, r3, #126	; 0x7e
 8002882:	ea4f 2383 	mov.w	r3, r3, lsl #10
 8002886:	9306      	str	r3, [sp, #24]
 8002888:	f8bd 300e 	ldrh.w	r3, [sp, #14]
 800288c:	f103 0301 	add.w	r3, r3, #1	; 0x1
 8002890:	ea4f 2383 	mov.w	r3, r3, lsl #10
 8002894:	461a      	mov	r2, r3
 8002896:	4b15      	ldr	r3, [pc, #84]	(80028ec <EE_ReadVariable+0xb8>)
 8002898:	4413      	add	r3, r2
 800289a:	9305      	str	r3, [sp, #20]
 800289c:	e019      	b.n	80028d2 <EE_ReadVariable+0x9e>
 800289e:	9b05      	ldr	r3, [sp, #20]
 80028a0:	881b      	ldrh	r3, [r3, #0]
 80028a2:	f8ad 3010 	strh.w	r3, [sp, #16]
 80028a6:	f8bd 2010 	ldrh.w	r2, [sp, #16]
 80028aa:	f8bd 3008 	ldrh.w	r3, [sp, #8]
 80028ae:	429a      	cmp	r2, r3
 80028b0:	d10b      	bne.n	80028ca <EE_ReadVariable+0x96>
 80028b2:	9b05      	ldr	r3, [sp, #20]
 80028b4:	f1a3 0302 	sub.w	r3, r3, #2	; 0x2
 80028b8:	881b      	ldrh	r3, [r3, #0]
 80028ba:	b29b      	uxth	r3, r3
 80028bc:	9a01      	ldr	r2, [sp, #4]
 80028be:	8013      	strh	r3, [r2, #0]
 80028c0:	f04f 0300 	mov.w	r3, #0	; 0x0
 80028c4:	f8ad 3012 	strh.w	r3, [sp, #18]
 80028c8:	e009      	b.n	80028de <EE_ReadVariable+0xaa>
 80028ca:	9b05      	ldr	r3, [sp, #20]
 80028cc:	f1a3 0304 	sub.w	r3, r3, #4	; 0x4
 80028d0:	9305      	str	r3, [sp, #20]
 80028d2:	9b06      	ldr	r3, [sp, #24]
 80028d4:	f103 0202 	add.w	r2, r3, #2	; 0x2
 80028d8:	9b05      	ldr	r3, [sp, #20]
 80028da:	429a      	cmp	r2, r3
 80028dc:	d3df      	bcc.n	800289e <EE_ReadVariable+0x6a>
 80028de:	f8bd 3012 	ldrh.w	r3, [sp, #18]
 80028e2:	9300      	str	r3, [sp, #0]
 80028e4:	9b00      	ldr	r3, [sp, #0]
 80028e6:	4618      	mov	r0, r3
 80028e8:	b007      	add	sp, #28
 80028ea:	bd00      	pop	{pc}
 80028ec:	0801f7fe 	.word	0x0801f7fe

080028f0 <EE_WriteVariable>:
 80028f0:	b500      	push	{lr}
 80028f2:	b083      	sub	sp, #12
 80028f4:	4603      	mov	r3, r0
 80028f6:	460a      	mov	r2, r1
 80028f8:	f8ad 3004 	strh.w	r3, [sp, #4]
 80028fc:	4613      	mov	r3, r2
 80028fe:	f8ad 3000 	strh.w	r3, [sp]
 8002902:	f04f 0300 	mov.w	r3, #0	; 0x0
 8002906:	f8ad 300a 	strh.w	r3, [sp, #10]
 800290a:	f8bd 3004 	ldrh.w	r3, [sp, #4]
 800290e:	f8bd 2000 	ldrh.w	r2, [sp]
 8002912:	4618      	mov	r0, r3
 8002914:	4611      	mov	r1, r2
 8002916:	f000 f8a7 	bl	8002a68 <EE_VerifyPageFullWriteVariable>
 800291a:	4603      	mov	r3, r0
 800291c:	f8ad 300a 	strh.w	r3, [sp, #10]
 8002920:	f8bd 300a 	ldrh.w	r3, [sp, #10]
 8002924:	2b80      	cmp	r3, #128
 8002926:	d10a      	bne.n	800293e <EE_WriteVariable+0x4e>
 8002928:	f8bd 3004 	ldrh.w	r3, [sp, #4]
 800292c:	f8bd 2000 	ldrh.w	r2, [sp]
 8002930:	4618      	mov	r0, r3
 8002932:	4611      	mov	r1, r2
 8002934:	f000 f900 	bl	8002b38 <EE_PageTransfer>
 8002938:	4603      	mov	r3, r0
 800293a:	f8ad 300a 	strh.w	r3, [sp, #10]
 800293e:	f8bd 300a 	ldrh.w	r3, [sp, #10]
 8002942:	4618      	mov	r0, r3
 8002944:	b003      	add	sp, #12
 8002946:	bd00      	pop	{pc}

08002948 <EE_Format>:
 8002948:	b500      	push	{lr}
 800294a:	b082      	sub	sp, #8
 800294c:	f04f 0304 	mov.w	r3, #4	; 0x4
 8002950:	9301      	str	r3, [sp, #4]
 8002952:	4811      	ldr	r0, [pc, #68]	(8002998 <EE_Format+0x50>)
 8002954:	f005 fbe2 	bl	800811c <FLASH_ErasePage>
 8002958:	4603      	mov	r3, r0
 800295a:	9301      	str	r3, [sp, #4]
 800295c:	9b01      	ldr	r3, [sp, #4]
 800295e:	2b04      	cmp	r3, #4
 8002960:	d002      	beq.n	8002968 <EE_Format+0x20>
 8002962:	9b01      	ldr	r3, [sp, #4]
 8002964:	9300      	str	r3, [sp, #0]
 8002966:	e013      	b.n	8002990 <EE_Format+0x48>
 8002968:	480b      	ldr	r0, [pc, #44]	(8002998 <EE_Format+0x50>)
 800296a:	f04f 0100 	mov.w	r1, #0	; 0x0
 800296e:	f005 fcf1 	bl	8008354 <FLASH_ProgramHalfWord>
 8002972:	4603      	mov	r3, r0
 8002974:	9301      	str	r3, [sp, #4]
 8002976:	9b01      	ldr	r3, [sp, #4]
 8002978:	2b04      	cmp	r3, #4
 800297a:	d002      	beq.n	8002982 <EE_Format+0x3a>
 800297c:	9b01      	ldr	r3, [sp, #4]
 800297e:	9300      	str	r3, [sp, #0]
 8002980:	e006      	b.n	8002990 <EE_Format+0x48>
 8002982:	4806      	ldr	r0, [pc, #24]	(800299c <EE_Format+0x54>)
 8002984:	f005 fbca 	bl	800811c <FLASH_ErasePage>
 8002988:	4603      	mov	r3, r0
 800298a:	9301      	str	r3, [sp, #4]
 800298c:	9b01      	ldr	r3, [sp, #4]
 800298e:	9300      	str	r3, [sp, #0]
 8002990:	9b00      	ldr	r3, [sp, #0]
 8002992:	4618      	mov	r0, r3
 8002994:	b002      	add	sp, #8
 8002996:	bd00      	pop	{pc}
 8002998:	0801f800 	.word	0x0801f800
 800299c:	0801fc00 	.word	0x0801fc00

080029a0 <EE_FindValidPage>:
 80029a0:	b084      	sub	sp, #16
 80029a2:	4603      	mov	r3, r0
 80029a4:	f88d 3008 	strb.w	r3, [sp, #8]
 80029a8:	f04f 0306 	mov.w	r3, #6	; 0x6
 80029ac:	f8ad 300c 	strh.w	r3, [sp, #12]
 80029b0:	f04f 0306 	mov.w	r3, #6	; 0x6
 80029b4:	f8ad 300e 	strh.w	r3, [sp, #14]
 80029b8:	4b29      	ldr	r3, [pc, #164]	(8002a60 <EE_FindValidPage+0xc0>)
 80029ba:	881b      	ldrh	r3, [r3, #0]
 80029bc:	f8ad 300c 	strh.w	r3, [sp, #12]
 80029c0:	4b28      	ldr	r3, [pc, #160]	(8002a64 <EE_FindValidPage+0xc4>)
 80029c2:	881b      	ldrh	r3, [r3, #0]
 80029c4:	f8ad 300e 	strh.w	r3, [sp, #14]
 80029c8:	f89d 3008 	ldrb.w	r3, [sp, #8]
 80029cc:	9300      	str	r3, [sp, #0]
 80029ce:	9b00      	ldr	r3, [sp, #0]
 80029d0:	2b00      	cmp	r3, #0
 80029d2:	d02a      	beq.n	8002a2a <EE_FindValidPage+0x8a>
 80029d4:	9b00      	ldr	r3, [sp, #0]
 80029d6:	2b01      	cmp	r3, #1
 80029d8:	d13b      	bne.n	8002a52 <EE_FindValidPage+0xb2>
 80029da:	f8bd 300e 	ldrh.w	r3, [sp, #14]
 80029de:	2b00      	cmp	r3, #0
 80029e0:	d10d      	bne.n	80029fe <EE_FindValidPage+0x5e>
 80029e2:	f8bd 200c 	ldrh.w	r2, [sp, #12]
 80029e6:	f64e 63ee 	movw	r3, #61166	; 0xeeee
 80029ea:	429a      	cmp	r2, r3
 80029ec:	d103      	bne.n	80029f6 <EE_FindValidPage+0x56>
 80029ee:	f04f 0300 	mov.w	r3, #0	; 0x0
 80029f2:	9301      	str	r3, [sp, #4]
 80029f4:	e030      	b.n	8002a58 <EE_FindValidPage+0xb8>
 80029f6:	f04f 0301 	mov.w	r3, #1	; 0x1
 80029fa:	9301      	str	r3, [sp, #4]
 80029fc:	e02c      	b.n	8002a58 <EE_FindValidPage+0xb8>
 80029fe:	f8bd 300c 	ldrh.w	r3, [sp, #12]
 8002a02:	2b00      	cmp	r3, #0
 8002a04:	d10d      	bne.n	8002a22 <EE_FindValidPage+0x82>
 8002a06:	f8bd 200e 	ldrh.w	r2, [sp, #14]
 8002a0a:	f64e 63ee 	movw	r3, #61166	; 0xeeee
 8002a0e:	429a      	cmp	r2, r3
 8002a10:	d103      	bne.n	8002a1a <EE_FindValidPage+0x7a>
 8002a12:	f04f 0301 	mov.w	r3, #1	; 0x1
 8002a16:	9301      	str	r3, [sp, #4]
 8002a18:	e01e      	b.n	8002a58 <EE_FindValidPage+0xb8>
 8002a1a:	f04f 0300 	mov.w	r3, #0	; 0x0
 8002a1e:	9301      	str	r3, [sp, #4]
 8002a20:	e01a      	b.n	8002a58 <EE_FindValidPage+0xb8>
 8002a22:	f04f 03ab 	mov.w	r3, #171	; 0xab
 8002a26:	9301      	str	r3, [sp, #4]
 8002a28:	e016      	b.n	8002a58 <EE_FindValidPage+0xb8>
 8002a2a:	f8bd 300c 	ldrh.w	r3, [sp, #12]
 8002a2e:	2b00      	cmp	r3, #0
 8002a30:	d103      	bne.n	8002a3a <EE_FindValidPage+0x9a>
 8002a32:	f04f 0300 	mov.w	r3, #0	; 0x0
 8002a36:	9301      	str	r3, [sp, #4]
 8002a38:	e00e      	b.n	8002a58 <EE_FindValidPage+0xb8>
 8002a3a:	f8bd 300e 	ldrh.w	r3, [sp, #14]
 8002a3e:	2b00      	cmp	r3, #0
 8002a40:	d103      	bne.n	8002a4a <EE_FindValidPage+0xaa>
 8002a42:	f04f 0301 	mov.w	r3, #1	; 0x1
 8002a46:	9301      	str	r3, [sp, #4]
 8002a48:	e006      	b.n	8002a58 <EE_FindValidPage+0xb8>
 8002a4a:	f04f 03ab 	mov.w	r3, #171	; 0xab
 8002a4e:	9301      	str	r3, [sp, #4]
 8002a50:	e002      	b.n	8002a58 <EE_FindValidPage+0xb8>
 8002a52:	f04f 0300 	mov.w	r3, #0	; 0x0
 8002a56:	9301      	str	r3, [sp, #4]
 8002a58:	9b01      	ldr	r3, [sp, #4]
 8002a5a:	4618      	mov	r0, r3
 8002a5c:	b004      	add	sp, #16
 8002a5e:	4770      	bx	lr
 8002a60:	0801f800 	.word	0x0801f800
 8002a64:	0801fc00 	.word	0x0801fc00

08002a68 <EE_VerifyPageFullWriteVariable>:
 8002a68:	b500      	push	{lr}
 8002a6a:	b087      	sub	sp, #28
 8002a6c:	4603      	mov	r3, r0
 8002a6e:	460a      	mov	r2, r1
 8002a70:	f8ad 3008 	strh.w	r3, [sp, #8]
 8002a74:	4613      	mov	r3, r2
 8002a76:	f8ad 3004 	strh.w	r3, [sp, #4]
 8002a7a:	f04f 0304 	mov.w	r3, #4	; 0x4
 8002a7e:	9303      	str	r3, [sp, #12]
 8002a80:	f04f 0300 	mov.w	r3, #0	; 0x0
 8002a84:	f8ad 3012 	strh.w	r3, [sp, #18]
 8002a88:	f04f 0001 	mov.w	r0, #1	; 0x1
 8002a8c:	f7ff ff88 	bl	80029a0 <EE_FindValidPage>
 8002a90:	4603      	mov	r3, r0
 8002a92:	f8ad 3012 	strh.w	r3, [sp, #18]
 8002a96:	f8bd 3012 	ldrh.w	r3, [sp, #18]
 8002a9a:	2bab      	cmp	r3, #171
 8002a9c:	d103      	bne.n	8002aa6 <EE_VerifyPageFullWriteVariable+0x3e>
 8002a9e:	f04f 03ab 	mov.w	r3, #171	; 0xab
 8002aa2:	9300      	str	r3, [sp, #0]
 8002aa4:	e041      	b.n	8002b2a <EE_VerifyPageFullWriteVariable+0xc2>
 8002aa6:	f8bd 3012 	ldrh.w	r3, [sp, #18]
 8002aaa:	f503 3300 	add.w	r3, r3, #131072	; 0x20000
 8002aae:	f103 037e 	add.w	r3, r3, #126	; 0x7e
 8002ab2:	ea4f 2383 	mov.w	r3, r3, lsl #10
 8002ab6:	9305      	str	r3, [sp, #20]
 8002ab8:	f8bd 3012 	ldrh.w	r3, [sp, #18]
 8002abc:	f103 0301 	add.w	r3, r3, #1	; 0x1
 8002ac0:	ea4f 2383 	mov.w	r3, r3, lsl #10
 8002ac4:	461a      	mov	r2, r3
 8002ac6:	4b1b      	ldr	r3, [pc, #108]	(8002b34 <EE_VerifyPageFullWriteVariable+0xcc>)
 8002ac8:	4413      	add	r3, r2
 8002aca:	9306      	str	r3, [sp, #24]
 8002acc:	e026      	b.n	8002b1c <EE_VerifyPageFullWriteVariable+0xb4>
 8002ace:	9b05      	ldr	r3, [sp, #20]
 8002ad0:	681b      	ldr	r3, [r3, #0]
 8002ad2:	f1b3 3fff 	cmp.w	r3, #4294967295	; 0xffffffff
 8002ad6:	d11d      	bne.n	8002b14 <EE_VerifyPageFullWriteVariable+0xac>
 8002ad8:	f8bd 3004 	ldrh.w	r3, [sp, #4]
 8002adc:	9805      	ldr	r0, [sp, #20]
 8002ade:	4619      	mov	r1, r3
 8002ae0:	f005 fc38 	bl	8008354 <FLASH_ProgramHalfWord>
 8002ae4:	4603      	mov	r3, r0
 8002ae6:	9303      	str	r3, [sp, #12]
 8002ae8:	9b03      	ldr	r3, [sp, #12]
 8002aea:	2b04      	cmp	r3, #4
 8002aec:	d003      	beq.n	8002af6 <EE_VerifyPageFullWriteVariable+0x8e>
 8002aee:	9b03      	ldr	r3, [sp, #12]
 8002af0:	b29b      	uxth	r3, r3
 8002af2:	9300      	str	r3, [sp, #0]
 8002af4:	e019      	b.n	8002b2a <EE_VerifyPageFullWriteVariable+0xc2>
 8002af6:	9b05      	ldr	r3, [sp, #20]
 8002af8:	f103 0302 	add.w	r3, r3, #2	; 0x2
 8002afc:	f8bd 2008 	ldrh.w	r2, [sp, #8]
 8002b00:	4618      	mov	r0, r3
 8002b02:	4611      	mov	r1, r2
 8002b04:	f005 fc26 	bl	8008354 <FLASH_ProgramHalfWord>
 8002b08:	4603      	mov	r3, r0
 8002b0a:	9303      	str	r3, [sp, #12]
 8002b0c:	9b03      	ldr	r3, [sp, #12]
 8002b0e:	b29b      	uxth	r3, r3
 8002b10:	9300      	str	r3, [sp, #0]
 8002b12:	e00a      	b.n	8002b2a <EE_VerifyPageFullWriteVariable+0xc2>
 8002b14:	9b05      	ldr	r3, [sp, #20]
 8002b16:	f103 0304 	add.w	r3, r3, #4	; 0x4
 8002b1a:	9305      	str	r3, [sp, #20]
 8002b1c:	9a05      	ldr	r2, [sp, #20]
 8002b1e:	9b06      	ldr	r3, [sp, #24]
 8002b20:	429a      	cmp	r2, r3
 8002b22:	d3d4      	bcc.n	8002ace <EE_VerifyPageFullWriteVariable+0x66>
 8002b24:	f04f 0380 	mov.w	r3, #128	; 0x80
 8002b28:	9300      	str	r3, [sp, #0]
 8002b2a:	9b00      	ldr	r3, [sp, #0]
 8002b2c:	4618      	mov	r0, r3
 8002b2e:	b007      	add	sp, #28
 8002b30:	bd00      	pop	{pc}
 8002b32:	46c0      	nop			(mov r8, r8)
 8002b34:	0801f7fe 	.word	0x0801f7fe

08002b38 <EE_PageTransfer>:
 8002b38:	b500      	push	{lr}
 8002b3a:	b088      	sub	sp, #32
 8002b3c:	4603      	mov	r3, r0
 8002b3e:	460a      	mov	r2, r1
 8002b40:	f8ad 3008 	strh.w	r3, [sp, #8]
 8002b44:	4613      	mov	r3, r2
 8002b46:	f8ad 3004 	strh.w	r3, [sp, #4]
 8002b4a:	f04f 0304 	mov.w	r3, #4	; 0x4
 8002b4e:	9303      	str	r3, [sp, #12]
 8002b50:	f04f 0300 	mov.w	r3, #0	; 0x0
 8002b54:	f8ad 3018 	strh.w	r3, [sp, #24]
 8002b58:	f04f 0300 	mov.w	r3, #0	; 0x0
 8002b5c:	f8ad 301a 	strh.w	r3, [sp, #26]
 8002b60:	f04f 0300 	mov.w	r3, #0	; 0x0
 8002b64:	f8ad 301c 	strh.w	r3, [sp, #28]
 8002b68:	f04f 0300 	mov.w	r3, #0	; 0x0
 8002b6c:	f8ad 301e 	strh.w	r3, [sp, #30]
 8002b70:	f04f 0000 	mov.w	r0, #0	; 0x0
 8002b74:	f7ff ff14 	bl	80029a0 <EE_FindValidPage>
 8002b78:	4603      	mov	r3, r0
 8002b7a:	f8ad 3018 	strh.w	r3, [sp, #24]
 8002b7e:	f8bd 3018 	ldrh.w	r3, [sp, #24]
 8002b82:	2b01      	cmp	r3, #1
 8002b84:	d104      	bne.n	8002b90 <EE_PageTransfer+0x58>
 8002b86:	4b49      	ldr	r3, [pc, #292]	(8002cac <EE_PageTransfer+0x174>)
 8002b88:	9304      	str	r3, [sp, #16]
 8002b8a:	4b49      	ldr	r3, [pc, #292]	(8002cb0 <EE_PageTransfer+0x178>)
 8002b8c:	9305      	str	r3, [sp, #20]
 8002b8e:	e00c      	b.n	8002baa <EE_PageTransfer+0x72>
 8002b90:	f8bd 3018 	ldrh.w	r3, [sp, #24]
 8002b94:	2b00      	cmp	r3, #0
 8002b96:	d104      	bne.n	8002ba2 <EE_PageTransfer+0x6a>
 8002b98:	4b45      	ldr	r3, [pc, #276]	(8002cb0 <EE_PageTransfer+0x178>)
 8002b9a:	9304      	str	r3, [sp, #16]
 8002b9c:	4b43      	ldr	r3, [pc, #268]	(8002cac <EE_PageTransfer+0x174>)
 8002b9e:	9305      	str	r3, [sp, #20]
 8002ba0:	e003      	b.n	8002baa <EE_PageTransfer+0x72>
 8002ba2:	f04f 03ab 	mov.w	r3, #171	; 0xab
 8002ba6:	9300      	str	r3, [sp, #0]
 8002ba8:	e07c      	b.n	8002ca4 <EE_PageTransfer+0x16c>
 8002baa:	9804      	ldr	r0, [sp, #16]
 8002bac:	f64e 61ee 	movw	r1, #61166	; 0xeeee
 8002bb0:	f005 fbd0 	bl	8008354 <FLASH_ProgramHalfWord>
 8002bb4:	4603      	mov	r3, r0
 8002bb6:	9303      	str	r3, [sp, #12]
 8002bb8:	9b03      	ldr	r3, [sp, #12]
 8002bba:	2b04      	cmp	r3, #4
 8002bbc:	d003      	beq.n	8002bc6 <EE_PageTransfer+0x8e>
 8002bbe:	9b03      	ldr	r3, [sp, #12]
 8002bc0:	b29b      	uxth	r3, r3
 8002bc2:	9300      	str	r3, [sp, #0]
 8002bc4:	e06e      	b.n	8002ca4 <EE_PageTransfer+0x16c>
 8002bc6:	f8bd 3008 	ldrh.w	r3, [sp, #8]
 8002bca:	f8bd 2004 	ldrh.w	r2, [sp, #4]
 8002bce:	4618      	mov	r0, r3
 8002bd0:	4611      	mov	r1, r2
 8002bd2:	f7ff ff49 	bl	8002a68 <EE_VerifyPageFullWriteVariable>
 8002bd6:	4603      	mov	r3, r0
 8002bd8:	f8ad 301c 	strh.w	r3, [sp, #28]
 8002bdc:	f8bd 301c 	ldrh.w	r3, [sp, #28]
 8002be0:	2b04      	cmp	r3, #4
 8002be2:	d003      	beq.n	8002bec <EE_PageTransfer+0xb4>
 8002be4:	f8bd 301c 	ldrh.w	r3, [sp, #28]
 8002be8:	9300      	str	r3, [sp, #0]
 8002bea:	e05b      	b.n	8002ca4 <EE_PageTransfer+0x16c>
 8002bec:	f04f 0300 	mov.w	r3, #0	; 0x0
 8002bf0:	f8ad 301a 	strh.w	r3, [sp, #26]
 8002bf4:	e035      	b.n	8002c62 <EE_PageTransfer+0x12a>
 8002bf6:	f8bd 201a 	ldrh.w	r2, [sp, #26]
 8002bfa:	4b2e      	ldr	r3, [pc, #184]	(8002cb4 <EE_PageTransfer+0x17c>)
 8002bfc:	f833 2012 	ldrh.w	r2, [r3, r2, lsl #1]
 8002c00:	f8bd 3008 	ldrh.w	r3, [sp, #8]
 8002c04:	4293      	cmp	r3, r2
 8002c06:	d026      	beq.n	8002c56 <EE_PageTransfer+0x11e>
 8002c08:	f8bd 201a 	ldrh.w	r2, [sp, #26]
 8002c0c:	4b29      	ldr	r3, [pc, #164]	(8002cb4 <EE_PageTransfer+0x17c>)
 8002c0e:	f833 3012 	ldrh.w	r3, [r3, r2, lsl #1]
 8002c12:	4618      	mov	r0, r3
 8002c14:	4928      	ldr	r1, [pc, #160]	(8002cb8 <EE_PageTransfer+0x180>)
 8002c16:	f7ff fe0d 	bl	8002834 <EE_ReadVariable>
 8002c1a:	4603      	mov	r3, r0
 8002c1c:	f8ad 301e 	strh.w	r3, [sp, #30]
 8002c20:	f8bd 301e 	ldrh.w	r3, [sp, #30]
 8002c24:	2b01      	cmp	r3, #1
 8002c26:	d016      	beq.n	8002c56 <EE_PageTransfer+0x11e>
 8002c28:	f8bd 201a 	ldrh.w	r2, [sp, #26]
 8002c2c:	4b21      	ldr	r3, [pc, #132]	(8002cb4 <EE_PageTransfer+0x17c>)
 8002c2e:	f833 3012 	ldrh.w	r3, [r3, r2, lsl #1]
 8002c32:	461a      	mov	r2, r3
 8002c34:	4b20      	ldr	r3, [pc, #128]	(8002cb8 <EE_PageTransfer+0x180>)
 8002c36:	881b      	ldrh	r3, [r3, #0]
 8002c38:	4610      	mov	r0, r2
 8002c3a:	4619      	mov	r1, r3
 8002c3c:	f7ff ff14 	bl	8002a68 <EE_VerifyPageFullWriteVariable>
 8002c40:	4603      	mov	r3, r0
 8002c42:	f8ad 301c 	strh.w	r3, [sp, #28]
 8002c46:	f8bd 301c 	ldrh.w	r3, [sp, #28]
 8002c4a:	2b04      	cmp	r3, #4
 8002c4c:	d003      	beq.n	8002c56 <EE_PageTransfer+0x11e>
 8002c4e:	f8bd 301c 	ldrh.w	r3, [sp, #28]
 8002c52:	9300      	str	r3, [sp, #0]
 8002c54:	e026      	b.n	8002ca4 <EE_PageTransfer+0x16c>
 8002c56:	f8bd 301a 	ldrh.w	r3, [sp, #26]
 8002c5a:	f103 0301 	add.w	r3, r3, #1	; 0x1
 8002c5e:	f8ad 301a 	strh.w	r3, [sp, #26]
 8002c62:	f8bd 301a 	ldrh.w	r3, [sp, #26]
 8002c66:	2b02      	cmp	r3, #2
 8002c68:	d9c5      	bls.n	8002bf6 <EE_PageTransfer+0xbe>
 8002c6a:	9805      	ldr	r0, [sp, #20]
 8002c6c:	f005 fa56 	bl	800811c <FLASH_ErasePage>
 8002c70:	4603      	mov	r3, r0
 8002c72:	9303      	str	r3, [sp, #12]
 8002c74:	9b03      	ldr	r3, [sp, #12]
 8002c76:	2b04      	cmp	r3, #4
 8002c78:	d003      	beq.n	8002c82 <EE_PageTransfer+0x14a>
 8002c7a:	9b03      	ldr	r3, [sp, #12]
 8002c7c:	b29b      	uxth	r3, r3
 8002c7e:	9300      	str	r3, [sp, #0]
 8002c80:	e010      	b.n	8002ca4 <EE_PageTransfer+0x16c>
 8002c82:	9804      	ldr	r0, [sp, #16]
 8002c84:	f04f 0100 	mov.w	r1, #0	; 0x0
 8002c88:	f005 fb64 	bl	8008354 <FLASH_ProgramHalfWord>
 8002c8c:	4603      	mov	r3, r0
 8002c8e:	9303      	str	r3, [sp, #12]
 8002c90:	9b03      	ldr	r3, [sp, #12]
 8002c92:	2b04      	cmp	r3, #4
 8002c94:	d003      	beq.n	8002c9e <EE_PageTransfer+0x166>
 8002c96:	9b03      	ldr	r3, [sp, #12]
 8002c98:	b29b      	uxth	r3, r3
 8002c9a:	9300      	str	r3, [sp, #0]
 8002c9c:	e002      	b.n	8002ca4 <EE_PageTransfer+0x16c>
 8002c9e:	9b03      	ldr	r3, [sp, #12]
 8002ca0:	b29b      	uxth	r3, r3
 8002ca2:	9300      	str	r3, [sp, #0]
 8002ca4:	9b00      	ldr	r3, [sp, #0]
 8002ca6:	4618      	mov	r0, r3
 8002ca8:	b008      	add	sp, #32
 8002caa:	bd00      	pop	{pc}
 8002cac:	0801f800 	.word	0x0801f800
 8002cb0:	0801fc00 	.word	0x0801fc00
 8002cb4:	20000030 	.word	0x20000030
 8002cb8:	20000180 	.word	0x20000180

08002cbc <__get_PSP>:
 8002cbc:	b081      	sub	sp, #4
 8002cbe:	f04f 0300 	mov.w	r3, #0	; 0x0
 8002cc2:	9300      	str	r3, [sp, #0]
 8002cc4:	f3ef 8309 	mrs	r3, PSP
 8002cc8:	9300      	str	r3, [sp, #0]
 8002cca:	9b00      	ldr	r3, [sp, #0]
 8002ccc:	4618      	mov	r0, r3
 8002cce:	b001      	add	sp, #4
 8002cd0:	4770      	bx	lr
 8002cd2:	46c0      	nop			(mov r8, r8)

08002cd4 <__set_PSP>:
 8002cd4:	b081      	sub	sp, #4
 8002cd6:	9000      	str	r0, [sp, #0]
 8002cd8:	9b00      	ldr	r3, [sp, #0]
 8002cda:	f383 8809 	msr	PSP, r3
 8002cde:	b001      	add	sp, #4
 8002ce0:	4770      	bx	lr
 8002ce2:	46c0      	nop			(mov r8, r8)

08002ce4 <__get_MSP>:
 8002ce4:	b081      	sub	sp, #4
 8002ce6:	f04f 0300 	mov.w	r3, #0	; 0x0
 8002cea:	9300      	str	r3, [sp, #0]
 8002cec:	f3ef 8308 	mrs	r3, MSP
 8002cf0:	9300      	str	r3, [sp, #0]
 8002cf2:	9b00      	ldr	r3, [sp, #0]
 8002cf4:	4618      	mov	r0, r3
 8002cf6:	b001      	add	sp, #4
 8002cf8:	4770      	bx	lr
 8002cfa:	46c0      	nop			(mov r8, r8)

08002cfc <__set_MSP>:
 8002cfc:	b081      	sub	sp, #4
 8002cfe:	9000      	str	r0, [sp, #0]
 8002d00:	9b00      	ldr	r3, [sp, #0]
 8002d02:	f383 8808 	msr	MSP, r3
 8002d06:	b001      	add	sp, #4
 8002d08:	4770      	bx	lr
 8002d0a:	46c0      	nop			(mov r8, r8)

08002d0c <__get_BASEPRI>:
 8002d0c:	b081      	sub	sp, #4
 8002d0e:	f04f 0300 	mov.w	r3, #0	; 0x0
 8002d12:	9300      	str	r3, [sp, #0]
 8002d14:	f3ef 8312 	mrs	r3, BASEPRI_MASK
 8002d18:	9300      	str	r3, [sp, #0]
 8002d1a:	9b00      	ldr	r3, [sp, #0]
 8002d1c:	4618      	mov	r0, r3
 8002d1e:	b001      	add	sp, #4
 8002d20:	4770      	bx	lr
 8002d22:	46c0      	nop			(mov r8, r8)

08002d24 <__set_BASEPRI>:
 8002d24:	b081      	sub	sp, #4
 8002d26:	9000      	str	r0, [sp, #0]
 8002d28:	9b00      	ldr	r3, [sp, #0]
 8002d2a:	f383 8811 	msr	BASEPRI, r3
 8002d2e:	b001      	add	sp, #4
 8002d30:	4770      	bx	lr
 8002d32:	46c0      	nop			(mov r8, r8)

08002d34 <__get_PRIMASK>:
 8002d34:	b081      	sub	sp, #4
 8002d36:	f04f 0300 	mov.w	r3, #0	; 0x0
 8002d3a:	9300      	str	r3, [sp, #0]
 8002d3c:	f3ef 8310 	mrs	r3, PRIMASK
 8002d40:	9300      	str	r3, [sp, #0]
 8002d42:	9b00      	ldr	r3, [sp, #0]
 8002d44:	4618      	mov	r0, r3
 8002d46:	b001      	add	sp, #4
 8002d48:	4770      	bx	lr
 8002d4a:	46c0      	nop			(mov r8, r8)

08002d4c <__set_PRIMASK>:
 8002d4c:	b081      	sub	sp, #4
 8002d4e:	9000      	str	r0, [sp, #0]
 8002d50:	9b00      	ldr	r3, [sp, #0]
 8002d52:	f383 8810 	msr	PRIMASK, r3
 8002d56:	b001      	add	sp, #4
 8002d58:	4770      	bx	lr
 8002d5a:	46c0      	nop			(mov r8, r8)

08002d5c <__get_FAULTMASK>:
 8002d5c:	b081      	sub	sp, #4
 8002d5e:	f04f 0300 	mov.w	r3, #0	; 0x0
 8002d62:	9300      	str	r3, [sp, #0]
 8002d64:	f3ef 8313 	mrs	r3, FAULTMASK
 8002d68:	9300      	str	r3, [sp, #0]
 8002d6a:	9b00      	ldr	r3, [sp, #0]
 8002d6c:	4618      	mov	r0, r3
 8002d6e:	b001      	add	sp, #4
 8002d70:	4770      	bx	lr
 8002d72:	46c0      	nop			(mov r8, r8)

08002d74 <__set_FAULTMASK>:
 8002d74:	b081      	sub	sp, #4
 8002d76:	9000      	str	r0, [sp, #0]
 8002d78:	9b00      	ldr	r3, [sp, #0]
 8002d7a:	f383 8813 	msr	FAULTMASK, r3
 8002d7e:	b001      	add	sp, #4
 8002d80:	4770      	bx	lr
 8002d82:	46c0      	nop			(mov r8, r8)

08002d84 <__REV>:
 8002d84:	b082      	sub	sp, #8
 8002d86:	9000      	str	r0, [sp, #0]
 8002d88:	f04f 0300 	mov.w	r3, #0	; 0x0
 8002d8c:	9301      	str	r3, [sp, #4]
 8002d8e:	9b00      	ldr	r3, [sp, #0]
 8002d90:	ba1b      	rev	r3, r3
 8002d92:	9301      	str	r3, [sp, #4]
 8002d94:	9b01      	ldr	r3, [sp, #4]
 8002d96:	4618      	mov	r0, r3
 8002d98:	b002      	add	sp, #8
 8002d9a:	4770      	bx	lr

08002d9c <__REV16>:
 8002d9c:	b082      	sub	sp, #8
 8002d9e:	4603      	mov	r3, r0
 8002da0:	f8ad 3000 	strh.w	r3, [sp]
 8002da4:	f04f 0300 	mov.w	r3, #0	; 0x0
 8002da8:	9301      	str	r3, [sp, #4]
 8002daa:	f8bd 3000 	ldrh.w	r3, [sp]
 8002dae:	ba5b      	rev16	r3, r3
 8002db0:	9301      	str	r3, [sp, #4]
 8002db2:	9b01      	ldr	r3, [sp, #4]
 8002db4:	4618      	mov	r0, r3
 8002db6:	b002      	add	sp, #8
 8002db8:	4770      	bx	lr
 8002dba:	46c0      	nop			(mov r8, r8)

08002dbc <__REVSH>:
 8002dbc:	b082      	sub	sp, #8
 8002dbe:	4603      	mov	r3, r0
 8002dc0:	f8ad 3000 	strh.w	r3, [sp]
 8002dc4:	f04f 0300 	mov.w	r3, #0	; 0x0
 8002dc8:	9301      	str	r3, [sp, #4]
 8002dca:	f8bd 3000 	ldrh.w	r3, [sp]
 8002dce:	badb      	revsh	r3, r3
 8002dd0:	9301      	str	r3, [sp, #4]
 8002dd2:	9b01      	ldr	r3, [sp, #4]
 8002dd4:	4618      	mov	r0, r3
 8002dd6:	b002      	add	sp, #8
 8002dd8:	4770      	bx	lr
 8002dda:	46c0      	nop			(mov r8, r8)

08002ddc <__RBIT>:
 8002ddc:	b082      	sub	sp, #8
 8002dde:	9000      	str	r0, [sp, #0]
 8002de0:	f04f 0300 	mov.w	r3, #0	; 0x0
 8002de4:	9301      	str	r3, [sp, #4]
 8002de6:	9b00      	ldr	r3, [sp, #0]
 8002de8:	fa93 f3a3 	rbit	r3, r3
 8002dec:	9301      	str	r3, [sp, #4]
 8002dee:	9b01      	ldr	r3, [sp, #4]
 8002df0:	4618      	mov	r0, r3
 8002df2:	b002      	add	sp, #8
 8002df4:	4770      	bx	lr
 8002df6:	46c0      	nop			(mov r8, r8)

08002df8 <__LDREXB>:
 8002df8:	b082      	sub	sp, #8
 8002dfa:	9000      	str	r0, [sp, #0]
 8002dfc:	f04f 0300 	mov.w	r3, #0	; 0x0
 8002e00:	f88d 3007 	strb.w	r3, [sp, #7]
 8002e04:	9b00      	ldr	r3, [sp, #0]
 8002e06:	e8d3 3f4f 	ldrexb	r3, [r3]
 8002e0a:	f88d 3007 	strb.w	r3, [sp, #7]
 8002e0e:	f89d 3007 	ldrb.w	r3, [sp, #7]
 8002e12:	4618      	mov	r0, r3
 8002e14:	b002      	add	sp, #8
 8002e16:	4770      	bx	lr

08002e18 <__LDREXH>:
 8002e18:	b082      	sub	sp, #8
 8002e1a:	9000      	str	r0, [sp, #0]
 8002e1c:	f04f 0300 	mov.w	r3, #0	; 0x0
 8002e20:	f8ad 3006 	strh.w	r3, [sp, #6]
 8002e24:	9b00      	ldr	r3, [sp, #0]
 8002e26:	e8d3 3f5f 	ldrexh	r3, [r3]
 8002e2a:	f8ad 3006 	strh.w	r3, [sp, #6]
 8002e2e:	f8bd 3006 	ldrh.w	r3, [sp, #6]
 8002e32:	4618      	mov	r0, r3
 8002e34:	b002      	add	sp, #8
 8002e36:	4770      	bx	lr

08002e38 <__LDREXW>:
 8002e38:	b082      	sub	sp, #8
 8002e3a:	9000      	str	r0, [sp, #0]
 8002e3c:	f04f 0300 	mov.w	r3, #0	; 0x0
 8002e40:	9301      	str	r3, [sp, #4]
 8002e42:	9b00      	ldr	r3, [sp, #0]
 8002e44:	e853 3f00 	ldrex	r3, [r3]
 8002e48:	9301      	str	r3, [sp, #4]
 8002e4a:	9b01      	ldr	r3, [sp, #4]
 8002e4c:	4618      	mov	r0, r3
 8002e4e:	b002      	add	sp, #8
 8002e50:	4770      	bx	lr
 8002e52:	46c0      	nop			(mov r8, r8)

08002e54 <__STREXB>:
 8002e54:	b083      	sub	sp, #12
 8002e56:	4603      	mov	r3, r0
 8002e58:	9100      	str	r1, [sp, #0]
 8002e5a:	f88d 3004 	strb.w	r3, [sp, #4]
 8002e5e:	f04f 0300 	mov.w	r3, #0	; 0x0
 8002e62:	9302      	str	r3, [sp, #8]
 8002e64:	9a00      	ldr	r2, [sp, #0]
 8002e66:	f89d 3004 	ldrb.w	r3, [sp, #4]
 8002e6a:	e8c2 3f43 	strexb	r3, r3, [r2]
 8002e6e:	9302      	str	r3, [sp, #8]
 8002e70:	9b02      	ldr	r3, [sp, #8]
 8002e72:	4618      	mov	r0, r3
 8002e74:	b003      	add	sp, #12
 8002e76:	4770      	bx	lr

08002e78 <__STREXH>:
 8002e78:	b083      	sub	sp, #12
 8002e7a:	4603      	mov	r3, r0
 8002e7c:	9100      	str	r1, [sp, #0]
 8002e7e:	f8ad 3004 	strh.w	r3, [sp, #4]
 8002e82:	f04f 0300 	mov.w	r3, #0	; 0x0
 8002e86:	9302      	str	r3, [sp, #8]
 8002e88:	9a00      	ldr	r2, [sp, #0]
 8002e8a:	f8bd 3004 	ldrh.w	r3, [sp, #4]
 8002e8e:	e8c2 3f53 	strexh	r3, r3, [r2]
 8002e92:	9302      	str	r3, [sp, #8]
 8002e94:	9b02      	ldr	r3, [sp, #8]
 8002e96:	4618      	mov	r0, r3
 8002e98:	b003      	add	sp, #12
 8002e9a:	4770      	bx	lr

08002e9c <__STREXW>:
 8002e9c:	b083      	sub	sp, #12
 8002e9e:	9001      	str	r0, [sp, #4]
 8002ea0:	9100      	str	r1, [sp, #0]
 8002ea2:	f04f 0300 	mov.w	r3, #0	; 0x0
 8002ea6:	9302      	str	r3, [sp, #8]
 8002ea8:	9a00      	ldr	r2, [sp, #0]
 8002eaa:	9b01      	ldr	r3, [sp, #4]
 8002eac:	e842 3300 	strex	r3, r3, [r2]
 8002eb0:	9302      	str	r3, [sp, #8]
 8002eb2:	9b02      	ldr	r3, [sp, #8]
 8002eb4:	4618      	mov	r0, r3
 8002eb6:	b003      	add	sp, #12
 8002eb8:	4770      	bx	lr
 8002eba:	46c0      	nop			(mov r8, r8)

08002ebc <__get_CONTROL>:
 8002ebc:	b081      	sub	sp, #4
 8002ebe:	f04f 0300 	mov.w	r3, #0	; 0x0
 8002ec2:	9300      	str	r3, [sp, #0]
 8002ec4:	f3ef 8314 	mrs	r3, CONTROL
 8002ec8:	9300      	str	r3, [sp, #0]
 8002eca:	9b00      	ldr	r3, [sp, #0]
 8002ecc:	4618      	mov	r0, r3
 8002ece:	b001      	add	sp, #4
 8002ed0:	4770      	bx	lr
 8002ed2:	46c0      	nop			(mov r8, r8)

08002ed4 <__set_CONTROL>:
 8002ed4:	b081      	sub	sp, #4
 8002ed6:	9000      	str	r0, [sp, #0]
 8002ed8:	9b00      	ldr	r3, [sp, #0]
 8002eda:	f383 8814 	msr	CONTROL, r3
 8002ede:	b001      	add	sp, #4
 8002ee0:	4770      	bx	lr
 8002ee2:	46c0      	nop			(mov r8, r8)

08002ee4 <RCC_DeInit>:
 8002ee4:	4a12      	ldr	r2, [pc, #72]	(8002f30 <RCC_DeInit+0x4c>)
 8002ee6:	4b12      	ldr	r3, [pc, #72]	(8002f30 <RCC_DeInit+0x4c>)
 8002ee8:	681b      	ldr	r3, [r3, #0]
 8002eea:	f043 0301 	orr.w	r3, r3, #1	; 0x1
 8002eee:	6013      	str	r3, [r2, #0]
 8002ef0:	490f      	ldr	r1, [pc, #60]	(8002f30 <RCC_DeInit+0x4c>)
 8002ef2:	4b0f      	ldr	r3, [pc, #60]	(8002f30 <RCC_DeInit+0x4c>)
 8002ef4:	685a      	ldr	r2, [r3, #4]
 8002ef6:	4b0f      	ldr	r3, [pc, #60]	(8002f34 <RCC_DeInit+0x50>)
 8002ef8:	ea02 0303 	and.w	r3, r2, r3
 8002efc:	604b      	str	r3, [r1, #4]
 8002efe:	4a0c      	ldr	r2, [pc, #48]	(8002f30 <RCC_DeInit+0x4c>)
 8002f00:	4b0b      	ldr	r3, [pc, #44]	(8002f30 <RCC_DeInit+0x4c>)
 8002f02:	681b      	ldr	r3, [r3, #0]
 8002f04:	f023 7384 	bic.w	r3, r3, #17301504	; 0x1080000
 8002f08:	f423 3380 	bic.w	r3, r3, #65536	; 0x10000
 8002f0c:	6013      	str	r3, [r2, #0]
 8002f0e:	4a08      	ldr	r2, [pc, #32]	(8002f30 <RCC_DeInit+0x4c>)
 8002f10:	4b07      	ldr	r3, [pc, #28]	(8002f30 <RCC_DeInit+0x4c>)
 8002f12:	681b      	ldr	r3, [r3, #0]
 8002f14:	f423 2380 	bic.w	r3, r3, #262144	; 0x40000
 8002f18:	6013      	str	r3, [r2, #0]
 8002f1a:	4a05      	ldr	r2, [pc, #20]	(8002f30 <RCC_DeInit+0x4c>)
 8002f1c:	4b04      	ldr	r3, [pc, #16]	(8002f30 <RCC_DeInit+0x4c>)
 8002f1e:	685b      	ldr	r3, [r3, #4]
 8002f20:	f423 03fe 	bic.w	r3, r3, #8323072	; 0x7f0000
 8002f24:	6053      	str	r3, [r2, #4]
 8002f26:	4a02      	ldr	r2, [pc, #8]	(8002f30 <RCC_DeInit+0x4c>)
 8002f28:	f04f 0300 	mov.w	r3, #0	; 0x0
 8002f2c:	6093      	str	r3, [r2, #8]
 8002f2e:	4770      	bx	lr
 8002f30:	40021000 	.word	0x40021000
 8002f34:	f8ff0000 	.word	0xf8ff0000

08002f38 <RCC_HSEConfig>:
 8002f38:	b082      	sub	sp, #8
 8002f3a:	9001      	str	r0, [sp, #4]
 8002f3c:	4a12      	ldr	r2, [pc, #72]	(8002f88 <RCC_HSEConfig+0x50>)
 8002f3e:	4b12      	ldr	r3, [pc, #72]	(8002f88 <RCC_HSEConfig+0x50>)
 8002f40:	681b      	ldr	r3, [r3, #0]
 8002f42:	f423 3380 	bic.w	r3, r3, #65536	; 0x10000
 8002f46:	6013      	str	r3, [r2, #0]
 8002f48:	4a0f      	ldr	r2, [pc, #60]	(8002f88 <RCC_HSEConfig+0x50>)
 8002f4a:	4b0f      	ldr	r3, [pc, #60]	(8002f88 <RCC_HSEConfig+0x50>)
 8002f4c:	681b      	ldr	r3, [r3, #0]
 8002f4e:	f423 2380 	bic.w	r3, r3, #262144	; 0x40000
 8002f52:	6013      	str	r3, [r2, #0]
 8002f54:	9b01      	ldr	r3, [sp, #4]
 8002f56:	9300      	str	r3, [sp, #0]
 8002f58:	9b00      	ldr	r3, [sp, #0]
 8002f5a:	f5b3 3f80 	cmp.w	r3, #65536	; 0x10000
 8002f5e:	d004      	beq.n	8002f6a <RCC_HSEConfig+0x32>
 8002f60:	9b00      	ldr	r3, [sp, #0]
 8002f62:	f5b3 2f80 	cmp.w	r3, #262144	; 0x40000
 8002f66:	d007      	beq.n	8002f78 <RCC_HSEConfig+0x40>
 8002f68:	e00c      	b.n	8002f84 <RCC_HSEConfig+0x4c>
 8002f6a:	4a07      	ldr	r2, [pc, #28]	(8002f88 <RCC_HSEConfig+0x50>)
 8002f6c:	4b06      	ldr	r3, [pc, #24]	(8002f88 <RCC_HSEConfig+0x50>)
 8002f6e:	681b      	ldr	r3, [r3, #0]
 8002f70:	f443 3380 	orr.w	r3, r3, #65536	; 0x10000
 8002f74:	6013      	str	r3, [r2, #0]
 8002f76:	e005      	b.n	8002f84 <RCC_HSEConfig+0x4c>
 8002f78:	4a03      	ldr	r2, [pc, #12]	(8002f88 <RCC_HSEConfig+0x50>)
 8002f7a:	4b03      	ldr	r3, [pc, #12]	(8002f88 <RCC_HSEConfig+0x50>)
 8002f7c:	681b      	ldr	r3, [r3, #0]
 8002f7e:	f443 23a0 	orr.w	r3, r3, #327680	; 0x50000
 8002f82:	6013      	str	r3, [r2, #0]
 8002f84:	b002      	add	sp, #8
 8002f86:	4770      	bx	lr
 8002f88:	40021000 	.word	0x40021000

08002f8c <RCC_WaitForHSEStartUp>:
 8002f8c:	b500      	push	{lr}
 8002f8e:	b083      	sub	sp, #12
 8002f90:	f04f 0300 	mov.w	r3, #0	; 0x0
 8002f94:	9300      	str	r3, [sp, #0]
 8002f96:	f04f 0300 	mov.w	r3, #0	; 0x0
 8002f9a:	9301      	str	r3, [sp, #4]
 8002f9c:	f04f 0300 	mov.w	r3, #0	; 0x0
 8002fa0:	9302      	str	r3, [sp, #8]
 8002fa2:	f04f 0031 	mov.w	r0, #49	; 0x31
 8002fa6:	f000 fac9 	bl	800353c <RCC_GetFlagStatus>
 8002faa:	4603      	mov	r3, r0
 8002fac:	9302      	str	r3, [sp, #8]
 8002fae:	9b00      	ldr	r3, [sp, #0]
 8002fb0:	f103 0301 	add.w	r3, r3, #1	; 0x1
 8002fb4:	9300      	str	r3, [sp, #0]
 8002fb6:	9b02      	ldr	r3, [sp, #8]
 8002fb8:	2b00      	cmp	r3, #0
 8002fba:	d103      	bne.n	8002fc4 <RCC_WaitForHSEStartUp+0x38>
 8002fbc:	9b00      	ldr	r3, [sp, #0]
 8002fbe:	f5b3 6fa0 	cmp.w	r3, #1280	; 0x500
 8002fc2:	d1ee      	bne.n	8002fa2 <RCC_WaitForHSEStartUp+0x16>
 8002fc4:	f04f 0031 	mov.w	r0, #49	; 0x31
 8002fc8:	f000 fab8 	bl	800353c <RCC_GetFlagStatus>
 8002fcc:	4603      	mov	r3, r0
 8002fce:	2b00      	cmp	r3, #0
 8002fd0:	d003      	beq.n	8002fda <RCC_WaitForHSEStartUp+0x4e>
 8002fd2:	f04f 0301 	mov.w	r3, #1	; 0x1
 8002fd6:	9301      	str	r3, [sp, #4]
 8002fd8:	e002      	b.n	8002fe0 <RCC_WaitForHSEStartUp+0x54>
 8002fda:	f04f 0300 	mov.w	r3, #0	; 0x0
 8002fde:	9301      	str	r3, [sp, #4]
 8002fe0:	9b01      	ldr	r3, [sp, #4]
 8002fe2:	4618      	mov	r0, r3
 8002fe4:	b003      	add	sp, #12
 8002fe6:	bd00      	pop	{pc}

08002fe8 <RCC_AdjustHSICalibrationValue>:
 8002fe8:	b082      	sub	sp, #8
 8002fea:	4603      	mov	r3, r0
 8002fec:	f88d 3000 	strb.w	r3, [sp]
 8002ff0:	f04f 0300 	mov.w	r3, #0	; 0x0
 8002ff4:	9301      	str	r3, [sp, #4]
 8002ff6:	4b0a      	ldr	r3, [pc, #40]	(8003020 <RCC_AdjustHSICalibrationValue+0x38>)
 8002ff8:	681b      	ldr	r3, [r3, #0]
 8002ffa:	9301      	str	r3, [sp, #4]
 8002ffc:	9b01      	ldr	r3, [sp, #4]
 8002ffe:	f023 03f8 	bic.w	r3, r3, #248	; 0xf8
 8003002:	9301      	str	r3, [sp, #4]
 8003004:	f89d 3000 	ldrb.w	r3, [sp]
 8003008:	ea4f 02c3 	mov.w	r2, r3, lsl #3
 800300c:	9b01      	ldr	r3, [sp, #4]
 800300e:	ea43 0302 	orr.w	r3, r3, r2
 8003012:	9301      	str	r3, [sp, #4]
 8003014:	4a02      	ldr	r2, [pc, #8]	(8003020 <RCC_AdjustHSICalibrationValue+0x38>)
 8003016:	9b01      	ldr	r3, [sp, #4]
 8003018:	6013      	str	r3, [r2, #0]
 800301a:	b002      	add	sp, #8
 800301c:	4770      	bx	lr
 800301e:	46c0      	nop			(mov r8, r8)
 8003020:	40021000 	.word	0x40021000

08003024 <RCC_HSICmd>:
 8003024:	b081      	sub	sp, #4
 8003026:	9000      	str	r0, [sp, #0]
 8003028:	4a02      	ldr	r2, [pc, #8]	(8003034 <RCC_HSICmd+0x10>)
 800302a:	9b00      	ldr	r3, [sp, #0]
 800302c:	6013      	str	r3, [r2, #0]
 800302e:	b001      	add	sp, #4
 8003030:	4770      	bx	lr
 8003032:	46c0      	nop			(mov r8, r8)
 8003034:	42420000 	.word	0x42420000

08003038 <RCC_PLLConfig>:
 8003038:	b083      	sub	sp, #12
 800303a:	9001      	str	r0, [sp, #4]
 800303c:	9100      	str	r1, [sp, #0]
 800303e:	f04f 0300 	mov.w	r3, #0	; 0x0
 8003042:	9302      	str	r3, [sp, #8]
 8003044:	4b09      	ldr	r3, [pc, #36]	(800306c <RCC_PLLConfig+0x34>)
 8003046:	685b      	ldr	r3, [r3, #4]
 8003048:	9302      	str	r3, [sp, #8]
 800304a:	9b02      	ldr	r3, [sp, #8]
 800304c:	f423 137c 	bic.w	r3, r3, #4128768	; 0x3f0000
 8003050:	9302      	str	r3, [sp, #8]
 8003052:	9a01      	ldr	r2, [sp, #4]
 8003054:	9b00      	ldr	r3, [sp, #0]
 8003056:	ea42 0203 	orr.w	r2, r2, r3
 800305a:	9b02      	ldr	r3, [sp, #8]
 800305c:	ea43 0302 	orr.w	r3, r3, r2
 8003060:	9302      	str	r3, [sp, #8]
 8003062:	4a02      	ldr	r2, [pc, #8]	(800306c <RCC_PLLConfig+0x34>)
 8003064:	9b02      	ldr	r3, [sp, #8]
 8003066:	6053      	str	r3, [r2, #4]
 8003068:	b003      	add	sp, #12
 800306a:	4770      	bx	lr
 800306c:	40021000 	.word	0x40021000

08003070 <RCC_PLLCmd>:
 8003070:	b081      	sub	sp, #4
 8003072:	9000      	str	r0, [sp, #0]
 8003074:	4a02      	ldr	r2, [pc, #8]	(8003080 <RCC_PLLCmd+0x10>)
 8003076:	9b00      	ldr	r3, [sp, #0]
 8003078:	6013      	str	r3, [r2, #0]
 800307a:	b001      	add	sp, #4
 800307c:	4770      	bx	lr
 800307e:	46c0      	nop			(mov r8, r8)
 8003080:	42420060 	.word	0x42420060

08003084 <RCC_SYSCLKConfig>:
 8003084:	b082      	sub	sp, #8
 8003086:	9000      	str	r0, [sp, #0]
 8003088:	f04f 0300 	mov.w	r3, #0	; 0x0
 800308c:	9301      	str	r3, [sp, #4]
 800308e:	4b08      	ldr	r3, [pc, #32]	(80030b0 <RCC_SYSCLKConfig+0x2c>)
 8003090:	685b      	ldr	r3, [r3, #4]
 8003092:	9301      	str	r3, [sp, #4]
 8003094:	9b01      	ldr	r3, [sp, #4]
 8003096:	f023 0303 	bic.w	r3, r3, #3	; 0x3
 800309a:	9301      	str	r3, [sp, #4]
 800309c:	9a01      	ldr	r2, [sp, #4]
 800309e:	9b00      	ldr	r3, [sp, #0]
 80030a0:	ea42 0303 	orr.w	r3, r2, r3
 80030a4:	9301      	str	r3, [sp, #4]
 80030a6:	4a02      	ldr	r2, [pc, #8]	(80030b0 <RCC_SYSCLKConfig+0x2c>)
 80030a8:	9b01      	ldr	r3, [sp, #4]
 80030aa:	6053      	str	r3, [r2, #4]
 80030ac:	b002      	add	sp, #8
 80030ae:	4770      	bx	lr
 80030b0:	40021000 	.word	0x40021000

080030b4 <RCC_GetSYSCLKSource>:
 80030b4:	4b03      	ldr	r3, [pc, #12]	(80030c4 <RCC_GetSYSCLKSource+0x10>)
 80030b6:	685b      	ldr	r3, [r3, #4]
 80030b8:	b2db      	uxtb	r3, r3
 80030ba:	f003 030c 	and.w	r3, r3, #12	; 0xc
 80030be:	4618      	mov	r0, r3
 80030c0:	4770      	bx	lr
 80030c2:	46c0      	nop			(mov r8, r8)
 80030c4:	40021000 	.word	0x40021000

080030c8 <RCC_HCLKConfig>:
 80030c8:	b082      	sub	sp, #8
 80030ca:	9000      	str	r0, [sp, #0]
 80030cc:	f04f 0300 	mov.w	r3, #0	; 0x0
 80030d0:	9301      	str	r3, [sp, #4]
 80030d2:	4b08      	ldr	r3, [pc, #32]	(80030f4 <RCC_HCLKConfig+0x2c>)
 80030d4:	685b      	ldr	r3, [r3, #4]
 80030d6:	9301      	str	r3, [sp, #4]
 80030d8:	9b01      	ldr	r3, [sp, #4]
 80030da:	f023 03f0 	bic.w	r3, r3, #240	; 0xf0
 80030de:	9301      	str	r3, [sp, #4]
 80030e0:	9a01      	ldr	r2, [sp, #4]
 80030e2:	9b00      	ldr	r3, [sp, #0]
 80030e4:	ea42 0303 	orr.w	r3, r2, r3
 80030e8:	9301      	str	r3, [sp, #4]
 80030ea:	4a02      	ldr	r2, [pc, #8]	(80030f4 <RCC_HCLKConfig+0x2c>)
 80030ec:	9b01      	ldr	r3, [sp, #4]
 80030ee:	6053      	str	r3, [r2, #4]
 80030f0:	b002      	add	sp, #8
 80030f2:	4770      	bx	lr
 80030f4:	40021000 	.word	0x40021000

080030f8 <RCC_PCLK1Config>:
 80030f8:	b082      	sub	sp, #8
 80030fa:	9000      	str	r0, [sp, #0]
 80030fc:	f04f 0300 	mov.w	r3, #0	; 0x0
 8003100:	9301      	str	r3, [sp, #4]
 8003102:	4b08      	ldr	r3, [pc, #32]	(8003124 <RCC_PCLK1Config+0x2c>)
 8003104:	685b      	ldr	r3, [r3, #4]
 8003106:	9301      	str	r3, [sp, #4]
 8003108:	9b01      	ldr	r3, [sp, #4]
 800310a:	f423 63e0 	bic.w	r3, r3, #1792	; 0x700
 800310e:	9301      	str	r3, [sp, #4]
 8003110:	9a01      	ldr	r2, [sp, #4]
 8003112:	9b00      	ldr	r3, [sp, #0]
 8003114:	ea42 0303 	orr.w	r3, r2, r3
 8003118:	9301      	str	r3, [sp, #4]
 800311a:	4a02      	ldr	r2, [pc, #8]	(8003124 <RCC_PCLK1Config+0x2c>)
 800311c:	9b01      	ldr	r3, [sp, #4]
 800311e:	6053      	str	r3, [r2, #4]
 8003120:	b002      	add	sp, #8
 8003122:	4770      	bx	lr
 8003124:	40021000 	.word	0x40021000

08003128 <RCC_PCLK2Config>:
 8003128:	b082      	sub	sp, #8
 800312a:	9000      	str	r0, [sp, #0]
 800312c:	f04f 0300 	mov.w	r3, #0	; 0x0
 8003130:	9301      	str	r3, [sp, #4]
 8003132:	4b09      	ldr	r3, [pc, #36]	(8003158 <RCC_PCLK2Config+0x30>)
 8003134:	685b      	ldr	r3, [r3, #4]
 8003136:	9301      	str	r3, [sp, #4]
 8003138:	9b01      	ldr	r3, [sp, #4]
 800313a:	f423 5360 	bic.w	r3, r3, #14336	; 0x3800
 800313e:	9301      	str	r3, [sp, #4]
 8003140:	9b00      	ldr	r3, [sp, #0]
 8003142:	ea4f 02c3 	mov.w	r2, r3, lsl #3
 8003146:	9b01      	ldr	r3, [sp, #4]
 8003148:	ea43 0302 	orr.w	r3, r3, r2
 800314c:	9301      	str	r3, [sp, #4]
 800314e:	4a02      	ldr	r2, [pc, #8]	(8003158 <RCC_PCLK2Config+0x30>)
 8003150:	9b01      	ldr	r3, [sp, #4]
 8003152:	6053      	str	r3, [r2, #4]
 8003154:	b002      	add	sp, #8
 8003156:	4770      	bx	lr
 8003158:	40021000 	.word	0x40021000

0800315c <RCC_ITConfig>:
 800315c:	b082      	sub	sp, #8
 800315e:	4603      	mov	r3, r0
 8003160:	9100      	str	r1, [sp, #0]
 8003162:	f88d 3004 	strb.w	r3, [sp, #4]
 8003166:	9b00      	ldr	r3, [sp, #0]
 8003168:	2b00      	cmp	r3, #0
 800316a:	d00a      	beq.n	8003182 <RCC_ITConfig+0x26>
 800316c:	490c      	ldr	r1, [pc, #48]	(80031a0 <RCC_ITConfig+0x44>)
 800316e:	4b0c      	ldr	r3, [pc, #48]	(80031a0 <RCC_ITConfig+0x44>)
 8003170:	781b      	ldrb	r3, [r3, #0]
 8003172:	b2da      	uxtb	r2, r3
 8003174:	f89d 3004 	ldrb.w	r3, [sp, #4]
 8003178:	ea42 0303 	orr.w	r3, r2, r3
 800317c:	b2db      	uxtb	r3, r3
 800317e:	700b      	strb	r3, [r1, #0]
 8003180:	e00c      	b.n	800319c <RCC_ITConfig+0x40>
 8003182:	4907      	ldr	r1, [pc, #28]	(80031a0 <RCC_ITConfig+0x44>)
 8003184:	4b06      	ldr	r3, [pc, #24]	(80031a0 <RCC_ITConfig+0x44>)
 8003186:	781b      	ldrb	r3, [r3, #0]
 8003188:	b2da      	uxtb	r2, r3
 800318a:	f89d 3004 	ldrb.w	r3, [sp, #4]
 800318e:	ea6f 0303 	mvn.w	r3, r3
 8003192:	b2db      	uxtb	r3, r3
 8003194:	ea02 0303 	and.w	r3, r2, r3
 8003198:	b2db      	uxtb	r3, r3
 800319a:	700b      	strb	r3, [r1, #0]
 800319c:	b002      	add	sp, #8
 800319e:	4770      	bx	lr
 80031a0:	40021009 	.word	0x40021009

080031a4 <RCC_USBCLKConfig>:
 80031a4:	b081      	sub	sp, #4
 80031a6:	9000      	str	r0, [sp, #0]
 80031a8:	4a02      	ldr	r2, [pc, #8]	(80031b4 <RCC_USBCLKConfig+0x10>)
 80031aa:	9b00      	ldr	r3, [sp, #0]
 80031ac:	6013      	str	r3, [r2, #0]
 80031ae:	b001      	add	sp, #4
 80031b0:	4770      	bx	lr
 80031b2:	46c0      	nop			(mov r8, r8)
 80031b4:	424200d8 	.word	0x424200d8

080031b8 <RCC_ADCCLKConfig>:
 80031b8:	b082      	sub	sp, #8
 80031ba:	9000      	str	r0, [sp, #0]
 80031bc:	f04f 0300 	mov.w	r3, #0	; 0x0
 80031c0:	9301      	str	r3, [sp, #4]
 80031c2:	4b08      	ldr	r3, [pc, #32]	(80031e4 <RCC_ADCCLKConfig+0x2c>)
 80031c4:	685b      	ldr	r3, [r3, #4]
 80031c6:	9301      	str	r3, [sp, #4]
 80031c8:	9b01      	ldr	r3, [sp, #4]
 80031ca:	f423 4340 	bic.w	r3, r3, #49152	; 0xc000
 80031ce:	9301      	str	r3, [sp, #4]
 80031d0:	9a01      	ldr	r2, [sp, #4]
 80031d2:	9b00      	ldr	r3, [sp, #0]
 80031d4:	ea42 0303 	orr.w	r3, r2, r3
 80031d8:	9301      	str	r3, [sp, #4]
 80031da:	4a02      	ldr	r2, [pc, #8]	(80031e4 <RCC_ADCCLKConfig+0x2c>)
 80031dc:	9b01      	ldr	r3, [sp, #4]
 80031de:	6053      	str	r3, [r2, #4]
 80031e0:	b002      	add	sp, #8
 80031e2:	4770      	bx	lr
 80031e4:	40021000 	.word	0x40021000

080031e8 <RCC_LSEConfig>:
 80031e8:	b082      	sub	sp, #8
 80031ea:	4603      	mov	r3, r0
 80031ec:	f88d 3004 	strb.w	r3, [sp, #4]
 80031f0:	4a0e      	ldr	r2, [pc, #56]	(800322c <RCC_LSEConfig+0x44>)
 80031f2:	f04f 0300 	mov.w	r3, #0	; 0x0
 80031f6:	7013      	strb	r3, [r2, #0]
 80031f8:	4a0c      	ldr	r2, [pc, #48]	(800322c <RCC_LSEConfig+0x44>)
 80031fa:	f04f 0300 	mov.w	r3, #0	; 0x0
 80031fe:	7013      	strb	r3, [r2, #0]
 8003200:	f89d 3004 	ldrb.w	r3, [sp, #4]
 8003204:	9300      	str	r3, [sp, #0]
 8003206:	9b00      	ldr	r3, [sp, #0]
 8003208:	2b01      	cmp	r3, #1
 800320a:	d003      	beq.n	8003214 <RCC_LSEConfig+0x2c>
 800320c:	9b00      	ldr	r3, [sp, #0]
 800320e:	2b04      	cmp	r3, #4
 8003210:	d005      	beq.n	800321e <RCC_LSEConfig+0x36>
 8003212:	e008      	b.n	8003226 <RCC_LSEConfig+0x3e>
 8003214:	4b05      	ldr	r3, [pc, #20]	(800322c <RCC_LSEConfig+0x44>)
 8003216:	f04f 0201 	mov.w	r2, #1	; 0x1
 800321a:	701a      	strb	r2, [r3, #0]
 800321c:	e003      	b.n	8003226 <RCC_LSEConfig+0x3e>
 800321e:	4b03      	ldr	r3, [pc, #12]	(800322c <RCC_LSEConfig+0x44>)
 8003220:	f04f 0205 	mov.w	r2, #5	; 0x5
 8003224:	701a      	strb	r2, [r3, #0]
 8003226:	b002      	add	sp, #8
 8003228:	4770      	bx	lr
 800322a:	46c0      	nop			(mov r8, r8)
 800322c:	40021020 	.word	0x40021020

08003230 <RCC_LSICmd>:
 8003230:	b081      	sub	sp, #4
 8003232:	9000      	str	r0, [sp, #0]
 8003234:	4a02      	ldr	r2, [pc, #8]	(8003240 <RCC_LSICmd+0x10>)
 8003236:	9b00      	ldr	r3, [sp, #0]
 8003238:	6013      	str	r3, [r2, #0]
 800323a:	b001      	add	sp, #4
 800323c:	4770      	bx	lr
 800323e:	46c0      	nop			(mov r8, r8)
 8003240:	42420480 	.word	0x42420480

08003244 <RCC_RTCCLKConfig>:
 8003244:	b081      	sub	sp, #4
 8003246:	9000      	str	r0, [sp, #0]
 8003248:	4904      	ldr	r1, [pc, #16]	(800325c <RCC_RTCCLKConfig+0x18>)
 800324a:	4b04      	ldr	r3, [pc, #16]	(800325c <RCC_RTCCLKConfig+0x18>)
 800324c:	6a1a      	ldr	r2, [r3, #32]
 800324e:	9b00      	ldr	r3, [sp, #0]
 8003250:	ea42 0303 	orr.w	r3, r2, r3
 8003254:	620b      	str	r3, [r1, #32]
 8003256:	b001      	add	sp, #4
 8003258:	4770      	bx	lr
 800325a:	46c0      	nop			(mov r8, r8)
 800325c:	40021000 	.word	0x40021000

08003260 <RCC_RTCCLKCmd>:
 8003260:	b081      	sub	sp, #4
 8003262:	9000      	str	r0, [sp, #0]
 8003264:	4a02      	ldr	r2, [pc, #8]	(8003270 <RCC_RTCCLKCmd+0x10>)
 8003266:	9b00      	ldr	r3, [sp, #0]
 8003268:	6013      	str	r3, [r2, #0]
 800326a:	b001      	add	sp, #4
 800326c:	4770      	bx	lr
 800326e:	46c0      	nop			(mov r8, r8)
 8003270:	4242043c 	.word	0x4242043c

08003274 <RCC_GetClocksFreq>:
 8003274:	b086      	sub	sp, #24
 8003276:	9001      	str	r0, [sp, #4]
 8003278:	f04f 0300 	mov.w	r3, #0	; 0x0
 800327c:	9302      	str	r3, [sp, #8]
 800327e:	f04f 0300 	mov.w	r3, #0	; 0x0
 8003282:	9303      	str	r3, [sp, #12]
 8003284:	f04f 0300 	mov.w	r3, #0	; 0x0
 8003288:	9304      	str	r3, [sp, #16]
 800328a:	f04f 0300 	mov.w	r3, #0	; 0x0
 800328e:	9305      	str	r3, [sp, #20]
 8003290:	4b4f      	ldr	r3, [pc, #316]	(80033d0 <RCC_GetClocksFreq+0x15c>)
 8003292:	685b      	ldr	r3, [r3, #4]
 8003294:	f003 030c 	and.w	r3, r3, #12	; 0xc
 8003298:	9302      	str	r3, [sp, #8]
 800329a:	9b02      	ldr	r3, [sp, #8]
 800329c:	9300      	str	r3, [sp, #0]
 800329e:	9b00      	ldr	r3, [sp, #0]
 80032a0:	2b04      	cmp	r3, #4
 80032a2:	d009      	beq.n	80032b8 <RCC_GetClocksFreq+0x44>
 80032a4:	9b00      	ldr	r3, [sp, #0]
 80032a6:	2b08      	cmp	r3, #8
 80032a8:	d00a      	beq.n	80032c0 <RCC_GetClocksFreq+0x4c>
 80032aa:	9b00      	ldr	r3, [sp, #0]
 80032ac:	2b00      	cmp	r3, #0
 80032ae:	d135      	bne.n	800331c <RCC_GetClocksFreq+0xa8>
 80032b0:	9a01      	ldr	r2, [sp, #4]
 80032b2:	4b48      	ldr	r3, [pc, #288]	(80033d4 <RCC_GetClocksFreq+0x160>)
 80032b4:	6013      	str	r3, [r2, #0]
 80032b6:	e034      	b.n	8003322 <RCC_GetClocksFreq+0xae>
 80032b8:	9a01      	ldr	r2, [sp, #4]
 80032ba:	4b46      	ldr	r3, [pc, #280]	(80033d4 <RCC_GetClocksFreq+0x160>)
 80032bc:	6013      	str	r3, [r2, #0]
 80032be:	e030      	b.n	8003322 <RCC_GetClocksFreq+0xae>
 80032c0:	4b43      	ldr	r3, [pc, #268]	(80033d0 <RCC_GetClocksFreq+0x15c>)
 80032c2:	685b      	ldr	r3, [r3, #4]
 80032c4:	f403 1370 	and.w	r3, r3, #3932160	; 0x3c0000
 80032c8:	9303      	str	r3, [sp, #12]
 80032ca:	9b03      	ldr	r3, [sp, #12]
 80032cc:	ea4f 4393 	mov.w	r3, r3, lsr #18
 80032d0:	f103 0302 	add.w	r3, r3, #2	; 0x2
 80032d4:	9303      	str	r3, [sp, #12]
 80032d6:	4b3e      	ldr	r3, [pc, #248]	(80033d0 <RCC_GetClocksFreq+0x15c>)
 80032d8:	685b      	ldr	r3, [r3, #4]
 80032da:	f403 3380 	and.w	r3, r3, #65536	; 0x10000
 80032de:	9304      	str	r3, [sp, #16]
 80032e0:	9b04      	ldr	r3, [sp, #16]
 80032e2:	2b00      	cmp	r3, #0
 80032e4:	d106      	bne.n	80032f4 <RCC_GetClocksFreq+0x80>
 80032e6:	9a03      	ldr	r2, [sp, #12]
 80032e8:	4b3b      	ldr	r3, [pc, #236]	(80033d8 <RCC_GetClocksFreq+0x164>)
 80032ea:	fb03 f202 	mul.w	r2, r3, r2
 80032ee:	9b01      	ldr	r3, [sp, #4]
 80032f0:	601a      	str	r2, [r3, #0]
 80032f2:	e016      	b.n	8003322 <RCC_GetClocksFreq+0xae>
 80032f4:	4b36      	ldr	r3, [pc, #216]	(80033d0 <RCC_GetClocksFreq+0x15c>)
 80032f6:	685b      	ldr	r3, [r3, #4]
 80032f8:	f403 3300 	and.w	r3, r3, #131072	; 0x20000
 80032fc:	2b00      	cmp	r3, #0
 80032fe:	d006      	beq.n	800330e <RCC_GetClocksFreq+0x9a>
 8003300:	9a03      	ldr	r2, [sp, #12]
 8003302:	4b35      	ldr	r3, [pc, #212]	(80033d8 <RCC_GetClocksFreq+0x164>)
 8003304:	fb03 f202 	mul.w	r2, r3, r2
 8003308:	9b01      	ldr	r3, [sp, #4]
 800330a:	601a      	str	r2, [r3, #0]
 800330c:	e009      	b.n	8003322 <RCC_GetClocksFreq+0xae>
 800330e:	9a03      	ldr	r2, [sp, #12]
 8003310:	4b30      	ldr	r3, [pc, #192]	(80033d4 <RCC_GetClocksFreq+0x160>)
 8003312:	fb03 f202 	mul.w	r2, r3, r2
 8003316:	9b01      	ldr	r3, [sp, #4]
 8003318:	601a      	str	r2, [r3, #0]
 800331a:	e002      	b.n	8003322 <RCC_GetClocksFreq+0xae>
 800331c:	9a01      	ldr	r2, [sp, #4]
 800331e:	4b2d      	ldr	r3, [pc, #180]	(80033d4 <RCC_GetClocksFreq+0x160>)
 8003320:	6013      	str	r3, [r2, #0]
 8003322:	4b2b      	ldr	r3, [pc, #172]	(80033d0 <RCC_GetClocksFreq+0x15c>)
 8003324:	685b      	ldr	r3, [r3, #4]
 8003326:	f003 03f0 	and.w	r3, r3, #240	; 0xf0
 800332a:	9302      	str	r3, [sp, #8]
 800332c:	9b02      	ldr	r3, [sp, #8]
 800332e:	ea4f 1313 	mov.w	r3, r3, lsr #4
 8003332:	9302      	str	r3, [sp, #8]
 8003334:	9a02      	ldr	r2, [sp, #8]
 8003336:	4b29      	ldr	r3, [pc, #164]	(80033dc <RCC_GetClocksFreq+0x168>)
 8003338:	5c9b      	ldrb	r3, [r3, r2]
 800333a:	b2db      	uxtb	r3, r3
 800333c:	9305      	str	r3, [sp, #20]
 800333e:	9b01      	ldr	r3, [sp, #4]
 8003340:	681a      	ldr	r2, [r3, #0]
 8003342:	9b05      	ldr	r3, [sp, #20]
 8003344:	fa22 f203 	lsr.w	r2, r2, r3
 8003348:	9b01      	ldr	r3, [sp, #4]
 800334a:	605a      	str	r2, [r3, #4]
 800334c:	4b20      	ldr	r3, [pc, #128]	(80033d0 <RCC_GetClocksFreq+0x15c>)
 800334e:	685b      	ldr	r3, [r3, #4]
 8003350:	f403 63e0 	and.w	r3, r3, #1792	; 0x700
 8003354:	9302      	str	r3, [sp, #8]
 8003356:	9b02      	ldr	r3, [sp, #8]
 8003358:	ea4f 2313 	mov.w	r3, r3, lsr #8
 800335c:	9302      	str	r3, [sp, #8]
 800335e:	9a02      	ldr	r2, [sp, #8]
 8003360:	4b1e      	ldr	r3, [pc, #120]	(80033dc <RCC_GetClocksFreq+0x168>)
 8003362:	5c9b      	ldrb	r3, [r3, r2]
 8003364:	b2db      	uxtb	r3, r3
 8003366:	9305      	str	r3, [sp, #20]
 8003368:	9b01      	ldr	r3, [sp, #4]
 800336a:	685a      	ldr	r2, [r3, #4]
 800336c:	9b05      	ldr	r3, [sp, #20]
 800336e:	fa22 f203 	lsr.w	r2, r2, r3
 8003372:	9b01      	ldr	r3, [sp, #4]
 8003374:	609a      	str	r2, [r3, #8]
 8003376:	4b16      	ldr	r3, [pc, #88]	(80033d0 <RCC_GetClocksFreq+0x15c>)
 8003378:	685b      	ldr	r3, [r3, #4]
 800337a:	f403 5360 	and.w	r3, r3, #14336	; 0x3800
 800337e:	9302      	str	r3, [sp, #8]
 8003380:	9b02      	ldr	r3, [sp, #8]
 8003382:	ea4f 23d3 	mov.w	r3, r3, lsr #11
 8003386:	9302      	str	r3, [sp, #8]
 8003388:	9a02      	ldr	r2, [sp, #8]
 800338a:	4b14      	ldr	r3, [pc, #80]	(80033dc <RCC_GetClocksFreq+0x168>)
 800338c:	5c9b      	ldrb	r3, [r3, r2]
 800338e:	b2db      	uxtb	r3, r3
 8003390:	9305      	str	r3, [sp, #20]
 8003392:	9b01      	ldr	r3, [sp, #4]
 8003394:	685a      	ldr	r2, [r3, #4]
 8003396:	9b05      	ldr	r3, [sp, #20]
 8003398:	fa22 f203 	lsr.w	r2, r2, r3
 800339c:	9b01      	ldr	r3, [sp, #4]
 800339e:	60da      	str	r2, [r3, #12]
 80033a0:	4b0b      	ldr	r3, [pc, #44]	(80033d0 <RCC_GetClocksFreq+0x15c>)
 80033a2:	685b      	ldr	r3, [r3, #4]
 80033a4:	f403 4340 	and.w	r3, r3, #49152	; 0xc000
 80033a8:	9302      	str	r3, [sp, #8]
 80033aa:	9b02      	ldr	r3, [sp, #8]
 80033ac:	ea4f 3393 	mov.w	r3, r3, lsr #14
 80033b0:	9302      	str	r3, [sp, #8]
 80033b2:	9a02      	ldr	r2, [sp, #8]
 80033b4:	4b0a      	ldr	r3, [pc, #40]	(80033e0 <RCC_GetClocksFreq+0x16c>)
 80033b6:	5c9b      	ldrb	r3, [r3, r2]
 80033b8:	b2db      	uxtb	r3, r3
 80033ba:	9305      	str	r3, [sp, #20]
 80033bc:	9b01      	ldr	r3, [sp, #4]
 80033be:	68da      	ldr	r2, [r3, #12]
 80033c0:	9b05      	ldr	r3, [sp, #20]
 80033c2:	fbb2 f2f3 	udiv	r2, r2, r3
 80033c6:	9b01      	ldr	r3, [sp, #4]
 80033c8:	611a      	str	r2, [r3, #16]
 80033ca:	b006      	add	sp, #24
 80033cc:	4770      	bx	lr
 80033ce:	46c0      	nop			(mov r8, r8)
 80033d0:	40021000 	.word	0x40021000
 80033d4:	007a1200 	.word	0x007a1200
 80033d8:	003d0900 	.word	0x003d0900
 80033dc:	20000036 	.word	0x20000036
 80033e0:	20000046 	.word	0x20000046

080033e4 <RCC_AHBPeriphClockCmd>:
 80033e4:	b082      	sub	sp, #8
 80033e6:	9001      	str	r0, [sp, #4]
 80033e8:	9100      	str	r1, [sp, #0]
 80033ea:	9b00      	ldr	r3, [sp, #0]
 80033ec:	2b00      	cmp	r3, #0
 80033ee:	d007      	beq.n	8003400 <RCC_AHBPeriphClockCmd+0x1c>
 80033f0:	4909      	ldr	r1, [pc, #36]	(8003418 <RCC_AHBPeriphClockCmd+0x34>)
 80033f2:	4b09      	ldr	r3, [pc, #36]	(8003418 <RCC_AHBPeriphClockCmd+0x34>)
 80033f4:	695a      	ldr	r2, [r3, #20]
 80033f6:	9b01      	ldr	r3, [sp, #4]
 80033f8:	ea42 0303 	orr.w	r3, r2, r3
 80033fc:	614b      	str	r3, [r1, #20]
 80033fe:	e008      	b.n	8003412 <RCC_AHBPeriphClockCmd+0x2e>
 8003400:	4905      	ldr	r1, [pc, #20]	(8003418 <RCC_AHBPeriphClockCmd+0x34>)
 8003402:	4b05      	ldr	r3, [pc, #20]	(8003418 <RCC_AHBPeriphClockCmd+0x34>)
 8003404:	695a      	ldr	r2, [r3, #20]
 8003406:	9b01      	ldr	r3, [sp, #4]
 8003408:	ea6f 0303 	mvn.w	r3, r3
 800340c:	ea02 0303 	and.w	r3, r2, r3
 8003410:	614b      	str	r3, [r1, #20]
 8003412:	b002      	add	sp, #8
 8003414:	4770      	bx	lr
 8003416:	46c0      	nop			(mov r8, r8)
 8003418:	40021000 	.word	0x40021000

0800341c <RCC_APB2PeriphClockCmd>:
 800341c:	b082      	sub	sp, #8
 800341e:	9001      	str	r0, [sp, #4]
 8003420:	9100      	str	r1, [sp, #0]
 8003422:	9b00      	ldr	r3, [sp, #0]
 8003424:	2b00      	cmp	r3, #0
 8003426:	d007      	beq.n	8003438 <RCC_APB2PeriphClockCmd+0x1c>
 8003428:	4909      	ldr	r1, [pc, #36]	(8003450 <RCC_APB2PeriphClockCmd+0x34>)
 800342a:	4b09      	ldr	r3, [pc, #36]	(8003450 <RCC_APB2PeriphClockCmd+0x34>)
 800342c:	699a      	ldr	r2, [r3, #24]
 800342e:	9b01      	ldr	r3, [sp, #4]
 8003430:	ea42 0303 	orr.w	r3, r2, r3
 8003434:	618b      	str	r3, [r1, #24]
 8003436:	e008      	b.n	800344a <RCC_APB2PeriphClockCmd+0x2e>
 8003438:	4905      	ldr	r1, [pc, #20]	(8003450 <RCC_APB2PeriphClockCmd+0x34>)
 800343a:	4b05      	ldr	r3, [pc, #20]	(8003450 <RCC_APB2PeriphClockCmd+0x34>)
 800343c:	699a      	ldr	r2, [r3, #24]
 800343e:	9b01      	ldr	r3, [sp, #4]
 8003440:	ea6f 0303 	mvn.w	r3, r3
 8003444:	ea02 0303 	and.w	r3, r2, r3
 8003448:	618b      	str	r3, [r1, #24]
 800344a:	b002      	add	sp, #8
 800344c:	4770      	bx	lr
 800344e:	46c0      	nop			(mov r8, r8)
 8003450:	40021000 	.word	0x40021000

08003454 <RCC_APB1PeriphClockCmd>:
 8003454:	b082      	sub	sp, #8
 8003456:	9001      	str	r0, [sp, #4]
 8003458:	9100      	str	r1, [sp, #0]
 800345a:	9b00      	ldr	r3, [sp, #0]
 800345c:	2b00      	cmp	r3, #0
 800345e:	d007      	beq.n	8003470 <RCC_APB1PeriphClockCmd+0x1c>
 8003460:	4909      	ldr	r1, [pc, #36]	(8003488 <RCC_APB1PeriphClockCmd+0x34>)
 8003462:	4b09      	ldr	r3, [pc, #36]	(8003488 <RCC_APB1PeriphClockCmd+0x34>)
 8003464:	69da      	ldr	r2, [r3, #28]
 8003466:	9b01      	ldr	r3, [sp, #4]
 8003468:	ea42 0303 	orr.w	r3, r2, r3
 800346c:	61cb      	str	r3, [r1, #28]
 800346e:	e008      	b.n	8003482 <RCC_APB1PeriphClockCmd+0x2e>
 8003470:	4905      	ldr	r1, [pc, #20]	(8003488 <RCC_APB1PeriphClockCmd+0x34>)
 8003472:	4b05      	ldr	r3, [pc, #20]	(8003488 <RCC_APB1PeriphClockCmd+0x34>)
 8003474:	69da      	ldr	r2, [r3, #28]
 8003476:	9b01      	ldr	r3, [sp, #4]
 8003478:	ea6f 0303 	mvn.w	r3, r3
 800347c:	ea02 0303 	and.w	r3, r2, r3
 8003480:	61cb      	str	r3, [r1, #28]
 8003482:	b002      	add	sp, #8
 8003484:	4770      	bx	lr
 8003486:	46c0      	nop			(mov r8, r8)
 8003488:	40021000 	.word	0x40021000

0800348c <RCC_APB2PeriphResetCmd>:
 800348c:	b082      	sub	sp, #8
 800348e:	9001      	str	r0, [sp, #4]
 8003490:	9100      	str	r1, [sp, #0]
 8003492:	9b00      	ldr	r3, [sp, #0]
 8003494:	2b00      	cmp	r3, #0
 8003496:	d007      	beq.n	80034a8 <RCC_APB2PeriphResetCmd+0x1c>
 8003498:	4909      	ldr	r1, [pc, #36]	(80034c0 <RCC_APB2PeriphResetCmd+0x34>)
 800349a:	4b09      	ldr	r3, [pc, #36]	(80034c0 <RCC_APB2PeriphResetCmd+0x34>)
 800349c:	68da      	ldr	r2, [r3, #12]
 800349e:	9b01      	ldr	r3, [sp, #4]
 80034a0:	ea42 0303 	orr.w	r3, r2, r3
 80034a4:	60cb      	str	r3, [r1, #12]
 80034a6:	e008      	b.n	80034ba <RCC_APB2PeriphResetCmd+0x2e>
 80034a8:	4905      	ldr	r1, [pc, #20]	(80034c0 <RCC_APB2PeriphResetCmd+0x34>)
 80034aa:	4b05      	ldr	r3, [pc, #20]	(80034c0 <RCC_APB2PeriphResetCmd+0x34>)
 80034ac:	68da      	ldr	r2, [r3, #12]
 80034ae:	9b01      	ldr	r3, [sp, #4]
 80034b0:	ea6f 0303 	mvn.w	r3, r3
 80034b4:	ea02 0303 	and.w	r3, r2, r3
 80034b8:	60cb      	str	r3, [r1, #12]
 80034ba:	b002      	add	sp, #8
 80034bc:	4770      	bx	lr
 80034be:	46c0      	nop			(mov r8, r8)
 80034c0:	40021000 	.word	0x40021000

080034c4 <RCC_APB1PeriphResetCmd>:
 80034c4:	b082      	sub	sp, #8
 80034c6:	9001      	str	r0, [sp, #4]
 80034c8:	9100      	str	r1, [sp, #0]
 80034ca:	9b00      	ldr	r3, [sp, #0]
 80034cc:	2b00      	cmp	r3, #0
 80034ce:	d007      	beq.n	80034e0 <RCC_APB1PeriphResetCmd+0x1c>
 80034d0:	4909      	ldr	r1, [pc, #36]	(80034f8 <RCC_APB1PeriphResetCmd+0x34>)
 80034d2:	4b09      	ldr	r3, [pc, #36]	(80034f8 <RCC_APB1PeriphResetCmd+0x34>)
 80034d4:	691a      	ldr	r2, [r3, #16]
 80034d6:	9b01      	ldr	r3, [sp, #4]
 80034d8:	ea42 0303 	orr.w	r3, r2, r3
 80034dc:	610b      	str	r3, [r1, #16]
 80034de:	e008      	b.n	80034f2 <RCC_APB1PeriphResetCmd+0x2e>
 80034e0:	4905      	ldr	r1, [pc, #20]	(80034f8 <RCC_APB1PeriphResetCmd+0x34>)
 80034e2:	4b05      	ldr	r3, [pc, #20]	(80034f8 <RCC_APB1PeriphResetCmd+0x34>)
 80034e4:	691a      	ldr	r2, [r3, #16]
 80034e6:	9b01      	ldr	r3, [sp, #4]
 80034e8:	ea6f 0303 	mvn.w	r3, r3
 80034ec:	ea02 0303 	and.w	r3, r2, r3
 80034f0:	610b      	str	r3, [r1, #16]
 80034f2:	b002      	add	sp, #8
 80034f4:	4770      	bx	lr
 80034f6:	46c0      	nop			(mov r8, r8)
 80034f8:	40021000 	.word	0x40021000

080034fc <RCC_BackupResetCmd>:
 80034fc:	b081      	sub	sp, #4
 80034fe:	9000      	str	r0, [sp, #0]
 8003500:	4a02      	ldr	r2, [pc, #8]	(800350c <RCC_BackupResetCmd+0x10>)
 8003502:	9b00      	ldr	r3, [sp, #0]
 8003504:	6013      	str	r3, [r2, #0]
 8003506:	b001      	add	sp, #4
 8003508:	4770      	bx	lr
 800350a:	46c0      	nop			(mov r8, r8)
 800350c:	42420440 	.word	0x42420440

08003510 <RCC_ClockSecuritySystemCmd>:
 8003510:	b081      	sub	sp, #4
 8003512:	9000      	str	r0, [sp, #0]
 8003514:	4a02      	ldr	r2, [pc, #8]	(8003520 <RCC_ClockSecuritySystemCmd+0x10>)
 8003516:	9b00      	ldr	r3, [sp, #0]
 8003518:	6013      	str	r3, [r2, #0]
 800351a:	b001      	add	sp, #4
 800351c:	4770      	bx	lr
 800351e:	46c0      	nop			(mov r8, r8)
 8003520:	4242004c 	.word	0x4242004c

08003524 <RCC_MCOConfig>:
 8003524:	b081      	sub	sp, #4
 8003526:	4603      	mov	r3, r0
 8003528:	f88d 3000 	strb.w	r3, [sp]
 800352c:	4a02      	ldr	r2, [pc, #8]	(8003538 <RCC_MCOConfig+0x14>)
 800352e:	f89d 3000 	ldrb.w	r3, [sp]
 8003532:	7013      	strb	r3, [r2, #0]
 8003534:	b001      	add	sp, #4
 8003536:	4770      	bx	lr
 8003538:	40021007 	.word	0x40021007

0800353c <RCC_GetFlagStatus>:
 800353c:	b084      	sub	sp, #16
 800353e:	4603      	mov	r3, r0
 8003540:	f88d 3000 	strb.w	r3, [sp]
 8003544:	f04f 0300 	mov.w	r3, #0	; 0x0
 8003548:	9301      	str	r3, [sp, #4]
 800354a:	f04f 0300 	mov.w	r3, #0	; 0x0
 800354e:	9302      	str	r3, [sp, #8]
 8003550:	f04f 0300 	mov.w	r3, #0	; 0x0
 8003554:	9303      	str	r3, [sp, #12]
 8003556:	f89d 3000 	ldrb.w	r3, [sp]
 800355a:	ea4f 1353 	mov.w	r3, r3, lsr #5
 800355e:	b2db      	uxtb	r3, r3
 8003560:	9301      	str	r3, [sp, #4]
 8003562:	9b01      	ldr	r3, [sp, #4]
 8003564:	2b01      	cmp	r3, #1
 8003566:	d103      	bne.n	8003570 <RCC_GetFlagStatus+0x34>
 8003568:	4b13      	ldr	r3, [pc, #76]	(80035b8 <RCC_GetFlagStatus+0x7c>)
 800356a:	681b      	ldr	r3, [r3, #0]
 800356c:	9302      	str	r3, [sp, #8]
 800356e:	e009      	b.n	8003584 <RCC_GetFlagStatus+0x48>
 8003570:	9b01      	ldr	r3, [sp, #4]
 8003572:	2b02      	cmp	r3, #2
 8003574:	d103      	bne.n	800357e <RCC_GetFlagStatus+0x42>
 8003576:	4b10      	ldr	r3, [pc, #64]	(80035b8 <RCC_GetFlagStatus+0x7c>)
 8003578:	6a1b      	ldr	r3, [r3, #32]
 800357a:	9302      	str	r3, [sp, #8]
 800357c:	e002      	b.n	8003584 <RCC_GetFlagStatus+0x48>
 800357e:	4b0e      	ldr	r3, [pc, #56]	(80035b8 <RCC_GetFlagStatus+0x7c>)
 8003580:	6a5b      	ldr	r3, [r3, #36]
 8003582:	9302      	str	r3, [sp, #8]
 8003584:	f89d 3000 	ldrb.w	r3, [sp]
 8003588:	f003 031f 	and.w	r3, r3, #31	; 0x1f
 800358c:	9301      	str	r3, [sp, #4]
 800358e:	9a01      	ldr	r2, [sp, #4]
 8003590:	9b02      	ldr	r3, [sp, #8]
 8003592:	fa23 f302 	lsr.w	r3, r3, r2
 8003596:	f003 0301 	and.w	r3, r3, #1	; 0x1
 800359a:	b2db      	uxtb	r3, r3
 800359c:	2b00      	cmp	r3, #0
 800359e:	d003      	beq.n	80035a8 <RCC_GetFlagStatus+0x6c>
 80035a0:	f04f 0301 	mov.w	r3, #1	; 0x1
 80035a4:	9303      	str	r3, [sp, #12]
 80035a6:	e002      	b.n	80035ae <RCC_GetFlagStatus+0x72>
 80035a8:	f04f 0300 	mov.w	r3, #0	; 0x0
 80035ac:	9303      	str	r3, [sp, #12]
 80035ae:	9b03      	ldr	r3, [sp, #12]
 80035b0:	4618      	mov	r0, r3
 80035b2:	b004      	add	sp, #16
 80035b4:	4770      	bx	lr
 80035b6:	46c0      	nop			(mov r8, r8)
 80035b8:	40021000 	.word	0x40021000

080035bc <RCC_ClearFlag>:
 80035bc:	4a03      	ldr	r2, [pc, #12]	(80035cc <RCC_ClearFlag+0x10>)
 80035be:	4b03      	ldr	r3, [pc, #12]	(80035cc <RCC_ClearFlag+0x10>)
 80035c0:	6a5b      	ldr	r3, [r3, #36]
 80035c2:	f043 7380 	orr.w	r3, r3, #16777216	; 0x1000000
 80035c6:	6253      	str	r3, [r2, #36]
 80035c8:	4770      	bx	lr
 80035ca:	46c0      	nop			(mov r8, r8)
 80035cc:	40021000 	.word	0x40021000

080035d0 <RCC_GetITStatus>:
 80035d0:	b082      	sub	sp, #8
 80035d2:	4603      	mov	r3, r0
 80035d4:	f88d 3000 	strb.w	r3, [sp]
 80035d8:	f04f 0300 	mov.w	r3, #0	; 0x0
 80035dc:	9301      	str	r3, [sp, #4]
 80035de:	4b09      	ldr	r3, [pc, #36]	(8003604 <RCC_GetITStatus+0x34>)
 80035e0:	689a      	ldr	r2, [r3, #8]
 80035e2:	f89d 3000 	ldrb.w	r3, [sp]
 80035e6:	ea02 0303 	and.w	r3, r2, r3
 80035ea:	2b00      	cmp	r3, #0
 80035ec:	d003      	beq.n	80035f6 <RCC_GetITStatus+0x26>
 80035ee:	f04f 0301 	mov.w	r3, #1	; 0x1
 80035f2:	9301      	str	r3, [sp, #4]
 80035f4:	e002      	b.n	80035fc <RCC_GetITStatus+0x2c>
 80035f6:	f04f 0300 	mov.w	r3, #0	; 0x0
 80035fa:	9301      	str	r3, [sp, #4]
 80035fc:	9b01      	ldr	r3, [sp, #4]
 80035fe:	4618      	mov	r0, r3
 8003600:	b002      	add	sp, #8
 8003602:	4770      	bx	lr
 8003604:	40021000 	.word	0x40021000

08003608 <RCC_ClearITPendingBit>:
 8003608:	b081      	sub	sp, #4
 800360a:	4603      	mov	r3, r0
 800360c:	f88d 3000 	strb.w	r3, [sp]
 8003610:	4a02      	ldr	r2, [pc, #8]	(800361c <RCC_ClearITPendingBit+0x14>)
 8003612:	f89d 3000 	ldrb.w	r3, [sp]
 8003616:	7013      	strb	r3, [r2, #0]
 8003618:	b001      	add	sp, #4
 800361a:	4770      	bx	lr
 800361c:	4002100a 	.word	0x4002100a

08003620 <BKP_DeInit>:
 8003620:	b500      	push	{lr}
 8003622:	f04f 0001 	mov.w	r0, #1	; 0x1
 8003626:	f7ff ff69 	bl	80034fc <RCC_BackupResetCmd>
 800362a:	f04f 0000 	mov.w	r0, #0	; 0x0
 800362e:	f7ff ff65 	bl	80034fc <RCC_BackupResetCmd>
 8003632:	bd00      	pop	{pc}

08003634 <BKP_TamperPinLevelConfig>:
 8003634:	b081      	sub	sp, #4
 8003636:	4603      	mov	r3, r0
 8003638:	f8ad 3000 	strh.w	r3, [sp]
 800363c:	4a02      	ldr	r2, [pc, #8]	(8003648 <BKP_TamperPinLevelConfig+0x14>)
 800363e:	f8bd 3000 	ldrh.w	r3, [sp]
 8003642:	6013      	str	r3, [r2, #0]
 8003644:	b001      	add	sp, #4
 8003646:	4770      	bx	lr
 8003648:	420d8604 	.word	0x420d8604

0800364c <BKP_TamperPinCmd>:
 800364c:	b081      	sub	sp, #4
 800364e:	9000      	str	r0, [sp, #0]
 8003650:	4a02      	ldr	r2, [pc, #8]	(800365c <BKP_TamperPinCmd+0x10>)
 8003652:	9b00      	ldr	r3, [sp, #0]
 8003654:	6013      	str	r3, [r2, #0]
 8003656:	b001      	add	sp, #4
 8003658:	4770      	bx	lr
 800365a:	46c0      	nop			(mov r8, r8)
 800365c:	420d8600 	.word	0x420d8600

08003660 <BKP_ITConfig>:
 8003660:	b081      	sub	sp, #4
 8003662:	9000      	str	r0, [sp, #0]
 8003664:	4a02      	ldr	r2, [pc, #8]	(8003670 <BKP_ITConfig+0x10>)
 8003666:	9b00      	ldr	r3, [sp, #0]
 8003668:	6013      	str	r3, [r2, #0]
 800366a:	b001      	add	sp, #4
 800366c:	4770      	bx	lr
 800366e:	46c0      	nop			(mov r8, r8)
 8003670:	420d8688 	.word	0x420d8688

08003674 <BKP_RTCOutputConfig>:
 8003674:	b082      	sub	sp, #8
 8003676:	4603      	mov	r3, r0
 8003678:	f8ad 3000 	strh.w	r3, [sp]
 800367c:	f04f 0300 	mov.w	r3, #0	; 0x0
 8003680:	f8ad 3006 	strh.w	r3, [sp, #6]
 8003684:	4b0b      	ldr	r3, [pc, #44]	(80036b4 <BKP_RTCOutputConfig+0x40>)
 8003686:	8d9b      	ldrh	r3, [r3, #44]
 8003688:	f8ad 3006 	strh.w	r3, [sp, #6]
 800368c:	f8bd 3006 	ldrh.w	r3, [sp, #6]
 8003690:	f423 7360 	bic.w	r3, r3, #896	; 0x380
 8003694:	f8ad 3006 	strh.w	r3, [sp, #6]
 8003698:	f8bd 2006 	ldrh.w	r2, [sp, #6]
 800369c:	f8bd 3000 	ldrh.w	r3, [sp]
 80036a0:	ea42 0303 	orr.w	r3, r2, r3
 80036a4:	f8ad 3006 	strh.w	r3, [sp, #6]
 80036a8:	4a02      	ldr	r2, [pc, #8]	(80036b4 <BKP_RTCOutputConfig+0x40>)
 80036aa:	f8bd 3006 	ldrh.w	r3, [sp, #6]
 80036ae:	8593      	strh	r3, [r2, #44]
 80036b0:	b002      	add	sp, #8
 80036b2:	4770      	bx	lr
 80036b4:	40006c00 	.word	0x40006c00

080036b8 <BKP_SetRTCCalibrationValue>:
 80036b8:	b082      	sub	sp, #8
 80036ba:	4603      	mov	r3, r0
 80036bc:	f88d 3000 	strb.w	r3, [sp]
 80036c0:	f04f 0300 	mov.w	r3, #0	; 0x0
 80036c4:	f8ad 3006 	strh.w	r3, [sp, #6]
 80036c8:	4b0b      	ldr	r3, [pc, #44]	(80036f8 <BKP_SetRTCCalibrationValue+0x40>)
 80036ca:	8d9b      	ldrh	r3, [r3, #44]
 80036cc:	f8ad 3006 	strh.w	r3, [sp, #6]
 80036d0:	f8bd 3006 	ldrh.w	r3, [sp, #6]
 80036d4:	f023 037f 	bic.w	r3, r3, #127	; 0x7f
 80036d8:	f8ad 3006 	strh.w	r3, [sp, #6]
 80036dc:	f89d 2000 	ldrb.w	r2, [sp]
 80036e0:	f8bd 3006 	ldrh.w	r3, [sp, #6]
 80036e4:	ea42 0303 	orr.w	r3, r2, r3
 80036e8:	f8ad 3006 	strh.w	r3, [sp, #6]
 80036ec:	4a02      	ldr	r2, [pc, #8]	(80036f8 <BKP_SetRTCCalibrationValue+0x40>)
 80036ee:	f8bd 3006 	ldrh.w	r3, [sp, #6]
 80036f2:	8593      	strh	r3, [r2, #44]
 80036f4:	b002      	add	sp, #8
 80036f6:	4770      	bx	lr
 80036f8:	40006c00 	.word	0x40006c00

080036fc <BKP_WriteBackupRegister>:
 80036fc:	b082      	sub	sp, #8
 80036fe:	4603      	mov	r3, r0
 8003700:	460a      	mov	r2, r1
 8003702:	f8ad 3004 	strh.w	r3, [sp, #4]
 8003706:	4613      	mov	r3, r2
 8003708:	f8ad 3000 	strh.w	r3, [sp]
 800370c:	f8bd 3004 	ldrh.w	r3, [sp, #4]
 8003710:	f103 4380 	add.w	r3, r3, #1073741824	; 0x40000000
 8003714:	f503 43d8 	add.w	r3, r3, #27648	; 0x6c00
 8003718:	461a      	mov	r2, r3
 800371a:	f8bd 3000 	ldrh.w	r3, [sp]
 800371e:	8013      	strh	r3, [r2, #0]
 8003720:	b002      	add	sp, #8
 8003722:	4770      	bx	lr

08003724 <BKP_ReadBackupRegister>:
 8003724:	b081      	sub	sp, #4
 8003726:	4603      	mov	r3, r0
 8003728:	f8ad 3000 	strh.w	r3, [sp]
 800372c:	f8bd 3000 	ldrh.w	r3, [sp]
 8003730:	f103 4380 	add.w	r3, r3, #1073741824	; 0x40000000
 8003734:	f503 43d8 	add.w	r3, r3, #27648	; 0x6c00
 8003738:	881b      	ldrh	r3, [r3, #0]
 800373a:	b29b      	uxth	r3, r3
 800373c:	4618      	mov	r0, r3
 800373e:	b001      	add	sp, #4
 8003740:	4770      	bx	lr
 8003742:	46c0      	nop			(mov r8, r8)

08003744 <BKP_GetFlagStatus>:
 8003744:	4b01      	ldr	r3, [pc, #4]	(800374c <BKP_GetFlagStatus+0x8>)
 8003746:	681b      	ldr	r3, [r3, #0]
 8003748:	4618      	mov	r0, r3
 800374a:	4770      	bx	lr
 800374c:	420d86a0 	.word	0x420d86a0

08003750 <BKP_ClearFlag>:
 8003750:	4a04      	ldr	r2, [pc, #16]	(8003764 <BKP_ClearFlag+0x14>)
 8003752:	4b04      	ldr	r3, [pc, #16]	(8003764 <BKP_ClearFlag+0x14>)
 8003754:	8e9b      	ldrh	r3, [r3, #52]
 8003756:	b29b      	uxth	r3, r3
 8003758:	f043 0301 	orr.w	r3, r3, #1	; 0x1
 800375c:	b29b      	uxth	r3, r3
 800375e:	8693      	strh	r3, [r2, #52]
 8003760:	4770      	bx	lr
 8003762:	46c0      	nop			(mov r8, r8)
 8003764:	40006c00 	.word	0x40006c00

08003768 <BKP_GetITStatus>:
 8003768:	4b01      	ldr	r3, [pc, #4]	(8003770 <BKP_GetITStatus+0x8>)
 800376a:	681b      	ldr	r3, [r3, #0]
 800376c:	4618      	mov	r0, r3
 800376e:	4770      	bx	lr
 8003770:	420d86a4 	.word	0x420d86a4

08003774 <BKP_ClearITPendingBit>:
 8003774:	4a04      	ldr	r2, [pc, #16]	(8003788 <BKP_ClearITPendingBit+0x14>)
 8003776:	4b04      	ldr	r3, [pc, #16]	(8003788 <BKP_ClearITPendingBit+0x14>)
 8003778:	8e9b      	ldrh	r3, [r3, #52]
 800377a:	b29b      	uxth	r3, r3
 800377c:	f043 0302 	orr.w	r3, r3, #2	; 0x2
 8003780:	b29b      	uxth	r3, r3
 8003782:	8693      	strh	r3, [r2, #52]
 8003784:	4770      	bx	lr
 8003786:	46c0      	nop			(mov r8, r8)
 8003788:	40006c00 	.word	0x40006c00

0800378c <PWR_DeInit>:
 800378c:	b500      	push	{lr}
 800378e:	f04f 5080 	mov.w	r0, #268435456	; 0x10000000
 8003792:	f04f 0101 	mov.w	r1, #1	; 0x1
 8003796:	f7ff fe95 	bl	80034c4 <RCC_APB1PeriphResetCmd>
 800379a:	f04f 5080 	mov.w	r0, #268435456	; 0x10000000
 800379e:	f04f 0100 	mov.w	r1, #0	; 0x0
 80037a2:	f7ff fe8f 	bl	80034c4 <RCC_APB1PeriphResetCmd>
 80037a6:	bd00      	pop	{pc}

080037a8 <PWR_BackupAccessCmd>:
 80037a8:	b081      	sub	sp, #4
 80037aa:	9000      	str	r0, [sp, #0]
 80037ac:	4a02      	ldr	r2, [pc, #8]	(80037b8 <PWR_BackupAccessCmd+0x10>)
 80037ae:	9b00      	ldr	r3, [sp, #0]
 80037b0:	6013      	str	r3, [r2, #0]
 80037b2:	b001      	add	sp, #4
 80037b4:	4770      	bx	lr
 80037b6:	46c0      	nop			(mov r8, r8)
 80037b8:	420e0020 	.word	0x420e0020

080037bc <PWR_PVDCmd>:
 80037bc:	b081      	sub	sp, #4
 80037be:	9000      	str	r0, [sp, #0]
 80037c0:	4a02      	ldr	r2, [pc, #8]	(80037cc <PWR_PVDCmd+0x10>)
 80037c2:	9b00      	ldr	r3, [sp, #0]
 80037c4:	6013      	str	r3, [r2, #0]
 80037c6:	b001      	add	sp, #4
 80037c8:	4770      	bx	lr
 80037ca:	46c0      	nop			(mov r8, r8)
 80037cc:	420e0010 	.word	0x420e0010

080037d0 <PWR_PVDLevelConfig>:
 80037d0:	b082      	sub	sp, #8
 80037d2:	9000      	str	r0, [sp, #0]
 80037d4:	f04f 0300 	mov.w	r3, #0	; 0x0
 80037d8:	9301      	str	r3, [sp, #4]
 80037da:	4b08      	ldr	r3, [pc, #32]	(80037fc <PWR_PVDLevelConfig+0x2c>)
 80037dc:	681b      	ldr	r3, [r3, #0]
 80037de:	9301      	str	r3, [sp, #4]
 80037e0:	9b01      	ldr	r3, [sp, #4]
 80037e2:	f023 03e0 	bic.w	r3, r3, #224	; 0xe0
 80037e6:	9301      	str	r3, [sp, #4]
 80037e8:	9a01      	ldr	r2, [sp, #4]
 80037ea:	9b00      	ldr	r3, [sp, #0]
 80037ec:	ea42 0303 	orr.w	r3, r2, r3
 80037f0:	9301      	str	r3, [sp, #4]
 80037f2:	4a02      	ldr	r2, [pc, #8]	(80037fc <PWR_PVDLevelConfig+0x2c>)
 80037f4:	9b01      	ldr	r3, [sp, #4]
 80037f6:	6013      	str	r3, [r2, #0]
 80037f8:	b002      	add	sp, #8
 80037fa:	4770      	bx	lr
 80037fc:	40007000 	.word	0x40007000

08003800 <PWR_WakeUpPinCmd>:
 8003800:	b081      	sub	sp, #4
 8003802:	9000      	str	r0, [sp, #0]
 8003804:	4a02      	ldr	r2, [pc, #8]	(8003810 <PWR_WakeUpPinCmd+0x10>)
 8003806:	9b00      	ldr	r3, [sp, #0]
 8003808:	6013      	str	r3, [r2, #0]
 800380a:	b001      	add	sp, #4
 800380c:	4770      	bx	lr
 800380e:	46c0      	nop			(mov r8, r8)
 8003810:	420e00a0 	.word	0x420e00a0

08003814 <PWR_EnterSTOPMode>:
 8003814:	b500      	push	{lr}
 8003816:	b083      	sub	sp, #12
 8003818:	9001      	str	r0, [sp, #4]
 800381a:	460b      	mov	r3, r1
 800381c:	f88d 3000 	strb.w	r3, [sp]
 8003820:	f04f 0300 	mov.w	r3, #0	; 0x0
 8003824:	9302      	str	r3, [sp, #8]
 8003826:	4b10      	ldr	r3, [pc, #64]	(8003868 <PWR_EnterSTOPMode+0x54>)
 8003828:	681b      	ldr	r3, [r3, #0]
 800382a:	9302      	str	r3, [sp, #8]
 800382c:	9b02      	ldr	r3, [sp, #8]
 800382e:	f023 0303 	bic.w	r3, r3, #3	; 0x3
 8003832:	9302      	str	r3, [sp, #8]
 8003834:	9a02      	ldr	r2, [sp, #8]
 8003836:	9b01      	ldr	r3, [sp, #4]
 8003838:	ea42 0303 	orr.w	r3, r2, r3
 800383c:	9302      	str	r3, [sp, #8]
 800383e:	4a0a      	ldr	r2, [pc, #40]	(8003868 <PWR_EnterSTOPMode+0x54>)
 8003840:	9b02      	ldr	r3, [sp, #8]
 8003842:	6013      	str	r3, [r2, #0]
 8003844:	4a09      	ldr	r2, [pc, #36]	(800386c <PWR_EnterSTOPMode+0x58>)
 8003846:	4b09      	ldr	r3, [pc, #36]	(800386c <PWR_EnterSTOPMode+0x58>)
 8003848:	681b      	ldr	r3, [r3, #0]
 800384a:	f043 0304 	orr.w	r3, r3, #4	; 0x4
 800384e:	6013      	str	r3, [r2, #0]
 8003850:	f89d 3000 	ldrb.w	r3, [sp]
 8003854:	2b01      	cmp	r3, #1
 8003856:	d102      	bne.n	800385e <PWR_EnterSTOPMode+0x4a>
 8003858:	f000 f80a 	bl	8003870 <__WFI>
 800385c:	e001      	b.n	8003862 <PWR_EnterSTOPMode+0x4e>
 800385e:	f000 f809 	bl	8003874 <__WFE>
 8003862:	b003      	add	sp, #12
 8003864:	bd00      	pop	{pc}
 8003866:	46c0      	nop			(mov r8, r8)
 8003868:	40007000 	.word	0x40007000
 800386c:	e000ed10 	.word	0xe000ed10

08003870 <__WFI>:
 8003870:	bf30      	wfi
 8003872:	4770      	bx	lr

08003874 <__WFE>:
 8003874:	bf20      	wfe
 8003876:	4770      	bx	lr

08003878 <PWR_EnterSTANDBYMode>:
 8003878:	b500      	push	{lr}
 800387a:	4a0a      	ldr	r2, [pc, #40]	(80038a4 <PWR_EnterSTANDBYMode+0x2c>)
 800387c:	4b09      	ldr	r3, [pc, #36]	(80038a4 <PWR_EnterSTANDBYMode+0x2c>)
 800387e:	681b      	ldr	r3, [r3, #0]
 8003880:	f043 0304 	orr.w	r3, r3, #4	; 0x4
 8003884:	6013      	str	r3, [r2, #0]
 8003886:	4a07      	ldr	r2, [pc, #28]	(80038a4 <PWR_EnterSTANDBYMode+0x2c>)
 8003888:	4b06      	ldr	r3, [pc, #24]	(80038a4 <PWR_EnterSTANDBYMode+0x2c>)
 800388a:	681b      	ldr	r3, [r3, #0]
 800388c:	f043 0302 	orr.w	r3, r3, #2	; 0x2
 8003890:	6013      	str	r3, [r2, #0]
 8003892:	4a05      	ldr	r2, [pc, #20]	(80038a8 <PWR_EnterSTANDBYMode+0x30>)
 8003894:	4b04      	ldr	r3, [pc, #16]	(80038a8 <PWR_EnterSTANDBYMode+0x30>)
 8003896:	681b      	ldr	r3, [r3, #0]
 8003898:	f043 0304 	orr.w	r3, r3, #4	; 0x4
 800389c:	6013      	str	r3, [r2, #0]
 800389e:	f7ff ffe7 	bl	8003870 <__WFI>
 80038a2:	bd00      	pop	{pc}
 80038a4:	40007000 	.word	0x40007000
 80038a8:	e000ed10 	.word	0xe000ed10

080038ac <PWR_GetFlagStatus>:
 80038ac:	b082      	sub	sp, #8
 80038ae:	9000      	str	r0, [sp, #0]
 80038b0:	f04f 0300 	mov.w	r3, #0	; 0x0
 80038b4:	9301      	str	r3, [sp, #4]
 80038b6:	4b09      	ldr	r3, [pc, #36]	(80038dc <PWR_GetFlagStatus+0x30>)
 80038b8:	685a      	ldr	r2, [r3, #4]
 80038ba:	9b00      	ldr	r3, [sp, #0]
 80038bc:	ea02 0303 	and.w	r3, r2, r3
 80038c0:	2b00      	cmp	r3, #0
 80038c2:	d003      	beq.n	80038cc <PWR_GetFlagStatus+0x20>
 80038c4:	f04f 0301 	mov.w	r3, #1	; 0x1
 80038c8:	9301      	str	r3, [sp, #4]
 80038ca:	e002      	b.n	80038d2 <PWR_GetFlagStatus+0x26>
 80038cc:	f04f 0300 	mov.w	r3, #0	; 0x0
 80038d0:	9301      	str	r3, [sp, #4]
 80038d2:	9b01      	ldr	r3, [sp, #4]
 80038d4:	4618      	mov	r0, r3
 80038d6:	b002      	add	sp, #8
 80038d8:	4770      	bx	lr
 80038da:	46c0      	nop			(mov r8, r8)
 80038dc:	40007000 	.word	0x40007000

080038e0 <PWR_ClearFlag>:
 80038e0:	b081      	sub	sp, #4
 80038e2:	9000      	str	r0, [sp, #0]
 80038e4:	4905      	ldr	r1, [pc, #20]	(80038fc <PWR_ClearFlag+0x1c>)
 80038e6:	4b05      	ldr	r3, [pc, #20]	(80038fc <PWR_ClearFlag+0x1c>)
 80038e8:	681a      	ldr	r2, [r3, #0]
 80038ea:	9b00      	ldr	r3, [sp, #0]
 80038ec:	ea4f 0383 	mov.w	r3, r3, lsl #2
 80038f0:	ea42 0303 	orr.w	r3, r2, r3
 80038f4:	600b      	str	r3, [r1, #0]
 80038f6:	b001      	add	sp, #4
 80038f8:	4770      	bx	lr
 80038fa:	46c0      	nop			(mov r8, r8)
 80038fc:	40007000 	.word	0x40007000

08003900 <SPI_I2S_DeInit>:
 8003900:	b500      	push	{lr}
 8003902:	b082      	sub	sp, #8
 8003904:	9001      	str	r0, [sp, #4]
 8003906:	ab01      	add	r3, sp, #4
 8003908:	681b      	ldr	r3, [r3, #0]
 800390a:	9300      	str	r3, [sp, #0]
 800390c:	4b1a      	ldr	r3, [pc, #104]	(8003978 <SPI_I2S_DeInit+0x78>)
 800390e:	9a00      	ldr	r2, [sp, #0]
 8003910:	429a      	cmp	r2, r3
 8003912:	d022      	beq.n	800395a <SPI_I2S_DeInit+0x5a>
 8003914:	4b19      	ldr	r3, [pc, #100]	(800397c <SPI_I2S_DeInit+0x7c>)
 8003916:	9a00      	ldr	r2, [sp, #0]
 8003918:	429a      	cmp	r2, r3
 800391a:	d004      	beq.n	8003926 <SPI_I2S_DeInit+0x26>
 800391c:	4b18      	ldr	r3, [pc, #96]	(8003980 <SPI_I2S_DeInit+0x80>)
 800391e:	9a00      	ldr	r2, [sp, #0]
 8003920:	429a      	cmp	r2, r3
 8003922:	d00d      	beq.n	8003940 <SPI_I2S_DeInit+0x40>
 8003924:	e025      	b.n	8003972 <SPI_I2S_DeInit+0x72>
 8003926:	f44f 5080 	mov.w	r0, #4096	; 0x1000
 800392a:	f04f 0101 	mov.w	r1, #1	; 0x1
 800392e:	f7ff fdad 	bl	800348c <RCC_APB2PeriphResetCmd>
 8003932:	f44f 5080 	mov.w	r0, #4096	; 0x1000
 8003936:	f04f 0100 	mov.w	r1, #0	; 0x0
 800393a:	f7ff fda7 	bl	800348c <RCC_APB2PeriphResetCmd>
 800393e:	e018      	b.n	8003972 <SPI_I2S_DeInit+0x72>
 8003940:	f44f 4080 	mov.w	r0, #16384	; 0x4000
 8003944:	f04f 0101 	mov.w	r1, #1	; 0x1
 8003948:	f7ff fdbc 	bl	80034c4 <RCC_APB1PeriphResetCmd>
 800394c:	f44f 4080 	mov.w	r0, #16384	; 0x4000
 8003950:	f04f 0100 	mov.w	r1, #0	; 0x0
 8003954:	f7ff fdb6 	bl	80034c4 <RCC_APB1PeriphResetCmd>
 8003958:	e00b      	b.n	8003972 <SPI_I2S_DeInit+0x72>
 800395a:	f44f 4000 	mov.w	r0, #32768	; 0x8000
 800395e:	f04f 0101 	mov.w	r1, #1	; 0x1
 8003962:	f7ff fdaf 	bl	80034c4 <RCC_APB1PeriphResetCmd>
 8003966:	f44f 4000 	mov.w	r0, #32768	; 0x8000
 800396a:	f04f 0100 	mov.w	r1, #0	; 0x0
 800396e:	f7ff fda9 	bl	80034c4 <RCC_APB1PeriphResetCmd>
 8003972:	b002      	add	sp, #8
 8003974:	bd00      	pop	{pc}
 8003976:	46c0      	nop			(mov r8, r8)
 8003978:	40003c00 	.word	0x40003c00
 800397c:	40013000 	.word	0x40013000
 8003980:	40003800 	.word	0x40003800

08003984 <SPI_Init>:
 8003984:	b084      	sub	sp, #16
 8003986:	9002      	str	r0, [sp, #8]
 8003988:	9101      	str	r1, [sp, #4]
 800398a:	f04f 0300 	mov.w	r3, #0	; 0x0
 800398e:	f8ad 300e 	strh.w	r3, [sp, #14]
 8003992:	9b02      	ldr	r3, [sp, #8]
 8003994:	881b      	ldrh	r3, [r3, #0]
 8003996:	f8ad 300e 	strh.w	r3, [sp, #14]
 800399a:	f8bd 300e 	ldrh.w	r3, [sp, #14]
 800399e:	f403 5341 	and.w	r3, r3, #12352	; 0x3040
 80039a2:	f8ad 300e 	strh.w	r3, [sp, #14]
 80039a6:	9b01      	ldr	r3, [sp, #4]
 80039a8:	881a      	ldrh	r2, [r3, #0]
 80039aa:	9b01      	ldr	r3, [sp, #4]
 80039ac:	885b      	ldrh	r3, [r3, #2]
 80039ae:	ea42 0303 	orr.w	r3, r2, r3
 80039b2:	b29a      	uxth	r2, r3
 80039b4:	9b01      	ldr	r3, [sp, #4]
 80039b6:	889b      	ldrh	r3, [r3, #4]
 80039b8:	ea42 0303 	orr.w	r3, r2, r3
 80039bc:	b29a      	uxth	r2, r3
 80039be:	9b01      	ldr	r3, [sp, #4]
 80039c0:	88db      	ldrh	r3, [r3, #6]
 80039c2:	ea42 0303 	orr.w	r3, r2, r3
 80039c6:	b29a      	uxth	r2, r3
 80039c8:	9b01      	ldr	r3, [sp, #4]
 80039ca:	891b      	ldrh	r3, [r3, #8]
 80039cc:	ea42 0303 	orr.w	r3, r2, r3
 80039d0:	b29a      	uxth	r2, r3
 80039d2:	9b01      	ldr	r3, [sp, #4]
 80039d4:	895b      	ldrh	r3, [r3, #10]
 80039d6:	ea42 0303 	orr.w	r3, r2, r3
 80039da:	b29a      	uxth	r2, r3
 80039dc:	9b01      	ldr	r3, [sp, #4]
 80039de:	899b      	ldrh	r3, [r3, #12]
 80039e0:	ea42 0303 	orr.w	r3, r2, r3
 80039e4:	b29a      	uxth	r2, r3
 80039e6:	9b01      	ldr	r3, [sp, #4]
 80039e8:	89db      	ldrh	r3, [r3, #14]
 80039ea:	ea42 0303 	orr.w	r3, r2, r3
 80039ee:	b29a      	uxth	r2, r3
 80039f0:	f8bd 300e 	ldrh.w	r3, [sp, #14]
 80039f4:	ea42 0303 	orr.w	r3, r2, r3
 80039f8:	f8ad 300e 	strh.w	r3, [sp, #14]
 80039fc:	9a02      	ldr	r2, [sp, #8]
 80039fe:	f8bd 300e 	ldrh.w	r3, [sp, #14]
 8003a02:	8013      	strh	r3, [r2, #0]
 8003a04:	9b02      	ldr	r3, [sp, #8]
 8003a06:	8b9b      	ldrh	r3, [r3, #28]
 8003a08:	b29b      	uxth	r3, r3
 8003a0a:	9300      	str	r3, [sp, #0]
 8003a0c:	f24f 73ff 	movw	r3, #63487	; 0xf7ff
 8003a10:	9900      	ldr	r1, [sp, #0]
 8003a12:	ea01 0303 	and.w	r3, r1, r3
 8003a16:	9300      	str	r3, [sp, #0]
 8003a18:	9a02      	ldr	r2, [sp, #8]
 8003a1a:	9900      	ldr	r1, [sp, #0]
 8003a1c:	460b      	mov	r3, r1
 8003a1e:	8393      	strh	r3, [r2, #28]
 8003a20:	9b01      	ldr	r3, [sp, #4]
 8003a22:	8a1b      	ldrh	r3, [r3, #16]
 8003a24:	9a02      	ldr	r2, [sp, #8]
 8003a26:	8213      	strh	r3, [r2, #16]
 8003a28:	b004      	add	sp, #16
 8003a2a:	4770      	bx	lr

08003a2c <I2S_Init>:
 8003a2c:	b500      	push	{lr}
 8003a2e:	b08b      	sub	sp, #44
 8003a30:	9002      	str	r0, [sp, #8]
 8003a32:	9101      	str	r1, [sp, #4]
 8003a34:	f04f 0300 	mov.w	r3, #0	; 0x0
 8003a38:	f8ad 3020 	strh.w	r3, [sp, #32]
 8003a3c:	f04f 0302 	mov.w	r3, #2	; 0x2
 8003a40:	f8ad 3022 	strh.w	r3, [sp, #34]
 8003a44:	f04f 0300 	mov.w	r3, #0	; 0x0
 8003a48:	f8ad 3024 	strh.w	r3, [sp, #36]
 8003a4c:	f04f 0301 	mov.w	r3, #1	; 0x1
 8003a50:	f8ad 3026 	strh.w	r3, [sp, #38]
 8003a54:	f04f 0300 	mov.w	r3, #0	; 0x0
 8003a58:	930a      	str	r3, [sp, #40]
 8003a5a:	9b02      	ldr	r3, [sp, #8]
 8003a5c:	8b9b      	ldrh	r3, [r3, #28]
 8003a5e:	b29b      	uxth	r3, r3
 8003a60:	9300      	str	r3, [sp, #0]
 8003a62:	f24f 0340 	movw	r3, #61504	; 0xf040
 8003a66:	9900      	ldr	r1, [sp, #0]
 8003a68:	ea01 0303 	and.w	r3, r1, r3
 8003a6c:	9300      	str	r3, [sp, #0]
 8003a6e:	9a02      	ldr	r2, [sp, #8]
 8003a70:	9900      	ldr	r1, [sp, #0]
 8003a72:	460b      	mov	r3, r1
 8003a74:	8393      	strh	r3, [r2, #28]
 8003a76:	9a02      	ldr	r2, [sp, #8]
 8003a78:	f04f 0302 	mov.w	r3, #2	; 0x2
 8003a7c:	8413      	strh	r3, [r2, #32]
 8003a7e:	9b02      	ldr	r3, [sp, #8]
 8003a80:	8b9b      	ldrh	r3, [r3, #28]
 8003a82:	f8ad 3020 	strh.w	r3, [sp, #32]
 8003a86:	9b01      	ldr	r3, [sp, #4]
 8003a88:	891b      	ldrh	r3, [r3, #8]
 8003a8a:	2b02      	cmp	r3, #2
 8003a8c:	d108      	bne.n	8003aa0 <I2S_Init+0x74>
 8003a8e:	f04f 0300 	mov.w	r3, #0	; 0x0
 8003a92:	f8ad 3024 	strh.w	r3, [sp, #36]
 8003a96:	f04f 0302 	mov.w	r3, #2	; 0x2
 8003a9a:	f8ad 3022 	strh.w	r3, [sp, #34]
 8003a9e:	e059      	b.n	8003b54 <I2S_Init+0x128>
 8003aa0:	9b01      	ldr	r3, [sp, #4]
 8003aa2:	889b      	ldrh	r3, [r3, #4]
 8003aa4:	2b00      	cmp	r3, #0
 8003aa6:	d104      	bne.n	8003ab2 <I2S_Init+0x86>
 8003aa8:	f04f 0301 	mov.w	r3, #1	; 0x1
 8003aac:	f8ad 3026 	strh.w	r3, [sp, #38]
 8003ab0:	e003      	b.n	8003aba <I2S_Init+0x8e>
 8003ab2:	f04f 0302 	mov.w	r3, #2	; 0x2
 8003ab6:	f8ad 3026 	strh.w	r3, [sp, #38]
 8003aba:	ab03      	add	r3, sp, #12
 8003abc:	4618      	mov	r0, r3
 8003abe:	f7ff fbd9 	bl	8003274 <RCC_GetClocksFreq>
 8003ac2:	9b01      	ldr	r3, [sp, #4]
 8003ac4:	88db      	ldrh	r3, [r3, #6]
 8003ac6:	f5b3 7f00 	cmp.w	r3, #512	; 0x200
 8003aca:	d111      	bne.n	8003af0 <I2S_Init+0xc4>
 8003acc:	9b03      	ldr	r3, [sp, #12]
 8003ace:	ea4f 0243 	mov.w	r2, r3, lsl #1
 8003ad2:	ea4f 0382 	mov.w	r3, r2, lsl #2
 8003ad6:	441a      	add	r2, r3
 8003ad8:	9b01      	ldr	r3, [sp, #4]
 8003ada:	891b      	ldrh	r3, [r3, #8]
 8003adc:	ea4f 2303 	mov.w	r3, r3, lsl #8
 8003ae0:	fbb2 f3f3 	udiv	r3, r2, r3
 8003ae4:	b29b      	uxth	r3, r3
 8003ae6:	f103 0305 	add.w	r3, r3, #5	; 0x5
 8003aea:	b29b      	uxth	r3, r3
 8003aec:	930a      	str	r3, [sp, #40]
 8003aee:	e015      	b.n	8003b1c <I2S_Init+0xf0>
 8003af0:	9b03      	ldr	r3, [sp, #12]
 8003af2:	ea4f 0243 	mov.w	r2, r3, lsl #1
 8003af6:	ea4f 0382 	mov.w	r3, r2, lsl #2
 8003afa:	eb02 0103 	add.w	r1, r2, r3
 8003afe:	f8bd 3026 	ldrh.w	r3, [sp, #38]
 8003b02:	ea4f 1243 	mov.w	r2, r3, lsl #5
 8003b06:	9b01      	ldr	r3, [sp, #4]
 8003b08:	891b      	ldrh	r3, [r3, #8]
 8003b0a:	fb03 f302 	mul.w	r3, r3, r2
 8003b0e:	fbb1 f3f3 	udiv	r3, r1, r3
 8003b12:	b29b      	uxth	r3, r3
 8003b14:	f103 0305 	add.w	r3, r3, #5	; 0x5
 8003b18:	b29b      	uxth	r3, r3
 8003b1a:	930a      	str	r3, [sp, #40]
 8003b1c:	9a0a      	ldr	r2, [sp, #40]
 8003b1e:	4b2c      	ldr	r3, [pc, #176]	(8003bd0 <I2S_Init+0x1a4>)
 8003b20:	fba3 1302 	umull	r1, r3, r3, r2
 8003b24:	ea4f 03d3 	mov.w	r3, r3, lsr #3
 8003b28:	930a      	str	r3, [sp, #40]
 8003b2a:	9b0a      	ldr	r3, [sp, #40]
 8003b2c:	b29b      	uxth	r3, r3
 8003b2e:	f003 0301 	and.w	r3, r3, #1	; 0x1
 8003b32:	f8ad 3024 	strh.w	r3, [sp, #36]
 8003b36:	f8bd 2024 	ldrh.w	r2, [sp, #36]
 8003b3a:	9b0a      	ldr	r3, [sp, #40]
 8003b3c:	ebc2 0303 	rsb	r3, r2, r3
 8003b40:	ea4f 0353 	mov.w	r3, r3, lsr #1
 8003b44:	f8ad 3022 	strh.w	r3, [sp, #34]
 8003b48:	f8bd 3024 	ldrh.w	r3, [sp, #36]
 8003b4c:	ea4f 2303 	mov.w	r3, r3, lsl #8
 8003b50:	f8ad 3024 	strh.w	r3, [sp, #36]
 8003b54:	f8bd 3022 	ldrh.w	r3, [sp, #34]
 8003b58:	2b01      	cmp	r3, #1
 8003b5a:	d903      	bls.n	8003b64 <I2S_Init+0x138>
 8003b5c:	f8bd 3022 	ldrh.w	r3, [sp, #34]
 8003b60:	2bff      	cmp	r3, #255
 8003b62:	d907      	bls.n	8003b74 <I2S_Init+0x148>
 8003b64:	f04f 0302 	mov.w	r3, #2	; 0x2
 8003b68:	f8ad 3022 	strh.w	r3, [sp, #34]
 8003b6c:	f04f 0300 	mov.w	r3, #0	; 0x0
 8003b70:	f8ad 3024 	strh.w	r3, [sp, #36]
 8003b74:	f8bd 2022 	ldrh.w	r2, [sp, #34]
 8003b78:	f8bd 3024 	ldrh.w	r3, [sp, #36]
 8003b7c:	ea42 0303 	orr.w	r3, r2, r3
 8003b80:	b29a      	uxth	r2, r3
 8003b82:	9b01      	ldr	r3, [sp, #4]
 8003b84:	88db      	ldrh	r3, [r3, #6]
 8003b86:	ea42 0303 	orr.w	r3, r2, r3
 8003b8a:	b29b      	uxth	r3, r3
 8003b8c:	9a02      	ldr	r2, [sp, #8]
 8003b8e:	8413      	strh	r3, [r2, #32]
 8003b90:	9b01      	ldr	r3, [sp, #4]
 8003b92:	881a      	ldrh	r2, [r3, #0]
 8003b94:	9b01      	ldr	r3, [sp, #4]
 8003b96:	885b      	ldrh	r3, [r3, #2]
 8003b98:	ea42 0303 	orr.w	r3, r2, r3
 8003b9c:	b29a      	uxth	r2, r3
 8003b9e:	9b01      	ldr	r3, [sp, #4]
 8003ba0:	889b      	ldrh	r3, [r3, #4]
 8003ba2:	ea42 0303 	orr.w	r3, r2, r3
 8003ba6:	b29a      	uxth	r2, r3
 8003ba8:	9b01      	ldr	r3, [sp, #4]
 8003baa:	895b      	ldrh	r3, [r3, #10]
 8003bac:	ea42 0303 	orr.w	r3, r2, r3
 8003bb0:	b29a      	uxth	r2, r3
 8003bb2:	f8bd 3020 	ldrh.w	r3, [sp, #32]
 8003bb6:	ea42 0303 	orr.w	r3, r2, r3
 8003bba:	b29b      	uxth	r3, r3
 8003bbc:	f443 6300 	orr.w	r3, r3, #2048	; 0x800
 8003bc0:	f8ad 3020 	strh.w	r3, [sp, #32]
 8003bc4:	9a02      	ldr	r2, [sp, #8]
 8003bc6:	f8bd 3020 	ldrh.w	r3, [sp, #32]
 8003bca:	8393      	strh	r3, [r2, #28]
 8003bcc:	b00b      	add	sp, #44
 8003bce:	bd00      	pop	{pc}
 8003bd0:	cccccccd 	.word	0xcccccccd

08003bd4 <SPI_StructInit>:
 8003bd4:	b081      	sub	sp, #4
 8003bd6:	9000      	str	r0, [sp, #0]
 8003bd8:	9a00      	ldr	r2, [sp, #0]
 8003bda:	f04f 0300 	mov.w	r3, #0	; 0x0
 8003bde:	8013      	strh	r3, [r2, #0]
 8003be0:	9a00      	ldr	r2, [sp, #0]
 8003be2:	f04f 0300 	mov.w	r3, #0	; 0x0
 8003be6:	8053      	strh	r3, [r2, #2]
 8003be8:	9a00      	ldr	r2, [sp, #0]
 8003bea:	f04f 0300 	mov.w	r3, #0	; 0x0
 8003bee:	8093      	strh	r3, [r2, #4]
 8003bf0:	9a00      	ldr	r2, [sp, #0]
 8003bf2:	f04f 0300 	mov.w	r3, #0	; 0x0
 8003bf6:	80d3      	strh	r3, [r2, #6]
 8003bf8:	9a00      	ldr	r2, [sp, #0]
 8003bfa:	f04f 0300 	mov.w	r3, #0	; 0x0
 8003bfe:	8113      	strh	r3, [r2, #8]
 8003c00:	9a00      	ldr	r2, [sp, #0]
 8003c02:	f04f 0300 	mov.w	r3, #0	; 0x0
 8003c06:	8153      	strh	r3, [r2, #10]
 8003c08:	9a00      	ldr	r2, [sp, #0]
 8003c0a:	f04f 0300 	mov.w	r3, #0	; 0x0
 8003c0e:	8193      	strh	r3, [r2, #12]
 8003c10:	9a00      	ldr	r2, [sp, #0]
 8003c12:	f04f 0300 	mov.w	r3, #0	; 0x0
 8003c16:	81d3      	strh	r3, [r2, #14]
 8003c18:	9a00      	ldr	r2, [sp, #0]
 8003c1a:	f04f 0307 	mov.w	r3, #7	; 0x7
 8003c1e:	8213      	strh	r3, [r2, #16]
 8003c20:	b001      	add	sp, #4
 8003c22:	4770      	bx	lr

08003c24 <I2S_StructInit>:
 8003c24:	b081      	sub	sp, #4
 8003c26:	9000      	str	r0, [sp, #0]
 8003c28:	9a00      	ldr	r2, [sp, #0]
 8003c2a:	f04f 0300 	mov.w	r3, #0	; 0x0
 8003c2e:	8013      	strh	r3, [r2, #0]
 8003c30:	9a00      	ldr	r2, [sp, #0]
 8003c32:	f04f 0300 	mov.w	r3, #0	; 0x0
 8003c36:	8053      	strh	r3, [r2, #2]
 8003c38:	9a00      	ldr	r2, [sp, #0]
 8003c3a:	f04f 0300 	mov.w	r3, #0	; 0x0
 8003c3e:	8093      	strh	r3, [r2, #4]
 8003c40:	9a00      	ldr	r2, [sp, #0]
 8003c42:	f04f 0300 	mov.w	r3, #0	; 0x0
 8003c46:	80d3      	strh	r3, [r2, #6]
 8003c48:	9a00      	ldr	r2, [sp, #0]
 8003c4a:	f04f 0302 	mov.w	r3, #2	; 0x2
 8003c4e:	8113      	strh	r3, [r2, #8]
 8003c50:	9a00      	ldr	r2, [sp, #0]
 8003c52:	f04f 0300 	mov.w	r3, #0	; 0x0
 8003c56:	8153      	strh	r3, [r2, #10]
 8003c58:	b001      	add	sp, #4
 8003c5a:	4770      	bx	lr

08003c5c <SPI_Cmd>:
 8003c5c:	b083      	sub	sp, #12
 8003c5e:	9002      	str	r0, [sp, #8]
 8003c60:	9101      	str	r1, [sp, #4]
 8003c62:	9b01      	ldr	r3, [sp, #4]
 8003c64:	2b00      	cmp	r3, #0
 8003c66:	d008      	beq.n	8003c7a <SPI_Cmd+0x1e>
 8003c68:	9b02      	ldr	r3, [sp, #8]
 8003c6a:	881b      	ldrh	r3, [r3, #0]
 8003c6c:	b29b      	uxth	r3, r3
 8003c6e:	f043 0340 	orr.w	r3, r3, #64	; 0x40
 8003c72:	b29b      	uxth	r3, r3
 8003c74:	9a02      	ldr	r2, [sp, #8]
 8003c76:	8013      	strh	r3, [r2, #0]
 8003c78:	e00d      	b.n	8003c96 <SPI_Cmd+0x3a>
 8003c7a:	9b02      	ldr	r3, [sp, #8]
 8003c7c:	881b      	ldrh	r3, [r3, #0]
 8003c7e:	b29b      	uxth	r3, r3
 8003c80:	9300      	str	r3, [sp, #0]
 8003c82:	f64f 73bf 	movw	r3, #65471	; 0xffbf
 8003c86:	9900      	ldr	r1, [sp, #0]
 8003c88:	ea01 0303 	and.w	r3, r1, r3
 8003c8c:	9300      	str	r3, [sp, #0]
 8003c8e:	9a02      	ldr	r2, [sp, #8]
 8003c90:	9900      	ldr	r1, [sp, #0]
 8003c92:	460b      	mov	r3, r1
 8003c94:	8013      	strh	r3, [r2, #0]
 8003c96:	b003      	add	sp, #12
 8003c98:	4770      	bx	lr
 8003c9a:	46c0      	nop			(mov r8, r8)

08003c9c <I2S_Cmd>:
 8003c9c:	b083      	sub	sp, #12
 8003c9e:	9002      	str	r0, [sp, #8]
 8003ca0:	9101      	str	r1, [sp, #4]
 8003ca2:	9b01      	ldr	r3, [sp, #4]
 8003ca4:	2b00      	cmp	r3, #0
 8003ca6:	d008      	beq.n	8003cba <I2S_Cmd+0x1e>
 8003ca8:	9b02      	ldr	r3, [sp, #8]
 8003caa:	8b9b      	ldrh	r3, [r3, #28]
 8003cac:	b29b      	uxth	r3, r3
 8003cae:	f443 6380 	orr.w	r3, r3, #1024	; 0x400
 8003cb2:	b29b      	uxth	r3, r3
 8003cb4:	9a02      	ldr	r2, [sp, #8]
 8003cb6:	8393      	strh	r3, [r2, #28]
 8003cb8:	e00d      	b.n	8003cd6 <I2S_Cmd+0x3a>
 8003cba:	9b02      	ldr	r3, [sp, #8]
 8003cbc:	8b9b      	ldrh	r3, [r3, #28]
 8003cbe:	b29b      	uxth	r3, r3
 8003cc0:	9300      	str	r3, [sp, #0]
 8003cc2:	f64f 33ff 	movw	r3, #64511	; 0xfbff
 8003cc6:	9900      	ldr	r1, [sp, #0]
 8003cc8:	ea01 0303 	and.w	r3, r1, r3
 8003ccc:	9300      	str	r3, [sp, #0]
 8003cce:	9a02      	ldr	r2, [sp, #8]
 8003cd0:	9900      	ldr	r1, [sp, #0]
 8003cd2:	460b      	mov	r3, r1
 8003cd4:	8393      	strh	r3, [r2, #28]
 8003cd6:	b003      	add	sp, #12
 8003cd8:	4770      	bx	lr
 8003cda:	46c0      	nop			(mov r8, r8)

08003cdc <SPI_I2S_ITConfig>:
 8003cdc:	b084      	sub	sp, #16
 8003cde:	9002      	str	r0, [sp, #8]
 8003ce0:	460b      	mov	r3, r1
 8003ce2:	9200      	str	r2, [sp, #0]
 8003ce4:	f88d 3004 	strb.w	r3, [sp, #4]
 8003ce8:	f04f 0300 	mov.w	r3, #0	; 0x0
 8003cec:	f8ad 300c 	strh.w	r3, [sp, #12]
 8003cf0:	f04f 0300 	mov.w	r3, #0	; 0x0
 8003cf4:	f8ad 300e 	strh.w	r3, [sp, #14]
 8003cf8:	f89d 3004 	ldrb.w	r3, [sp, #4]
 8003cfc:	ea4f 1313 	mov.w	r3, r3, lsr #4
 8003d00:	b2db      	uxtb	r3, r3
 8003d02:	f8ad 300c 	strh.w	r3, [sp, #12]
 8003d06:	f8bd 200c 	ldrh.w	r2, [sp, #12]
 8003d0a:	f04f 0301 	mov.w	r3, #1	; 0x1
 8003d0e:	fa03 f302 	lsl.w	r3, r3, r2
 8003d12:	f8ad 300e 	strh.w	r3, [sp, #14]
 8003d16:	9b00      	ldr	r3, [sp, #0]
 8003d18:	2b00      	cmp	r3, #0
 8003d1a:	d00a      	beq.n	8003d32 <SPI_I2S_ITConfig+0x56>
 8003d1c:	9b02      	ldr	r3, [sp, #8]
 8003d1e:	889b      	ldrh	r3, [r3, #4]
 8003d20:	b29a      	uxth	r2, r3
 8003d22:	f8bd 300e 	ldrh.w	r3, [sp, #14]
 8003d26:	ea42 0303 	orr.w	r3, r2, r3
 8003d2a:	b29b      	uxth	r3, r3
 8003d2c:	9a02      	ldr	r2, [sp, #8]
 8003d2e:	8093      	strh	r3, [r2, #4]
 8003d30:	e00c      	b.n	8003d4c <SPI_I2S_ITConfig+0x70>
 8003d32:	9b02      	ldr	r3, [sp, #8]
 8003d34:	889b      	ldrh	r3, [r3, #4]
 8003d36:	b29a      	uxth	r2, r3
 8003d38:	f8bd 300e 	ldrh.w	r3, [sp, #14]
 8003d3c:	ea6f 0303 	mvn.w	r3, r3
 8003d40:	b29b      	uxth	r3, r3
 8003d42:	ea02 0303 	and.w	r3, r2, r3
 8003d46:	b29b      	uxth	r3, r3
 8003d48:	9a02      	ldr	r2, [sp, #8]
 8003d4a:	8093      	strh	r3, [r2, #4]
 8003d4c:	b004      	add	sp, #16
 8003d4e:	4770      	bx	lr

08003d50 <SPI_I2S_DMACmd>:
 8003d50:	b083      	sub	sp, #12
 8003d52:	9002      	str	r0, [sp, #8]
 8003d54:	460b      	mov	r3, r1
 8003d56:	9200      	str	r2, [sp, #0]
 8003d58:	f8ad 3004 	strh.w	r3, [sp, #4]
 8003d5c:	9b00      	ldr	r3, [sp, #0]
 8003d5e:	2b00      	cmp	r3, #0
 8003d60:	d00a      	beq.n	8003d78 <SPI_I2S_DMACmd+0x28>
 8003d62:	9b02      	ldr	r3, [sp, #8]
 8003d64:	889b      	ldrh	r3, [r3, #4]
 8003d66:	b29a      	uxth	r2, r3
 8003d68:	f8bd 3004 	ldrh.w	r3, [sp, #4]
 8003d6c:	ea42 0303 	orr.w	r3, r2, r3
 8003d70:	b29b      	uxth	r3, r3
 8003d72:	9a02      	ldr	r2, [sp, #8]
 8003d74:	8093      	strh	r3, [r2, #4]
 8003d76:	e00c      	b.n	8003d92 <SPI_I2S_DMACmd+0x42>
 8003d78:	9b02      	ldr	r3, [sp, #8]
 8003d7a:	889b      	ldrh	r3, [r3, #4]
 8003d7c:	b29a      	uxth	r2, r3
 8003d7e:	f8bd 3004 	ldrh.w	r3, [sp, #4]
 8003d82:	ea6f 0303 	mvn.w	r3, r3
 8003d86:	b29b      	uxth	r3, r3
 8003d88:	ea02 0303 	and.w	r3, r2, r3
 8003d8c:	b29b      	uxth	r3, r3
 8003d8e:	9a02      	ldr	r2, [sp, #8]
 8003d90:	8093      	strh	r3, [r2, #4]
 8003d92:	b003      	add	sp, #12
 8003d94:	4770      	bx	lr
 8003d96:	46c0      	nop			(mov r8, r8)

08003d98 <SPI_I2S_SendData>:
 8003d98:	b082      	sub	sp, #8
 8003d9a:	9001      	str	r0, [sp, #4]
 8003d9c:	460b      	mov	r3, r1
 8003d9e:	f8ad 3000 	strh.w	r3, [sp]
 8003da2:	9a01      	ldr	r2, [sp, #4]
 8003da4:	f8bd 3000 	ldrh.w	r3, [sp]
 8003da8:	8193      	strh	r3, [r2, #12]
 8003daa:	b002      	add	sp, #8
 8003dac:	4770      	bx	lr
 8003dae:	46c0      	nop			(mov r8, r8)

08003db0 <SPI_I2S_ReceiveData>:
 8003db0:	b081      	sub	sp, #4
 8003db2:	9000      	str	r0, [sp, #0]
 8003db4:	9b00      	ldr	r3, [sp, #0]
 8003db6:	899b      	ldrh	r3, [r3, #12]
 8003db8:	b29b      	uxth	r3, r3
 8003dba:	4618      	mov	r0, r3
 8003dbc:	b001      	add	sp, #4
 8003dbe:	4770      	bx	lr

08003dc0 <SPI_NSSInternalSoftwareConfig>:
 8003dc0:	b083      	sub	sp, #12
 8003dc2:	9002      	str	r0, [sp, #8]
 8003dc4:	460b      	mov	r3, r1
 8003dc6:	f8ad 3004 	strh.w	r3, [sp, #4]
 8003dca:	f8bd 2004 	ldrh.w	r2, [sp, #4]
 8003dce:	f64f 63ff 	movw	r3, #65279	; 0xfeff
 8003dd2:	429a      	cmp	r2, r3
 8003dd4:	d008      	beq.n	8003de8 <SPI_NSSInternalSoftwareConfig+0x28>
 8003dd6:	9b02      	ldr	r3, [sp, #8]
 8003dd8:	881b      	ldrh	r3, [r3, #0]
 8003dda:	b29b      	uxth	r3, r3
 8003ddc:	f443 7380 	orr.w	r3, r3, #256	; 0x100
 8003de0:	b29b      	uxth	r3, r3
 8003de2:	9a02      	ldr	r2, [sp, #8]
 8003de4:	8013      	strh	r3, [r2, #0]
 8003de6:	e00d      	b.n	8003e04 <SPI_NSSInternalSoftwareConfig+0x44>
 8003de8:	9b02      	ldr	r3, [sp, #8]
 8003dea:	881b      	ldrh	r3, [r3, #0]
 8003dec:	b29b      	uxth	r3, r3
 8003dee:	9300      	str	r3, [sp, #0]
 8003df0:	f64f 63ff 	movw	r3, #65279	; 0xfeff
 8003df4:	9900      	ldr	r1, [sp, #0]
 8003df6:	ea01 0303 	and.w	r3, r1, r3
 8003dfa:	9300      	str	r3, [sp, #0]
 8003dfc:	9a02      	ldr	r2, [sp, #8]
 8003dfe:	9900      	ldr	r1, [sp, #0]
 8003e00:	460b      	mov	r3, r1
 8003e02:	8013      	strh	r3, [r2, #0]
 8003e04:	b003      	add	sp, #12
 8003e06:	4770      	bx	lr

08003e08 <SPI_SSOutputCmd>:
 8003e08:	b083      	sub	sp, #12
 8003e0a:	9002      	str	r0, [sp, #8]
 8003e0c:	9101      	str	r1, [sp, #4]
 8003e0e:	9b01      	ldr	r3, [sp, #4]
 8003e10:	2b00      	cmp	r3, #0
 8003e12:	d008      	beq.n	8003e26 <SPI_SSOutputCmd+0x1e>
 8003e14:	9b02      	ldr	r3, [sp, #8]
 8003e16:	889b      	ldrh	r3, [r3, #4]
 8003e18:	b29b      	uxth	r3, r3
 8003e1a:	f043 0304 	orr.w	r3, r3, #4	; 0x4
 8003e1e:	b29b      	uxth	r3, r3
 8003e20:	9a02      	ldr	r2, [sp, #8]
 8003e22:	8093      	strh	r3, [r2, #4]
 8003e24:	e00d      	b.n	8003e42 <SPI_SSOutputCmd+0x3a>
 8003e26:	9b02      	ldr	r3, [sp, #8]
 8003e28:	889b      	ldrh	r3, [r3, #4]
 8003e2a:	b29b      	uxth	r3, r3
 8003e2c:	9300      	str	r3, [sp, #0]
 8003e2e:	f64f 73fb 	movw	r3, #65531	; 0xfffb
 8003e32:	9900      	ldr	r1, [sp, #0]
 8003e34:	ea01 0303 	and.w	r3, r1, r3
 8003e38:	9300      	str	r3, [sp, #0]
 8003e3a:	9a02      	ldr	r2, [sp, #8]
 8003e3c:	9900      	ldr	r1, [sp, #0]
 8003e3e:	460b      	mov	r3, r1
 8003e40:	8093      	strh	r3, [r2, #4]
 8003e42:	b003      	add	sp, #12
 8003e44:	4770      	bx	lr
 8003e46:	46c0      	nop			(mov r8, r8)

08003e48 <SPI_DataSizeConfig>:
 8003e48:	b083      	sub	sp, #12
 8003e4a:	9002      	str	r0, [sp, #8]
 8003e4c:	460b      	mov	r3, r1
 8003e4e:	f8ad 3004 	strh.w	r3, [sp, #4]
 8003e52:	9b02      	ldr	r3, [sp, #8]
 8003e54:	881b      	ldrh	r3, [r3, #0]
 8003e56:	b29b      	uxth	r3, r3
 8003e58:	9300      	str	r3, [sp, #0]
 8003e5a:	f24f 73ff 	movw	r3, #63487	; 0xf7ff
 8003e5e:	9900      	ldr	r1, [sp, #0]
 8003e60:	ea01 0303 	and.w	r3, r1, r3
 8003e64:	9300      	str	r3, [sp, #0]
 8003e66:	9a02      	ldr	r2, [sp, #8]
 8003e68:	9900      	ldr	r1, [sp, #0]
 8003e6a:	460b      	mov	r3, r1
 8003e6c:	8013      	strh	r3, [r2, #0]
 8003e6e:	9b02      	ldr	r3, [sp, #8]
 8003e70:	881b      	ldrh	r3, [r3, #0]
 8003e72:	b29a      	uxth	r2, r3
 8003e74:	f8bd 3004 	ldrh.w	r3, [sp, #4]
 8003e78:	ea42 0303 	orr.w	r3, r2, r3
 8003e7c:	b29b      	uxth	r3, r3
 8003e7e:	9a02      	ldr	r2, [sp, #8]
 8003e80:	8013      	strh	r3, [r2, #0]
 8003e82:	b003      	add	sp, #12
 8003e84:	4770      	bx	lr
 8003e86:	46c0      	nop			(mov r8, r8)

08003e88 <SPI_TransmitCRC>:
 8003e88:	b081      	sub	sp, #4
 8003e8a:	9000      	str	r0, [sp, #0]
 8003e8c:	9b00      	ldr	r3, [sp, #0]
 8003e8e:	881b      	ldrh	r3, [r3, #0]
 8003e90:	b29b      	uxth	r3, r3
 8003e92:	f443 5380 	orr.w	r3, r3, #4096	; 0x1000
 8003e96:	b29b      	uxth	r3, r3
 8003e98:	9a00      	ldr	r2, [sp, #0]
 8003e9a:	8013      	strh	r3, [r2, #0]
 8003e9c:	b001      	add	sp, #4
 8003e9e:	4770      	bx	lr

08003ea0 <SPI_CalculateCRC>:
 8003ea0:	b083      	sub	sp, #12
 8003ea2:	9002      	str	r0, [sp, #8]
 8003ea4:	9101      	str	r1, [sp, #4]
 8003ea6:	9b01      	ldr	r3, [sp, #4]
 8003ea8:	2b00      	cmp	r3, #0
 8003eaa:	d008      	beq.n	8003ebe <SPI_CalculateCRC+0x1e>
 8003eac:	9b02      	ldr	r3, [sp, #8]
 8003eae:	881b      	ldrh	r3, [r3, #0]
 8003eb0:	b29b      	uxth	r3, r3
 8003eb2:	f443 5300 	orr.w	r3, r3, #8192	; 0x2000
 8003eb6:	b29b      	uxth	r3, r3
 8003eb8:	9a02      	ldr	r2, [sp, #8]
 8003eba:	8013      	strh	r3, [r2, #0]
 8003ebc:	e00d      	b.n	8003eda <SPI_CalculateCRC+0x3a>
 8003ebe:	9b02      	ldr	r3, [sp, #8]
 8003ec0:	881b      	ldrh	r3, [r3, #0]
 8003ec2:	b29b      	uxth	r3, r3
 8003ec4:	9300      	str	r3, [sp, #0]
 8003ec6:	f64d 73ff 	movw	r3, #57343	; 0xdfff
 8003eca:	9900      	ldr	r1, [sp, #0]
 8003ecc:	ea01 0303 	and.w	r3, r1, r3
 8003ed0:	9300      	str	r3, [sp, #0]
 8003ed2:	9a02      	ldr	r2, [sp, #8]
 8003ed4:	9900      	ldr	r1, [sp, #0]
 8003ed6:	460b      	mov	r3, r1
 8003ed8:	8013      	strh	r3, [r2, #0]
 8003eda:	b003      	add	sp, #12
 8003edc:	4770      	bx	lr
 8003ede:	46c0      	nop			(mov r8, r8)

08003ee0 <SPI_GetCRC>:
 8003ee0:	b083      	sub	sp, #12
 8003ee2:	9001      	str	r0, [sp, #4]
 8003ee4:	460b      	mov	r3, r1
 8003ee6:	f88d 3000 	strb.w	r3, [sp]
 8003eea:	f04f 0300 	mov.w	r3, #0	; 0x0
 8003eee:	f8ad 300a 	strh.w	r3, [sp, #10]
 8003ef2:	f89d 3000 	ldrb.w	r3, [sp]
 8003ef6:	2b01      	cmp	r3, #1
 8003ef8:	d004      	beq.n	8003f04 <SPI_GetCRC+0x24>
 8003efa:	9b01      	ldr	r3, [sp, #4]
 8003efc:	8b1b      	ldrh	r3, [r3, #24]
 8003efe:	f8ad 300a 	strh.w	r3, [sp, #10]
 8003f02:	e003      	b.n	8003f0c <SPI_GetCRC+0x2c>
 8003f04:	9b01      	ldr	r3, [sp, #4]
 8003f06:	8a9b      	ldrh	r3, [r3, #20]
 8003f08:	f8ad 300a 	strh.w	r3, [sp, #10]
 8003f0c:	f8bd 300a 	ldrh.w	r3, [sp, #10]
 8003f10:	4618      	mov	r0, r3
 8003f12:	b003      	add	sp, #12
 8003f14:	4770      	bx	lr
 8003f16:	46c0      	nop			(mov r8, r8)

08003f18 <SPI_GetCRCPolynomial>:
 8003f18:	b081      	sub	sp, #4
 8003f1a:	9000      	str	r0, [sp, #0]
 8003f1c:	9b00      	ldr	r3, [sp, #0]
 8003f1e:	8a1b      	ldrh	r3, [r3, #16]
 8003f20:	b29b      	uxth	r3, r3
 8003f22:	4618      	mov	r0, r3
 8003f24:	b001      	add	sp, #4
 8003f26:	4770      	bx	lr

08003f28 <SPI_BiDirectionalLineConfig>:
 8003f28:	b083      	sub	sp, #12
 8003f2a:	9002      	str	r0, [sp, #8]
 8003f2c:	460b      	mov	r3, r1
 8003f2e:	f8ad 3004 	strh.w	r3, [sp, #4]
 8003f32:	f8bd 3004 	ldrh.w	r3, [sp, #4]
 8003f36:	f5b3 4f80 	cmp.w	r3, #16384	; 0x4000
 8003f3a:	d108      	bne.n	8003f4e <SPI_BiDirectionalLineConfig+0x26>
 8003f3c:	9b02      	ldr	r3, [sp, #8]
 8003f3e:	881b      	ldrh	r3, [r3, #0]
 8003f40:	b29b      	uxth	r3, r3
 8003f42:	f443 4380 	orr.w	r3, r3, #16384	; 0x4000
 8003f46:	b29b      	uxth	r3, r3
 8003f48:	9a02      	ldr	r2, [sp, #8]
 8003f4a:	8013      	strh	r3, [r2, #0]
 8003f4c:	e00d      	b.n	8003f6a <SPI_BiDirectionalLineConfig+0x42>
 8003f4e:	9b02      	ldr	r3, [sp, #8]
 8003f50:	881b      	ldrh	r3, [r3, #0]
 8003f52:	b29b      	uxth	r3, r3
 8003f54:	9300      	str	r3, [sp, #0]
 8003f56:	f64b 73ff 	movw	r3, #49151	; 0xbfff
 8003f5a:	9900      	ldr	r1, [sp, #0]
 8003f5c:	ea01 0303 	and.w	r3, r1, r3
 8003f60:	9300      	str	r3, [sp, #0]
 8003f62:	9a02      	ldr	r2, [sp, #8]
 8003f64:	9900      	ldr	r1, [sp, #0]
 8003f66:	460b      	mov	r3, r1
 8003f68:	8013      	strh	r3, [r2, #0]
 8003f6a:	b003      	add	sp, #12
 8003f6c:	4770      	bx	lr
 8003f6e:	46c0      	nop			(mov r8, r8)

08003f70 <SPI_I2S_GetFlagStatus>:
 8003f70:	b083      	sub	sp, #12
 8003f72:	9001      	str	r0, [sp, #4]
 8003f74:	460b      	mov	r3, r1
 8003f76:	f8ad 3000 	strh.w	r3, [sp]
 8003f7a:	f04f 0300 	mov.w	r3, #0	; 0x0
 8003f7e:	9302      	str	r3, [sp, #8]
 8003f80:	9b01      	ldr	r3, [sp, #4]
 8003f82:	891b      	ldrh	r3, [r3, #8]
 8003f84:	b29a      	uxth	r2, r3
 8003f86:	f8bd 3000 	ldrh.w	r3, [sp]
 8003f8a:	ea02 0303 	and.w	r3, r2, r3
 8003f8e:	b29b      	uxth	r3, r3
 8003f90:	2b00      	cmp	r3, #0
 8003f92:	d003      	beq.n	8003f9c <SPI_I2S_GetFlagStatus+0x2c>
 8003f94:	f04f 0301 	mov.w	r3, #1	; 0x1
 8003f98:	9302      	str	r3, [sp, #8]
 8003f9a:	e002      	b.n	8003fa2 <SPI_I2S_GetFlagStatus+0x32>
 8003f9c:	f04f 0300 	mov.w	r3, #0	; 0x0
 8003fa0:	9302      	str	r3, [sp, #8]
 8003fa2:	9b02      	ldr	r3, [sp, #8]
 8003fa4:	4618      	mov	r0, r3
 8003fa6:	b003      	add	sp, #12
 8003fa8:	4770      	bx	lr
 8003faa:	46c0      	nop			(mov r8, r8)

08003fac <SPI_I2S_ClearFlag>:
 8003fac:	b082      	sub	sp, #8
 8003fae:	9001      	str	r0, [sp, #4]
 8003fb0:	460b      	mov	r3, r1
 8003fb2:	f8ad 3000 	strh.w	r3, [sp]
 8003fb6:	f8bd 3000 	ldrh.w	r3, [sp]
 8003fba:	ea6f 0303 	mvn.w	r3, r3
 8003fbe:	b29b      	uxth	r3, r3
 8003fc0:	9a01      	ldr	r2, [sp, #4]
 8003fc2:	8113      	strh	r3, [r2, #8]
 8003fc4:	b002      	add	sp, #8
 8003fc6:	4770      	bx	lr

08003fc8 <SPI_I2S_GetITStatus>:
 8003fc8:	b085      	sub	sp, #20
 8003fca:	9001      	str	r0, [sp, #4]
 8003fcc:	460b      	mov	r3, r1
 8003fce:	f88d 3000 	strb.w	r3, [sp]
 8003fd2:	f04f 0300 	mov.w	r3, #0	; 0x0
 8003fd6:	9302      	str	r3, [sp, #8]
 8003fd8:	f04f 0300 	mov.w	r3, #0	; 0x0
 8003fdc:	f8ad 300e 	strh.w	r3, [sp, #14]
 8003fe0:	f04f 0300 	mov.w	r3, #0	; 0x0
 8003fe4:	f8ad 3010 	strh.w	r3, [sp, #16]
 8003fe8:	f04f 0300 	mov.w	r3, #0	; 0x0
 8003fec:	f8ad 3012 	strh.w	r3, [sp, #18]
 8003ff0:	f89d 3000 	ldrb.w	r3, [sp]
 8003ff4:	f003 020f 	and.w	r2, r3, #15	; 0xf
 8003ff8:	f04f 0301 	mov.w	r3, #1	; 0x1
 8003ffc:	fa03 f302 	lsl.w	r3, r3, r2
 8004000:	f8ad 300e 	strh.w	r3, [sp, #14]
 8004004:	f89d 3000 	ldrb.w	r3, [sp]
 8004008:	ea4f 1313 	mov.w	r3, r3, lsr #4
 800400c:	b2db      	uxtb	r3, r3
 800400e:	f8ad 3010 	strh.w	r3, [sp, #16]
 8004012:	f8bd 2010 	ldrh.w	r2, [sp, #16]
 8004016:	f04f 0301 	mov.w	r3, #1	; 0x1
 800401a:	fa03 f302 	lsl.w	r3, r3, r2
 800401e:	f8ad 3010 	strh.w	r3, [sp, #16]
 8004022:	9b01      	ldr	r3, [sp, #4]
 8004024:	889b      	ldrh	r3, [r3, #4]
 8004026:	b29a      	uxth	r2, r3
 8004028:	f8bd 3010 	ldrh.w	r3, [sp, #16]
 800402c:	ea02 0303 	and.w	r3, r2, r3
 8004030:	f8ad 3012 	strh.w	r3, [sp, #18]
 8004034:	9b01      	ldr	r3, [sp, #4]
 8004036:	891b      	ldrh	r3, [r3, #8]
 8004038:	b29a      	uxth	r2, r3
 800403a:	f8bd 300e 	ldrh.w	r3, [sp, #14]
 800403e:	ea02 0303 	and.w	r3, r2, r3
 8004042:	b29b      	uxth	r3, r3
 8004044:	2b00      	cmp	r3, #0
 8004046:	d007      	beq.n	8004058 <SPI_I2S_GetITStatus+0x90>
 8004048:	f8bd 3012 	ldrh.w	r3, [sp, #18]
 800404c:	2b00      	cmp	r3, #0
 800404e:	d003      	beq.n	8004058 <SPI_I2S_GetITStatus+0x90>
 8004050:	f04f 0301 	mov.w	r3, #1	; 0x1
 8004054:	9302      	str	r3, [sp, #8]
 8004056:	e002      	b.n	800405e <SPI_I2S_GetITStatus+0x96>
 8004058:	f04f 0300 	mov.w	r3, #0	; 0x0
 800405c:	9302      	str	r3, [sp, #8]
 800405e:	9b02      	ldr	r3, [sp, #8]
 8004060:	4618      	mov	r0, r3
 8004062:	b005      	add	sp, #20
 8004064:	4770      	bx	lr
 8004066:	46c0      	nop			(mov r8, r8)

08004068 <SPI_I2S_ClearITPendingBit>:
 8004068:	b083      	sub	sp, #12
 800406a:	9001      	str	r0, [sp, #4]
 800406c:	460b      	mov	r3, r1
 800406e:	f88d 3000 	strb.w	r3, [sp]
 8004072:	f04f 0300 	mov.w	r3, #0	; 0x0
 8004076:	f8ad 300a 	strh.w	r3, [sp, #10]
 800407a:	f89d 3000 	ldrb.w	r3, [sp]
 800407e:	f003 020f 	and.w	r2, r3, #15	; 0xf
 8004082:	f04f 0301 	mov.w	r3, #1	; 0x1
 8004086:	fa03 f302 	lsl.w	r3, r3, r2
 800408a:	f8ad 300a 	strh.w	r3, [sp, #10]
 800408e:	f8bd 300a 	ldrh.w	r3, [sp, #10]
 8004092:	ea6f 0303 	mvn.w	r3, r3
 8004096:	b29b      	uxth	r3, r3
 8004098:	9a01      	ldr	r2, [sp, #4]
 800409a:	8113      	strh	r3, [r2, #8]
 800409c:	b003      	add	sp, #12
 800409e:	4770      	bx	lr

080040a0 <GPIO_DeInit>:
 80040a0:	b500      	push	{lr}
 80040a2:	b082      	sub	sp, #8
 80040a4:	9001      	str	r0, [sp, #4]
 80040a6:	ab01      	add	r3, sp, #4
 80040a8:	681b      	ldr	r3, [r3, #0]
 80040aa:	9300      	str	r3, [sp, #0]
 80040ac:	4b3e      	ldr	r3, [pc, #248]	(80041a8 <GPIO_DeInit+0x108>)
 80040ae:	9a00      	ldr	r2, [sp, #0]
 80040b0:	429a      	cmp	r2, r3
 80040b2:	d044      	beq.n	800413e <GPIO_DeInit+0x9e>
 80040b4:	4b3c      	ldr	r3, [pc, #240]	(80041a8 <GPIO_DeInit+0x108>)
 80040b6:	9a00      	ldr	r2, [sp, #0]
 80040b8:	429a      	cmp	r2, r3
 80040ba:	d80c      	bhi.n	80040d6 <GPIO_DeInit+0x36>
 80040bc:	4b3b      	ldr	r3, [pc, #236]	(80041ac <GPIO_DeInit+0x10c>)
 80040be:	9a00      	ldr	r2, [sp, #0]
 80040c0:	429a      	cmp	r2, r3
 80040c2:	d022      	beq.n	800410a <GPIO_DeInit+0x6a>
 80040c4:	4b3a      	ldr	r3, [pc, #232]	(80041b0 <GPIO_DeInit+0x110>)
 80040c6:	9a00      	ldr	r2, [sp, #0]
 80040c8:	429a      	cmp	r2, r3
 80040ca:	d02b      	beq.n	8004124 <GPIO_DeInit+0x84>
 80040cc:	4b39      	ldr	r3, [pc, #228]	(80041b4 <GPIO_DeInit+0x114>)
 80040ce:	9a00      	ldr	r2, [sp, #0]
 80040d0:	429a      	cmp	r2, r3
 80040d2:	d00d      	beq.n	80040f0 <GPIO_DeInit+0x50>
 80040d4:	e066      	b.n	80041a4 <GPIO_DeInit+0x104>
 80040d6:	4b38      	ldr	r3, [pc, #224]	(80041b8 <GPIO_DeInit+0x118>)
 80040d8:	9a00      	ldr	r2, [sp, #0]
 80040da:	429a      	cmp	r2, r3
 80040dc:	d049      	beq.n	8004172 <GPIO_DeInit+0xd2>
 80040de:	4b37      	ldr	r3, [pc, #220]	(80041bc <GPIO_DeInit+0x11c>)
 80040e0:	9a00      	ldr	r2, [sp, #0]
 80040e2:	429a      	cmp	r2, r3
 80040e4:	d052      	beq.n	800418c <GPIO_DeInit+0xec>
 80040e6:	4b36      	ldr	r3, [pc, #216]	(80041c0 <GPIO_DeInit+0x120>)
 80040e8:	9a00      	ldr	r2, [sp, #0]
 80040ea:	429a      	cmp	r2, r3
 80040ec:	d034      	beq.n	8004158 <GPIO_DeInit+0xb8>
 80040ee:	e059      	b.n	80041a4 <GPIO_DeInit+0x104>
 80040f0:	f04f 0004 	mov.w	r0, #4	; 0x4
 80040f4:	f04f 0101 	mov.w	r1, #1	; 0x1
 80040f8:	f7ff f9c8 	bl	800348c <RCC_APB2PeriphResetCmd>
 80040fc:	f04f 0004 	mov.w	r0, #4	; 0x4
 8004100:	f04f 0100 	mov.w	r1, #0	; 0x0
 8004104:	f7ff f9c2 	bl	800348c <RCC_APB2PeriphResetCmd>
 8004108:	e04c      	b.n	80041a4 <GPIO_DeInit+0x104>
 800410a:	f04f 0008 	mov.w	r0, #8	; 0x8
 800410e:	f04f 0101 	mov.w	r1, #1	; 0x1
 8004112:	f7ff f9bb 	bl	800348c <RCC_APB2PeriphResetCmd>
 8004116:	f04f 0008 	mov.w	r0, #8	; 0x8
 800411a:	f04f 0100 	mov.w	r1, #0	; 0x0
 800411e:	f7ff f9b5 	bl	800348c <RCC_APB2PeriphResetCmd>
 8004122:	e03f      	b.n	80041a4 <GPIO_DeInit+0x104>
 8004124:	f04f 0010 	mov.w	r0, #16	; 0x10
 8004128:	f04f 0101 	mov.w	r1, #1	; 0x1
 800412c:	f7ff f9ae 	bl	800348c <RCC_APB2PeriphResetCmd>
 8004130:	f04f 0010 	mov.w	r0, #16	; 0x10
 8004134:	f04f 0100 	mov.w	r1, #0	; 0x0
 8004138:	f7ff f9a8 	bl	800348c <RCC_APB2PeriphResetCmd>
 800413c:	e032      	b.n	80041a4 <GPIO_DeInit+0x104>
 800413e:	f04f 0020 	mov.w	r0, #32	; 0x20
 8004142:	f04f 0101 	mov.w	r1, #1	; 0x1
 8004146:	f7ff f9a1 	bl	800348c <RCC_APB2PeriphResetCmd>
 800414a:	f04f 0020 	mov.w	r0, #32	; 0x20
 800414e:	f04f 0100 	mov.w	r1, #0	; 0x0
 8004152:	f7ff f99b 	bl	800348c <RCC_APB2PeriphResetCmd>
 8004156:	e025      	b.n	80041a4 <GPIO_DeInit+0x104>
 8004158:	f04f 0040 	mov.w	r0, #64	; 0x40
 800415c:	f04f 0101 	mov.w	r1, #1	; 0x1
 8004160:	f7ff f994 	bl	800348c <RCC_APB2PeriphResetCmd>
 8004164:	f04f 0040 	mov.w	r0, #64	; 0x40
 8004168:	f04f 0100 	mov.w	r1, #0	; 0x0
 800416c:	f7ff f98e 	bl	800348c <RCC_APB2PeriphResetCmd>
 8004170:	e018      	b.n	80041a4 <GPIO_DeInit+0x104>
 8004172:	f04f 0080 	mov.w	r0, #128	; 0x80
 8004176:	f04f 0101 	mov.w	r1, #1	; 0x1
 800417a:	f7ff f987 	bl	800348c <RCC_APB2PeriphResetCmd>
 800417e:	f04f 0080 	mov.w	r0, #128	; 0x80
 8004182:	f04f 0100 	mov.w	r1, #0	; 0x0
 8004186:	f7ff f981 	bl	800348c <RCC_APB2PeriphResetCmd>
 800418a:	e00b      	b.n	80041a4 <GPIO_DeInit+0x104>
 800418c:	f44f 7080 	mov.w	r0, #256	; 0x100
 8004190:	f04f 0101 	mov.w	r1, #1	; 0x1
 8004194:	f7ff f97a 	bl	800348c <RCC_APB2PeriphResetCmd>
 8004198:	f44f 7080 	mov.w	r0, #256	; 0x100
 800419c:	f04f 0100 	mov.w	r1, #0	; 0x0
 80041a0:	f7ff f974 	bl	800348c <RCC_APB2PeriphResetCmd>
 80041a4:	b002      	add	sp, #8
 80041a6:	bd00      	pop	{pc}
 80041a8:	40011400 	.word	0x40011400
 80041ac:	40010c00 	.word	0x40010c00
 80041b0:	40011000 	.word	0x40011000
 80041b4:	40010800 	.word	0x40010800
 80041b8:	40011c00 	.word	0x40011c00
 80041bc:	40012000 	.word	0x40012000
 80041c0:	40011800 	.word	0x40011800

080041c4 <GPIO_AFIODeInit>:
 80041c4:	b500      	push	{lr}
 80041c6:	f04f 0001 	mov.w	r0, #1	; 0x1
 80041ca:	f04f 0101 	mov.w	r1, #1	; 0x1
 80041ce:	f7ff f95d 	bl	800348c <RCC_APB2PeriphResetCmd>
 80041d2:	f04f 0001 	mov.w	r0, #1	; 0x1
 80041d6:	f04f 0100 	mov.w	r1, #0	; 0x0
 80041da:	f7ff f957 	bl	800348c <RCC_APB2PeriphResetCmd>
 80041de:	bd00      	pop	{pc}

080041e0 <GPIO_Init>:
 80041e0:	b088      	sub	sp, #32
 80041e2:	9001      	str	r0, [sp, #4]
 80041e4:	9100      	str	r1, [sp, #0]
 80041e6:	f04f 0300 	mov.w	r3, #0	; 0x0
 80041ea:	9302      	str	r3, [sp, #8]
 80041ec:	f04f 0300 	mov.w	r3, #0	; 0x0
 80041f0:	9303      	str	r3, [sp, #12]
 80041f2:	f04f 0300 	mov.w	r3, #0	; 0x0
 80041f6:	9304      	str	r3, [sp, #16]
 80041f8:	f04f 0300 	mov.w	r3, #0	; 0x0
 80041fc:	9305      	str	r3, [sp, #20]
 80041fe:	f04f 0300 	mov.w	r3, #0	; 0x0
 8004202:	9306      	str	r3, [sp, #24]
 8004204:	f04f 0300 	mov.w	r3, #0	; 0x0
 8004208:	9307      	str	r3, [sp, #28]
 800420a:	9b00      	ldr	r3, [sp, #0]
 800420c:	689b      	ldr	r3, [r3, #8]
 800420e:	f003 030f 	and.w	r3, r3, #15	; 0xf
 8004212:	9302      	str	r3, [sp, #8]
 8004214:	9b00      	ldr	r3, [sp, #0]
 8004216:	689b      	ldr	r3, [r3, #8]
 8004218:	f003 0310 	and.w	r3, r3, #16	; 0x10
 800421c:	2b00      	cmp	r3, #0
 800421e:	d005      	beq.n	800422c <GPIO_Init+0x4c>
 8004220:	9b00      	ldr	r3, [sp, #0]
 8004222:	685a      	ldr	r2, [r3, #4]
 8004224:	9b02      	ldr	r3, [sp, #8]
 8004226:	ea43 0302 	orr.w	r3, r3, r2
 800422a:	9302      	str	r3, [sp, #8]
 800422c:	9b00      	ldr	r3, [sp, #0]
 800422e:	881b      	ldrh	r3, [r3, #0]
 8004230:	f003 03ff 	and.w	r3, r3, #255	; 0xff
 8004234:	2b00      	cmp	r3, #0
 8004236:	d051      	beq.n	80042dc <GPIO_Init+0xfc>
 8004238:	9b01      	ldr	r3, [sp, #4]
 800423a:	681b      	ldr	r3, [r3, #0]
 800423c:	9306      	str	r3, [sp, #24]
 800423e:	f04f 0300 	mov.w	r3, #0	; 0x0
 8004242:	9304      	str	r3, [sp, #16]
 8004244:	e044      	b.n	80042d0 <GPIO_Init+0xf0>
 8004246:	9a04      	ldr	r2, [sp, #16]
 8004248:	f04f 0301 	mov.w	r3, #1	; 0x1
 800424c:	fa03 f302 	lsl.w	r3, r3, r2
 8004250:	9305      	str	r3, [sp, #20]
 8004252:	9b00      	ldr	r3, [sp, #0]
 8004254:	881b      	ldrh	r3, [r3, #0]
 8004256:	461a      	mov	r2, r3
 8004258:	9b05      	ldr	r3, [sp, #20]
 800425a:	ea02 0303 	and.w	r3, r2, r3
 800425e:	9303      	str	r3, [sp, #12]
 8004260:	9a03      	ldr	r2, [sp, #12]
 8004262:	9b05      	ldr	r3, [sp, #20]
 8004264:	429a      	cmp	r2, r3
 8004266:	d12f      	bne.n	80042c8 <GPIO_Init+0xe8>
 8004268:	9b04      	ldr	r3, [sp, #16]
 800426a:	ea4f 0383 	mov.w	r3, r3, lsl #2
 800426e:	9305      	str	r3, [sp, #20]
 8004270:	9a05      	ldr	r2, [sp, #20]
 8004272:	f04f 030f 	mov.w	r3, #15	; 0xf
 8004276:	fa03 f302 	lsl.w	r3, r3, r2
 800427a:	9307      	str	r3, [sp, #28]
 800427c:	9b07      	ldr	r3, [sp, #28]
 800427e:	ea6f 0203 	mvn.w	r2, r3
 8004282:	9b06      	ldr	r3, [sp, #24]
 8004284:	ea03 0302 	and.w	r3, r3, r2
 8004288:	9306      	str	r3, [sp, #24]
 800428a:	9a05      	ldr	r2, [sp, #20]
 800428c:	9b02      	ldr	r3, [sp, #8]
 800428e:	fa03 f202 	lsl.w	r2, r3, r2
 8004292:	9b06      	ldr	r3, [sp, #24]
 8004294:	ea43 0302 	orr.w	r3, r3, r2
 8004298:	9306      	str	r3, [sp, #24]
 800429a:	9b00      	ldr	r3, [sp, #0]
 800429c:	689b      	ldr	r3, [r3, #8]
 800429e:	2b28      	cmp	r3, #40
 80042a0:	d107      	bne.n	80042b2 <GPIO_Init+0xd2>
 80042a2:	9a04      	ldr	r2, [sp, #16]
 80042a4:	f04f 0301 	mov.w	r3, #1	; 0x1
 80042a8:	fa03 f202 	lsl.w	r2, r3, r2
 80042ac:	9b01      	ldr	r3, [sp, #4]
 80042ae:	615a      	str	r2, [r3, #20]
 80042b0:	e00a      	b.n	80042c8 <GPIO_Init+0xe8>
 80042b2:	9b00      	ldr	r3, [sp, #0]
 80042b4:	689b      	ldr	r3, [r3, #8]
 80042b6:	2b48      	cmp	r3, #72
 80042b8:	d106      	bne.n	80042c8 <GPIO_Init+0xe8>
 80042ba:	9a04      	ldr	r2, [sp, #16]
 80042bc:	f04f 0301 	mov.w	r3, #1	; 0x1
 80042c0:	fa03 f202 	lsl.w	r2, r3, r2
 80042c4:	9b01      	ldr	r3, [sp, #4]
 80042c6:	611a      	str	r2, [r3, #16]
 80042c8:	9b04      	ldr	r3, [sp, #16]
 80042ca:	f103 0301 	add.w	r3, r3, #1	; 0x1
 80042ce:	9304      	str	r3, [sp, #16]
 80042d0:	9b04      	ldr	r3, [sp, #16]
 80042d2:	2b07      	cmp	r3, #7
 80042d4:	d9b7      	bls.n	8004246 <GPIO_Init+0x66>
 80042d6:	9a01      	ldr	r2, [sp, #4]
 80042d8:	9b06      	ldr	r3, [sp, #24]
 80042da:	6013      	str	r3, [r2, #0]
 80042dc:	9b00      	ldr	r3, [sp, #0]
 80042de:	881b      	ldrh	r3, [r3, #0]
 80042e0:	2bff      	cmp	r3, #255
 80042e2:	d959      	bls.n	8004398 <GPIO_Init+0x1b8>
 80042e4:	9b01      	ldr	r3, [sp, #4]
 80042e6:	685b      	ldr	r3, [r3, #4]
 80042e8:	9306      	str	r3, [sp, #24]
 80042ea:	f04f 0300 	mov.w	r3, #0	; 0x0
 80042ee:	9304      	str	r3, [sp, #16]
 80042f0:	e04c      	b.n	800438c <GPIO_Init+0x1ac>
 80042f2:	9b04      	ldr	r3, [sp, #16]
 80042f4:	f103 0308 	add.w	r3, r3, #8	; 0x8
 80042f8:	461a      	mov	r2, r3
 80042fa:	f04f 0301 	mov.w	r3, #1	; 0x1
 80042fe:	fa03 f302 	lsl.w	r3, r3, r2
 8004302:	9305      	str	r3, [sp, #20]
 8004304:	9b00      	ldr	r3, [sp, #0]
 8004306:	881b      	ldrh	r3, [r3, #0]
 8004308:	461a      	mov	r2, r3
 800430a:	9b05      	ldr	r3, [sp, #20]
 800430c:	ea02 0303 	and.w	r3, r2, r3
 8004310:	9303      	str	r3, [sp, #12]
 8004312:	9a03      	ldr	r2, [sp, #12]
 8004314:	9b05      	ldr	r3, [sp, #20]
 8004316:	429a      	cmp	r2, r3
 8004318:	d134      	bne.n	8004384 <GPIO_Init+0x1a4>
 800431a:	9b04      	ldr	r3, [sp, #16]
 800431c:	ea4f 0383 	mov.w	r3, r3, lsl #2
 8004320:	9305      	str	r3, [sp, #20]
 8004322:	9a05      	ldr	r2, [sp, #20]
 8004324:	f04f 030f 	mov.w	r3, #15	; 0xf
 8004328:	fa03 f302 	lsl.w	r3, r3, r2
 800432c:	9307      	str	r3, [sp, #28]
 800432e:	9b07      	ldr	r3, [sp, #28]
 8004330:	ea6f 0203 	mvn.w	r2, r3
 8004334:	9b06      	ldr	r3, [sp, #24]
 8004336:	ea03 0302 	and.w	r3, r3, r2
 800433a:	9306      	str	r3, [sp, #24]
 800433c:	9a05      	ldr	r2, [sp, #20]
 800433e:	9b02      	ldr	r3, [sp, #8]
 8004340:	fa03 f202 	lsl.w	r2, r3, r2
 8004344:	9b06      	ldr	r3, [sp, #24]
 8004346:	ea43 0302 	orr.w	r3, r3, r2
 800434a:	9306      	str	r3, [sp, #24]
 800434c:	9b00      	ldr	r3, [sp, #0]
 800434e:	689b      	ldr	r3, [r3, #8]
 8004350:	2b28      	cmp	r3, #40
 8004352:	d109      	bne.n	8004368 <GPIO_Init+0x188>
 8004354:	9b04      	ldr	r3, [sp, #16]
 8004356:	f103 0308 	add.w	r3, r3, #8	; 0x8
 800435a:	461a      	mov	r2, r3
 800435c:	f04f 0301 	mov.w	r3, #1	; 0x1
 8004360:	fa03 f202 	lsl.w	r2, r3, r2
 8004364:	9b01      	ldr	r3, [sp, #4]
 8004366:	615a      	str	r2, [r3, #20]
 8004368:	9b00      	ldr	r3, [sp, #0]
 800436a:	689b      	ldr	r3, [r3, #8]
 800436c:	2b48      	cmp	r3, #72
 800436e:	d109      	bne.n	8004384 <GPIO_Init+0x1a4>
 8004370:	9b04      	ldr	r3, [sp, #16]
 8004372:	f103 0308 	add.w	r3, r3, #8	; 0x8
 8004376:	461a      	mov	r2, r3
 8004378:	f04f 0301 	mov.w	r3, #1	; 0x1
 800437c:	fa03 f202 	lsl.w	r2, r3, r2
 8004380:	9b01      	ldr	r3, [sp, #4]
 8004382:	611a      	str	r2, [r3, #16]
 8004384:	9b04      	ldr	r3, [sp, #16]
 8004386:	f103 0301 	add.w	r3, r3, #1	; 0x1
 800438a:	9304      	str	r3, [sp, #16]
 800438c:	9b04      	ldr	r3, [sp, #16]
 800438e:	2b07      	cmp	r3, #7
 8004390:	d9af      	bls.n	80042f2 <GPIO_Init+0x112>
 8004392:	9a01      	ldr	r2, [sp, #4]
 8004394:	9b06      	ldr	r3, [sp, #24]
 8004396:	6053      	str	r3, [r2, #4]
 8004398:	b008      	add	sp, #32
 800439a:	4770      	bx	lr

0800439c <GPIO_StructInit>:
 800439c:	b081      	sub	sp, #4
 800439e:	9000      	str	r0, [sp, #0]
 80043a0:	9a00      	ldr	r2, [sp, #0]
 80043a2:	f64f 73ff 	movw	r3, #65535	; 0xffff
 80043a6:	8013      	strh	r3, [r2, #0]
 80043a8:	9a00      	ldr	r2, [sp, #0]
 80043aa:	f04f 0302 	mov.w	r3, #2	; 0x2
 80043ae:	6053      	str	r3, [r2, #4]
 80043b0:	9a00      	ldr	r2, [sp, #0]
 80043b2:	f04f 0304 	mov.w	r3, #4	; 0x4
 80043b6:	6093      	str	r3, [r2, #8]
 80043b8:	b001      	add	sp, #4
 80043ba:	4770      	bx	lr

080043bc <GPIO_ReadInputDataBit>:
 80043bc:	b083      	sub	sp, #12
 80043be:	9001      	str	r0, [sp, #4]
 80043c0:	460b      	mov	r3, r1
 80043c2:	f8ad 3000 	strh.w	r3, [sp]
 80043c6:	f04f 0300 	mov.w	r3, #0	; 0x0
 80043ca:	f88d 300b 	strb.w	r3, [sp, #11]
 80043ce:	9b01      	ldr	r3, [sp, #4]
 80043d0:	689a      	ldr	r2, [r3, #8]
 80043d2:	f8bd 3000 	ldrh.w	r3, [sp]
 80043d6:	ea02 0303 	and.w	r3, r2, r3
 80043da:	2b00      	cmp	r3, #0
 80043dc:	d004      	beq.n	80043e8 <GPIO_ReadInputDataBit+0x2c>
 80043de:	f04f 0301 	mov.w	r3, #1	; 0x1
 80043e2:	f88d 300b 	strb.w	r3, [sp, #11]
 80043e6:	e003      	b.n	80043f0 <GPIO_ReadInputDataBit+0x34>
 80043e8:	f04f 0300 	mov.w	r3, #0	; 0x0
 80043ec:	f88d 300b 	strb.w	r3, [sp, #11]
 80043f0:	f89d 300b 	ldrb.w	r3, [sp, #11]
 80043f4:	4618      	mov	r0, r3
 80043f6:	b003      	add	sp, #12
 80043f8:	4770      	bx	lr
 80043fa:	46c0      	nop			(mov r8, r8)

080043fc <GPIO_ReadInputData>:
 80043fc:	b081      	sub	sp, #4
 80043fe:	9000      	str	r0, [sp, #0]
 8004400:	9b00      	ldr	r3, [sp, #0]
 8004402:	689b      	ldr	r3, [r3, #8]
 8004404:	b29b      	uxth	r3, r3
 8004406:	4618      	mov	r0, r3
 8004408:	b001      	add	sp, #4
 800440a:	4770      	bx	lr

0800440c <GPIO_ReadOutputDataBit>:
 800440c:	b083      	sub	sp, #12
 800440e:	9001      	str	r0, [sp, #4]
 8004410:	460b      	mov	r3, r1
 8004412:	f8ad 3000 	strh.w	r3, [sp]
 8004416:	f04f 0300 	mov.w	r3, #0	; 0x0
 800441a:	f88d 300b 	strb.w	r3, [sp, #11]
 800441e:	9b01      	ldr	r3, [sp, #4]
 8004420:	68da      	ldr	r2, [r3, #12]
 8004422:	f8bd 3000 	ldrh.w	r3, [sp]
 8004426:	ea02 0303 	and.w	r3, r2, r3
 800442a:	2b00      	cmp	r3, #0
 800442c:	d004      	beq.n	8004438 <GPIO_ReadOutputDataBit+0x2c>
 800442e:	f04f 0301 	mov.w	r3, #1	; 0x1
 8004432:	f88d 300b 	strb.w	r3, [sp, #11]
 8004436:	e003      	b.n	8004440 <GPIO_ReadOutputDataBit+0x34>
 8004438:	f04f 0300 	mov.w	r3, #0	; 0x0
 800443c:	f88d 300b 	strb.w	r3, [sp, #11]
 8004440:	f89d 300b 	ldrb.w	r3, [sp, #11]
 8004444:	4618      	mov	r0, r3
 8004446:	b003      	add	sp, #12
 8004448:	4770      	bx	lr
 800444a:	46c0      	nop			(mov r8, r8)

0800444c <GPIO_ReadOutputData>:
 800444c:	b081      	sub	sp, #4
 800444e:	9000      	str	r0, [sp, #0]
 8004450:	9b00      	ldr	r3, [sp, #0]
 8004452:	68db      	ldr	r3, [r3, #12]
 8004454:	b29b      	uxth	r3, r3
 8004456:	4618      	mov	r0, r3
 8004458:	b001      	add	sp, #4
 800445a:	4770      	bx	lr

0800445c <GPIO_SetBits>:
 800445c:	b082      	sub	sp, #8
 800445e:	9001      	str	r0, [sp, #4]
 8004460:	460b      	mov	r3, r1
 8004462:	f8ad 3000 	strh.w	r3, [sp]
 8004466:	f8bd 2000 	ldrh.w	r2, [sp]
 800446a:	9b01      	ldr	r3, [sp, #4]
 800446c:	611a      	str	r2, [r3, #16]
 800446e:	b002      	add	sp, #8
 8004470:	4770      	bx	lr
 8004472:	46c0      	nop			(mov r8, r8)

08004474 <GPIO_ResetBits>:
 8004474:	b082      	sub	sp, #8
 8004476:	9001      	str	r0, [sp, #4]
 8004478:	460b      	mov	r3, r1
 800447a:	f8ad 3000 	strh.w	r3, [sp]
 800447e:	f8bd 2000 	ldrh.w	r2, [sp]
 8004482:	9b01      	ldr	r3, [sp, #4]
 8004484:	615a      	str	r2, [r3, #20]
 8004486:	b002      	add	sp, #8
 8004488:	4770      	bx	lr
 800448a:	46c0      	nop			(mov r8, r8)

0800448c <GPIO_WriteBit>:
 800448c:	b083      	sub	sp, #12
 800448e:	9002      	str	r0, [sp, #8]
 8004490:	460b      	mov	r3, r1
 8004492:	9200      	str	r2, [sp, #0]
 8004494:	f8ad 3004 	strh.w	r3, [sp, #4]
 8004498:	9b00      	ldr	r3, [sp, #0]
 800449a:	2b00      	cmp	r3, #0
 800449c:	d004      	beq.n	80044a8 <GPIO_WriteBit+0x1c>
 800449e:	f8bd 2004 	ldrh.w	r2, [sp, #4]
 80044a2:	9b02      	ldr	r3, [sp, #8]
 80044a4:	611a      	str	r2, [r3, #16]
 80044a6:	e003      	b.n	80044b0 <GPIO_WriteBit+0x24>
 80044a8:	f8bd 2004 	ldrh.w	r2, [sp, #4]
 80044ac:	9b02      	ldr	r3, [sp, #8]
 80044ae:	615a      	str	r2, [r3, #20]
 80044b0:	b003      	add	sp, #12
 80044b2:	4770      	bx	lr

080044b4 <GPIO_Write>:
 80044b4:	b082      	sub	sp, #8
 80044b6:	9001      	str	r0, [sp, #4]
 80044b8:	460b      	mov	r3, r1
 80044ba:	f8ad 3000 	strh.w	r3, [sp]
 80044be:	f8bd 2000 	ldrh.w	r2, [sp]
 80044c2:	9b01      	ldr	r3, [sp, #4]
 80044c4:	60da      	str	r2, [r3, #12]
 80044c6:	b002      	add	sp, #8
 80044c8:	4770      	bx	lr
 80044ca:	46c0      	nop			(mov r8, r8)

080044cc <GPIO_PinLockConfig>:
 80044cc:	b083      	sub	sp, #12
 80044ce:	9001      	str	r0, [sp, #4]
 80044d0:	460b      	mov	r3, r1
 80044d2:	f8ad 3000 	strh.w	r3, [sp]
 80044d6:	f44f 3380 	mov.w	r3, #65536	; 0x10000
 80044da:	9302      	str	r3, [sp, #8]
 80044dc:	f8bd 2000 	ldrh.w	r2, [sp]
 80044e0:	9b02      	ldr	r3, [sp, #8]
 80044e2:	ea43 0302 	orr.w	r3, r3, r2
 80044e6:	9302      	str	r3, [sp, #8]
 80044e8:	9a01      	ldr	r2, [sp, #4]
 80044ea:	9b02      	ldr	r3, [sp, #8]
 80044ec:	6193      	str	r3, [r2, #24]
 80044ee:	f8bd 2000 	ldrh.w	r2, [sp]
 80044f2:	9b01      	ldr	r3, [sp, #4]
 80044f4:	619a      	str	r2, [r3, #24]
 80044f6:	9a01      	ldr	r2, [sp, #4]
 80044f8:	9b02      	ldr	r3, [sp, #8]
 80044fa:	6193      	str	r3, [r2, #24]
 80044fc:	9b01      	ldr	r3, [sp, #4]
 80044fe:	699b      	ldr	r3, [r3, #24]
 8004500:	9302      	str	r3, [sp, #8]
 8004502:	9b01      	ldr	r3, [sp, #4]
 8004504:	699b      	ldr	r3, [r3, #24]
 8004506:	9302      	str	r3, [sp, #8]
 8004508:	b003      	add	sp, #12
 800450a:	4770      	bx	lr

0800450c <GPIO_EventOutputConfig>:
 800450c:	b083      	sub	sp, #12
 800450e:	4603      	mov	r3, r0
 8004510:	460a      	mov	r2, r1
 8004512:	f88d 3004 	strb.w	r3, [sp, #4]
 8004516:	4613      	mov	r3, r2
 8004518:	f88d 3000 	strb.w	r3, [sp]
 800451c:	f04f 0300 	mov.w	r3, #0	; 0x0
 8004520:	9302      	str	r3, [sp, #8]
 8004522:	4b0e      	ldr	r3, [pc, #56]	(800455c <GPIO_EventOutputConfig+0x50>)
 8004524:	681b      	ldr	r3, [r3, #0]
 8004526:	9302      	str	r3, [sp, #8]
 8004528:	9a02      	ldr	r2, [sp, #8]
 800452a:	f64f 7380 	movw	r3, #65408	; 0xff80
 800452e:	ea02 0303 	and.w	r3, r2, r3
 8004532:	9302      	str	r3, [sp, #8]
 8004534:	f89d 3004 	ldrb.w	r3, [sp, #4]
 8004538:	ea4f 1203 	mov.w	r2, r3, lsl #4
 800453c:	9b02      	ldr	r3, [sp, #8]
 800453e:	ea43 0302 	orr.w	r3, r3, r2
 8004542:	9302      	str	r3, [sp, #8]
 8004544:	f89d 2000 	ldrb.w	r2, [sp]
 8004548:	9b02      	ldr	r3, [sp, #8]
 800454a:	ea43 0302 	orr.w	r3, r3, r2
 800454e:	9302      	str	r3, [sp, #8]
 8004550:	4a02      	ldr	r2, [pc, #8]	(800455c <GPIO_EventOutputConfig+0x50>)
 8004552:	9b02      	ldr	r3, [sp, #8]
 8004554:	6013      	str	r3, [r2, #0]
 8004556:	b003      	add	sp, #12
 8004558:	4770      	bx	lr
 800455a:	46c0      	nop			(mov r8, r8)
 800455c:	40010000 	.word	0x40010000

08004560 <GPIO_EventOutputCmd>:
 8004560:	b081      	sub	sp, #4
 8004562:	9000      	str	r0, [sp, #0]
 8004564:	4a02      	ldr	r2, [pc, #8]	(8004570 <GPIO_EventOutputCmd+0x10>)
 8004566:	9b00      	ldr	r3, [sp, #0]
 8004568:	6013      	str	r3, [r2, #0]
 800456a:	b001      	add	sp, #4
 800456c:	4770      	bx	lr
 800456e:	46c0      	nop			(mov r8, r8)
 8004570:	4220001c 	.word	0x4220001c

08004574 <GPIO_PinRemapConfig>:
 8004574:	b086      	sub	sp, #24
 8004576:	9001      	str	r0, [sp, #4]
 8004578:	9100      	str	r1, [sp, #0]
 800457a:	f04f 0300 	mov.w	r3, #0	; 0x0
 800457e:	9302      	str	r3, [sp, #8]
 8004580:	f04f 0300 	mov.w	r3, #0	; 0x0
 8004584:	9303      	str	r3, [sp, #12]
 8004586:	f04f 0300 	mov.w	r3, #0	; 0x0
 800458a:	9304      	str	r3, [sp, #16]
 800458c:	f04f 0300 	mov.w	r3, #0	; 0x0
 8004590:	9305      	str	r3, [sp, #20]
 8004592:	4b2f      	ldr	r3, [pc, #188]	(8004650 <GPIO_PinRemapConfig+0xdc>)
 8004594:	685b      	ldr	r3, [r3, #4]
 8004596:	9304      	str	r3, [sp, #16]
 8004598:	9b01      	ldr	r3, [sp, #4]
 800459a:	f403 2370 	and.w	r3, r3, #983040	; 0xf0000
 800459e:	ea4f 4313 	mov.w	r3, r3, lsr #16
 80045a2:	9305      	str	r3, [sp, #20]
 80045a4:	9b01      	ldr	r3, [sp, #4]
 80045a6:	ea4f 4303 	mov.w	r3, r3, lsl #16
 80045aa:	ea4f 4313 	mov.w	r3, r3, lsr #16
 80045ae:	9302      	str	r3, [sp, #8]
 80045b0:	9b01      	ldr	r3, [sp, #4]
 80045b2:	f403 1340 	and.w	r3, r3, #3145728	; 0x300000
 80045b6:	f5b3 1f40 	cmp.w	r3, #3145728	; 0x300000
 80045ba:	d10a      	bne.n	80045d2 <GPIO_PinRemapConfig+0x5e>
 80045bc:	9b04      	ldr	r3, [sp, #16]
 80045be:	f023 6370 	bic.w	r3, r3, #251658240	; 0xf000000
 80045c2:	9304      	str	r3, [sp, #16]
 80045c4:	4a22      	ldr	r2, [pc, #136]	(8004650 <GPIO_PinRemapConfig+0xdc>)
 80045c6:	4b22      	ldr	r3, [pc, #136]	(8004650 <GPIO_PinRemapConfig+0xdc>)
 80045c8:	685b      	ldr	r3, [r3, #4]
 80045ca:	f023 6370 	bic.w	r3, r3, #251658240	; 0xf000000
 80045ce:	6053      	str	r3, [r2, #4]
 80045d0:	e029      	b.n	8004626 <GPIO_PinRemapConfig+0xb2>
 80045d2:	9b01      	ldr	r3, [sp, #4]
 80045d4:	f403 1380 	and.w	r3, r3, #1048576	; 0x100000
 80045d8:	2b00      	cmp	r3, #0
 80045da:	d011      	beq.n	8004600 <GPIO_PinRemapConfig+0x8c>
 80045dc:	9a05      	ldr	r2, [sp, #20]
 80045de:	f04f 0303 	mov.w	r3, #3	; 0x3
 80045e2:	fa03 f302 	lsl.w	r3, r3, r2
 80045e6:	9303      	str	r3, [sp, #12]
 80045e8:	9b03      	ldr	r3, [sp, #12]
 80045ea:	ea6f 0203 	mvn.w	r2, r3
 80045ee:	9b04      	ldr	r3, [sp, #16]
 80045f0:	ea03 0302 	and.w	r3, r3, r2
 80045f4:	9304      	str	r3, [sp, #16]
 80045f6:	9b04      	ldr	r3, [sp, #16]
 80045f8:	f043 6370 	orr.w	r3, r3, #251658240	; 0xf000000
 80045fc:	9304      	str	r3, [sp, #16]
 80045fe:	e012      	b.n	8004626 <GPIO_PinRemapConfig+0xb2>
 8004600:	9b01      	ldr	r3, [sp, #4]
 8004602:	ea4f 5353 	mov.w	r3, r3, lsr #21
 8004606:	ea4f 1303 	mov.w	r3, r3, lsl #4
 800460a:	461a      	mov	r2, r3
 800460c:	9b02      	ldr	r3, [sp, #8]
 800460e:	fa03 f302 	lsl.w	r3, r3, r2
 8004612:	ea6f 0203 	mvn.w	r2, r3
 8004616:	9b04      	ldr	r3, [sp, #16]
 8004618:	ea03 0302 	and.w	r3, r3, r2
 800461c:	9304      	str	r3, [sp, #16]
 800461e:	9b04      	ldr	r3, [sp, #16]
 8004620:	f043 6370 	orr.w	r3, r3, #251658240	; 0xf000000
 8004624:	9304      	str	r3, [sp, #16]
 8004626:	9b00      	ldr	r3, [sp, #0]
 8004628:	2b00      	cmp	r3, #0
 800462a:	d00c      	beq.n	8004646 <GPIO_PinRemapConfig+0xd2>
 800462c:	9b01      	ldr	r3, [sp, #4]
 800462e:	ea4f 5353 	mov.w	r3, r3, lsr #21
 8004632:	ea4f 1303 	mov.w	r3, r3, lsl #4
 8004636:	461a      	mov	r2, r3
 8004638:	9b02      	ldr	r3, [sp, #8]
 800463a:	fa03 f202 	lsl.w	r2, r3, r2
 800463e:	9b04      	ldr	r3, [sp, #16]
 8004640:	ea43 0302 	orr.w	r3, r3, r2
 8004644:	9304      	str	r3, [sp, #16]
 8004646:	4a02      	ldr	r2, [pc, #8]	(8004650 <GPIO_PinRemapConfig+0xdc>)
 8004648:	9b04      	ldr	r3, [sp, #16]
 800464a:	6053      	str	r3, [r2, #4]
 800464c:	b006      	add	sp, #24
 800464e:	4770      	bx	lr
 8004650:	40010000 	.word	0x40010000

08004654 <GPIO_EXTILineConfig>:
 8004654:	b083      	sub	sp, #12
 8004656:	4603      	mov	r3, r0
 8004658:	460a      	mov	r2, r1
 800465a:	f88d 3004 	strb.w	r3, [sp, #4]
 800465e:	4613      	mov	r3, r2
 8004660:	f88d 3000 	strb.w	r3, [sp]
 8004664:	f04f 0300 	mov.w	r3, #0	; 0x0
 8004668:	9302      	str	r3, [sp, #8]
 800466a:	f89d 3000 	ldrb.w	r3, [sp]
 800466e:	f003 0303 	and.w	r3, r3, #3	; 0x3
 8004672:	ea4f 0283 	mov.w	r2, r3, lsl #2
 8004676:	f04f 030f 	mov.w	r3, #15	; 0xf
 800467a:	fa03 f302 	lsl.w	r3, r3, r2
 800467e:	9302      	str	r3, [sp, #8]
 8004680:	491e      	ldr	r1, [pc, #120]	(80046fc <GPIO_EXTILineConfig+0xa8>)
 8004682:	f89d 3000 	ldrb.w	r3, [sp]
 8004686:	ea4f 0393 	mov.w	r3, r3, lsr #2
 800468a:	b2db      	uxtb	r3, r3
 800468c:	4618      	mov	r0, r3
 800468e:	4a1b      	ldr	r2, [pc, #108]	(80046fc <GPIO_EXTILineConfig+0xa8>)
 8004690:	f89d 3000 	ldrb.w	r3, [sp]
 8004694:	ea4f 0393 	mov.w	r3, r3, lsr #2
 8004698:	b2db      	uxtb	r3, r3
 800469a:	f103 0302 	add.w	r3, r3, #2	; 0x2
 800469e:	f852 2023 	ldr.w	r2, [r2, r3, lsl #2]
 80046a2:	9b02      	ldr	r3, [sp, #8]
 80046a4:	ea6f 0303 	mvn.w	r3, r3
 80046a8:	ea02 0203 	and.w	r2, r2, r3
 80046ac:	f100 0302 	add.w	r3, r0, #2	; 0x2
 80046b0:	f841 2023 	str.w	r2, [r1, r3, lsl #2]
 80046b4:	4811      	ldr	r0, [pc, #68]	(80046fc <GPIO_EXTILineConfig+0xa8>)
 80046b6:	f89d 3000 	ldrb.w	r3, [sp]
 80046ba:	ea4f 0393 	mov.w	r3, r3, lsr #2
 80046be:	b2db      	uxtb	r3, r3
 80046c0:	469c      	mov	ip, r3
 80046c2:	4a0e      	ldr	r2, [pc, #56]	(80046fc <GPIO_EXTILineConfig+0xa8>)
 80046c4:	f89d 3000 	ldrb.w	r3, [sp]
 80046c8:	ea4f 0393 	mov.w	r3, r3, lsr #2
 80046cc:	b2db      	uxtb	r3, r3
 80046ce:	f103 0302 	add.w	r3, r3, #2	; 0x2
 80046d2:	f852 1023 	ldr.w	r1, [r2, r3, lsl #2]
 80046d6:	f89d 2004 	ldrb.w	r2, [sp, #4]
 80046da:	f89d 3000 	ldrb.w	r3, [sp]
 80046de:	f003 0303 	and.w	r3, r3, #3	; 0x3
 80046e2:	ea4f 0383 	mov.w	r3, r3, lsl #2
 80046e6:	fa02 f303 	lsl.w	r3, r2, r3
 80046ea:	ea41 0203 	orr.w	r2, r1, r3
 80046ee:	f10c 0302 	add.w	r3, ip, #2	; 0x2
 80046f2:	f840 2023 	str.w	r2, [r0, r3, lsl #2]
 80046f6:	b003      	add	sp, #12
 80046f8:	4770      	bx	lr
 80046fa:	46c0      	nop			(mov r8, r8)
 80046fc:	40010000 	.word	0x40010000

08004700 <USART_DeInit>:
 8004700:	b500      	push	{lr}
 8004702:	b082      	sub	sp, #8
 8004704:	9001      	str	r0, [sp, #4]
 8004706:	ab01      	add	r3, sp, #4
 8004708:	681b      	ldr	r3, [r3, #0]
 800470a:	9300      	str	r3, [sp, #0]
 800470c:	4b2d      	ldr	r3, [pc, #180]	(80047c4 <USART_DeInit+0xc4>)
 800470e:	9a00      	ldr	r2, [sp, #0]
 8004710:	429a      	cmp	r2, r3
 8004712:	d03b      	beq.n	800478c <USART_DeInit+0x8c>
 8004714:	4b2b      	ldr	r3, [pc, #172]	(80047c4 <USART_DeInit+0xc4>)
 8004716:	9a00      	ldr	r2, [sp, #0]
 8004718:	429a      	cmp	r2, r3
 800471a:	d808      	bhi.n	800472e <USART_DeInit+0x2e>
 800471c:	4b2a      	ldr	r3, [pc, #168]	(80047c8 <USART_DeInit+0xc8>)
 800471e:	9a00      	ldr	r2, [sp, #0]
 8004720:	429a      	cmp	r2, r3
 8004722:	d019      	beq.n	8004758 <USART_DeInit+0x58>
 8004724:	4b29      	ldr	r3, [pc, #164]	(80047cc <USART_DeInit+0xcc>)
 8004726:	9a00      	ldr	r2, [sp, #0]
 8004728:	429a      	cmp	r2, r3
 800472a:	d022      	beq.n	8004772 <USART_DeInit+0x72>
 800472c:	e047      	b.n	80047be <USART_DeInit+0xbe>
 800472e:	4b28      	ldr	r3, [pc, #160]	(80047d0 <USART_DeInit+0xd0>)
 8004730:	9a00      	ldr	r2, [sp, #0]
 8004732:	429a      	cmp	r2, r3
 8004734:	d037      	beq.n	80047a6 <USART_DeInit+0xa6>
 8004736:	4b27      	ldr	r3, [pc, #156]	(80047d4 <USART_DeInit+0xd4>)
 8004738:	9a00      	ldr	r2, [sp, #0]
 800473a:	429a      	cmp	r2, r3
 800473c:	d13f      	bne.n	80047be <USART_DeInit+0xbe>
 800473e:	f44f 4080 	mov.w	r0, #16384	; 0x4000
 8004742:	f04f 0101 	mov.w	r1, #1	; 0x1
 8004746:	f7fe fea1 	bl	800348c <RCC_APB2PeriphResetCmd>
 800474a:	f44f 4080 	mov.w	r0, #16384	; 0x4000
 800474e:	f04f 0100 	mov.w	r1, #0	; 0x0
 8004752:	f7fe fe9b 	bl	800348c <RCC_APB2PeriphResetCmd>
 8004756:	e032      	b.n	80047be <USART_DeInit+0xbe>
 8004758:	f44f 3000 	mov.w	r0, #131072	; 0x20000
 800475c:	f04f 0101 	mov.w	r1, #1	; 0x1
 8004760:	f7fe feb0 	bl	80034c4 <RCC_APB1PeriphResetCmd>
 8004764:	f44f 3000 	mov.w	r0, #131072	; 0x20000
 8004768:	f04f 0100 	mov.w	r1, #0	; 0x0
 800476c:	f7fe feaa 	bl	80034c4 <RCC_APB1PeriphResetCmd>
 8004770:	e025      	b.n	80047be <USART_DeInit+0xbe>
 8004772:	f44f 2080 	mov.w	r0, #262144	; 0x40000
 8004776:	f04f 0101 	mov.w	r1, #1	; 0x1
 800477a:	f7fe fea3 	bl	80034c4 <RCC_APB1PeriphResetCmd>
 800477e:	f44f 2080 	mov.w	r0, #262144	; 0x40000
 8004782:	f04f 0100 	mov.w	r1, #0	; 0x0
 8004786:	f7fe fe9d 	bl	80034c4 <RCC_APB1PeriphResetCmd>
 800478a:	e018      	b.n	80047be <USART_DeInit+0xbe>
 800478c:	f44f 2000 	mov.w	r0, #524288	; 0x80000
 8004790:	f04f 0101 	mov.w	r1, #1	; 0x1
 8004794:	f7fe fe96 	bl	80034c4 <RCC_APB1PeriphResetCmd>
 8004798:	f44f 2000 	mov.w	r0, #524288	; 0x80000
 800479c:	f04f 0100 	mov.w	r1, #0	; 0x0
 80047a0:	f7fe fe90 	bl	80034c4 <RCC_APB1PeriphResetCmd>
 80047a4:	e00b      	b.n	80047be <USART_DeInit+0xbe>
 80047a6:	f44f 1080 	mov.w	r0, #1048576	; 0x100000
 80047aa:	f04f 0101 	mov.w	r1, #1	; 0x1
 80047ae:	f7fe fe89 	bl	80034c4 <RCC_APB1PeriphResetCmd>
 80047b2:	f44f 1080 	mov.w	r0, #1048576	; 0x100000
 80047b6:	f04f 0100 	mov.w	r1, #0	; 0x0
 80047ba:	f7fe fe83 	bl	80034c4 <RCC_APB1PeriphResetCmd>
 80047be:	b002      	add	sp, #8
 80047c0:	bd00      	pop	{pc}
 80047c2:	46c0      	nop			(mov r8, r8)
 80047c4:	40004c00 	.word	0x40004c00
 80047c8:	40004400 	.word	0x40004400
 80047cc:	40004800 	.word	0x40004800
 80047d0:	40005000 	.word	0x40005000
 80047d4:	40013800 	.word	0x40013800

080047d8 <USART_Init>:
 80047d8:	b500      	push	{lr}
 80047da:	b08c      	sub	sp, #48
 80047dc:	9001      	str	r0, [sp, #4]
 80047de:	9100      	str	r1, [sp, #0]
 80047e0:	f04f 0300 	mov.w	r3, #0	; 0x0
 80047e4:	9307      	str	r3, [sp, #28]
 80047e6:	f04f 0300 	mov.w	r3, #0	; 0x0
 80047ea:	9308      	str	r3, [sp, #32]
 80047ec:	f04f 0300 	mov.w	r3, #0	; 0x0
 80047f0:	9309      	str	r3, [sp, #36]
 80047f2:	f04f 0300 	mov.w	r3, #0	; 0x0
 80047f6:	930a      	str	r3, [sp, #40]
 80047f8:	f04f 0300 	mov.w	r3, #0	; 0x0
 80047fc:	930b      	str	r3, [sp, #44]
 80047fe:	ab01      	add	r3, sp, #4
 8004800:	681b      	ldr	r3, [r3, #0]
 8004802:	930b      	str	r3, [sp, #44]
 8004804:	9b01      	ldr	r3, [sp, #4]
 8004806:	8a1b      	ldrh	r3, [r3, #16]
 8004808:	b29b      	uxth	r3, r3
 800480a:	9307      	str	r3, [sp, #28]
 800480c:	9a07      	ldr	r2, [sp, #28]
 800480e:	f64c 73ff 	movw	r3, #53247	; 0xcfff
 8004812:	ea02 0303 	and.w	r3, r2, r3
 8004816:	9307      	str	r3, [sp, #28]
 8004818:	9b00      	ldr	r3, [sp, #0]
 800481a:	88db      	ldrh	r3, [r3, #6]
 800481c:	461a      	mov	r2, r3
 800481e:	9b07      	ldr	r3, [sp, #28]
 8004820:	ea43 0302 	orr.w	r3, r3, r2
 8004824:	9307      	str	r3, [sp, #28]
 8004826:	9a01      	ldr	r2, [sp, #4]
 8004828:	9b07      	ldr	r3, [sp, #28]
 800482a:	b29b      	uxth	r3, r3
 800482c:	8213      	strh	r3, [r2, #16]
 800482e:	9b01      	ldr	r3, [sp, #4]
 8004830:	899b      	ldrh	r3, [r3, #12]
 8004832:	b29b      	uxth	r3, r3
 8004834:	9307      	str	r3, [sp, #28]
 8004836:	9a07      	ldr	r2, [sp, #28]
 8004838:	f64e 13f3 	movw	r3, #59891	; 0xe9f3
 800483c:	ea02 0303 	and.w	r3, r2, r3
 8004840:	9307      	str	r3, [sp, #28]
 8004842:	9b00      	ldr	r3, [sp, #0]
 8004844:	889a      	ldrh	r2, [r3, #4]
 8004846:	9b00      	ldr	r3, [sp, #0]
 8004848:	891b      	ldrh	r3, [r3, #8]
 800484a:	ea42 0303 	orr.w	r3, r2, r3
 800484e:	b29a      	uxth	r2, r3
 8004850:	9b00      	ldr	r3, [sp, #0]
 8004852:	895b      	ldrh	r3, [r3, #10]
 8004854:	ea42 0303 	orr.w	r3, r2, r3
 8004858:	b29b      	uxth	r3, r3
 800485a:	461a      	mov	r2, r3
 800485c:	9b07      	ldr	r3, [sp, #28]
 800485e:	ea43 0302 	orr.w	r3, r3, r2
 8004862:	9307      	str	r3, [sp, #28]
 8004864:	9a01      	ldr	r2, [sp, #4]
 8004866:	9b07      	ldr	r3, [sp, #28]
 8004868:	b29b      	uxth	r3, r3
 800486a:	8193      	strh	r3, [r2, #12]
 800486c:	9b01      	ldr	r3, [sp, #4]
 800486e:	8a9b      	ldrh	r3, [r3, #20]
 8004870:	b29b      	uxth	r3, r3
 8004872:	9307      	str	r3, [sp, #28]
 8004874:	9a07      	ldr	r2, [sp, #28]
 8004876:	f64f 43ff 	movw	r3, #64767	; 0xfcff
 800487a:	ea02 0303 	and.w	r3, r2, r3
 800487e:	9307      	str	r3, [sp, #28]
 8004880:	9b00      	ldr	r3, [sp, #0]
 8004882:	899b      	ldrh	r3, [r3, #12]
 8004884:	461a      	mov	r2, r3
 8004886:	9b07      	ldr	r3, [sp, #28]
 8004888:	ea43 0302 	orr.w	r3, r3, r2
 800488c:	9307      	str	r3, [sp, #28]
 800488e:	9a01      	ldr	r2, [sp, #4]
 8004890:	9b07      	ldr	r3, [sp, #28]
 8004892:	b29b      	uxth	r3, r3
 8004894:	8293      	strh	r3, [r2, #20]
 8004896:	ab02      	add	r3, sp, #8
 8004898:	4618      	mov	r0, r3
 800489a:	f7fe fceb 	bl	8003274 <RCC_GetClocksFreq>
 800489e:	9a0b      	ldr	r2, [sp, #44]
 80048a0:	4b23      	ldr	r3, [pc, #140]	(8004930 <USART_Init+0x158>)
 80048a2:	429a      	cmp	r2, r3
 80048a4:	d102      	bne.n	80048ac <USART_Init+0xd4>
 80048a6:	9b05      	ldr	r3, [sp, #20]
 80048a8:	9308      	str	r3, [sp, #32]
 80048aa:	e001      	b.n	80048b0 <USART_Init+0xd8>
 80048ac:	9b04      	ldr	r3, [sp, #16]
 80048ae:	9308      	str	r3, [sp, #32]
 80048b0:	9908      	ldr	r1, [sp, #32]
 80048b2:	460b      	mov	r3, r1
 80048b4:	ea4f 02c3 	mov.w	r2, r3, lsl #3
 80048b8:	ea4f 0382 	mov.w	r3, r2, lsl #2
 80048bc:	ebc2 0303 	rsb	r3, r2, r3
 80048c0:	eb03 0201 	add.w	r2, r3, r1
 80048c4:	9b00      	ldr	r3, [sp, #0]
 80048c6:	681b      	ldr	r3, [r3, #0]
 80048c8:	ea4f 0383 	mov.w	r3, r3, lsl #2
 80048cc:	fbb2 f3f3 	udiv	r3, r2, r3
 80048d0:	9309      	str	r3, [sp, #36]
 80048d2:	9a09      	ldr	r2, [sp, #36]
 80048d4:	4b17      	ldr	r3, [pc, #92]	(8004934 <USART_Init+0x15c>)
 80048d6:	fba3 1302 	umull	r1, r3, r3, r2
 80048da:	ea4f 1353 	mov.w	r3, r3, lsr #5
 80048de:	ea4f 1303 	mov.w	r3, r3, lsl #4
 80048e2:	9307      	str	r3, [sp, #28]
 80048e4:	9b07      	ldr	r3, [sp, #28]
 80048e6:	ea4f 1313 	mov.w	r3, r3, lsr #4
 80048ea:	ea4f 0383 	mov.w	r3, r3, lsl #2
 80048ee:	ea4f 0283 	mov.w	r2, r3, lsl #2
 80048f2:	4413      	add	r3, r2
 80048f4:	ea4f 0283 	mov.w	r2, r3, lsl #2
 80048f8:	441a      	add	r2, r3
 80048fa:	9b09      	ldr	r3, [sp, #36]
 80048fc:	ebc2 0303 	rsb	r3, r2, r3
 8004900:	930a      	str	r3, [sp, #40]
 8004902:	9b0a      	ldr	r3, [sp, #40]
 8004904:	ea4f 1303 	mov.w	r3, r3, lsl #4
 8004908:	f103 0232 	add.w	r2, r3, #50	; 0x32
 800490c:	4b09      	ldr	r3, [pc, #36]	(8004934 <USART_Init+0x15c>)
 800490e:	fba3 1302 	umull	r1, r3, r3, r2
 8004912:	ea4f 1353 	mov.w	r3, r3, lsr #5
 8004916:	f003 020f 	and.w	r2, r3, #15	; 0xf
 800491a:	9b07      	ldr	r3, [sp, #28]
 800491c:	ea43 0302 	orr.w	r3, r3, r2
 8004920:	9307      	str	r3, [sp, #28]
 8004922:	9a01      	ldr	r2, [sp, #4]
 8004924:	9b07      	ldr	r3, [sp, #28]
 8004926:	b29b      	uxth	r3, r3
 8004928:	8113      	strh	r3, [r2, #8]
 800492a:	b00c      	add	sp, #48
 800492c:	bd00      	pop	{pc}
 800492e:	46c0      	nop			(mov r8, r8)
 8004930:	40013800 	.word	0x40013800
 8004934:	51eb851f 	.word	0x51eb851f

08004938 <USART_StructInit>:
 8004938:	b081      	sub	sp, #4
 800493a:	9000      	str	r0, [sp, #0]
 800493c:	9a00      	ldr	r2, [sp, #0]
 800493e:	f44f 5316 	mov.w	r3, #9600	; 0x2580
 8004942:	6013      	str	r3, [r2, #0]
 8004944:	9a00      	ldr	r2, [sp, #0]
 8004946:	f04f 0300 	mov.w	r3, #0	; 0x0
 800494a:	8093      	strh	r3, [r2, #4]
 800494c:	9a00      	ldr	r2, [sp, #0]
 800494e:	f04f 0300 	mov.w	r3, #0	; 0x0
 8004952:	80d3      	strh	r3, [r2, #6]
 8004954:	9a00      	ldr	r2, [sp, #0]
 8004956:	f04f 0300 	mov.w	r3, #0	; 0x0
 800495a:	8113      	strh	r3, [r2, #8]
 800495c:	9a00      	ldr	r2, [sp, #0]
 800495e:	f04f 030c 	mov.w	r3, #12	; 0xc
 8004962:	8153      	strh	r3, [r2, #10]
 8004964:	9a00      	ldr	r2, [sp, #0]
 8004966:	f04f 0300 	mov.w	r3, #0	; 0x0
 800496a:	8193      	strh	r3, [r2, #12]
 800496c:	b001      	add	sp, #4
 800496e:	4770      	bx	lr

08004970 <USART_ClockInit>:
 8004970:	b083      	sub	sp, #12
 8004972:	9001      	str	r0, [sp, #4]
 8004974:	9100      	str	r1, [sp, #0]
 8004976:	f04f 0300 	mov.w	r3, #0	; 0x0
 800497a:	9302      	str	r3, [sp, #8]
 800497c:	9b01      	ldr	r3, [sp, #4]
 800497e:	8a1b      	ldrh	r3, [r3, #16]
 8004980:	b29b      	uxth	r3, r3
 8004982:	9302      	str	r3, [sp, #8]
 8004984:	9a02      	ldr	r2, [sp, #8]
 8004986:	f24f 03ff 	movw	r3, #61695	; 0xf0ff
 800498a:	ea02 0303 	and.w	r3, r2, r3
 800498e:	9302      	str	r3, [sp, #8]
 8004990:	9b00      	ldr	r3, [sp, #0]
 8004992:	881a      	ldrh	r2, [r3, #0]
 8004994:	9b00      	ldr	r3, [sp, #0]
 8004996:	885b      	ldrh	r3, [r3, #2]
 8004998:	ea42 0303 	orr.w	r3, r2, r3
 800499c:	b29a      	uxth	r2, r3
 800499e:	9b00      	ldr	r3, [sp, #0]
 80049a0:	889b      	ldrh	r3, [r3, #4]
 80049a2:	ea42 0303 	orr.w	r3, r2, r3
 80049a6:	b29a      	uxth	r2, r3
 80049a8:	9b00      	ldr	r3, [sp, #0]
 80049aa:	88db      	ldrh	r3, [r3, #6]
 80049ac:	ea42 0303 	orr.w	r3, r2, r3
 80049b0:	b29b      	uxth	r3, r3
 80049b2:	461a      	mov	r2, r3
 80049b4:	9b02      	ldr	r3, [sp, #8]
 80049b6:	ea43 0302 	orr.w	r3, r3, r2
 80049ba:	9302      	str	r3, [sp, #8]
 80049bc:	9b02      	ldr	r3, [sp, #8]
 80049be:	b29b      	uxth	r3, r3
 80049c0:	9a01      	ldr	r2, [sp, #4]
 80049c2:	8213      	strh	r3, [r2, #16]
 80049c4:	b003      	add	sp, #12
 80049c6:	4770      	bx	lr

080049c8 <USART_ClockStructInit>:
 80049c8:	b081      	sub	sp, #4
 80049ca:	9000      	str	r0, [sp, #0]
 80049cc:	9a00      	ldr	r2, [sp, #0]
 80049ce:	f04f 0300 	mov.w	r3, #0	; 0x0
 80049d2:	8013      	strh	r3, [r2, #0]
 80049d4:	9a00      	ldr	r2, [sp, #0]
 80049d6:	f04f 0300 	mov.w	r3, #0	; 0x0
 80049da:	8053      	strh	r3, [r2, #2]
 80049dc:	9a00      	ldr	r2, [sp, #0]
 80049de:	f04f 0300 	mov.w	r3, #0	; 0x0
 80049e2:	8093      	strh	r3, [r2, #4]
 80049e4:	9a00      	ldr	r2, [sp, #0]
 80049e6:	f04f 0300 	mov.w	r3, #0	; 0x0
 80049ea:	80d3      	strh	r3, [r2, #6]
 80049ec:	b001      	add	sp, #4
 80049ee:	4770      	bx	lr

080049f0 <USART_Cmd>:
 80049f0:	b083      	sub	sp, #12
 80049f2:	9002      	str	r0, [sp, #8]
 80049f4:	9101      	str	r1, [sp, #4]
 80049f6:	9b01      	ldr	r3, [sp, #4]
 80049f8:	2b00      	cmp	r3, #0
 80049fa:	d008      	beq.n	8004a0e <USART_Cmd+0x1e>
 80049fc:	9b02      	ldr	r3, [sp, #8]
 80049fe:	899b      	ldrh	r3, [r3, #12]
 8004a00:	b29b      	uxth	r3, r3
 8004a02:	f443 5300 	orr.w	r3, r3, #8192	; 0x2000
 8004a06:	b29b      	uxth	r3, r3
 8004a08:	9a02      	ldr	r2, [sp, #8]
 8004a0a:	8193      	strh	r3, [r2, #12]
 8004a0c:	e00d      	b.n	8004a2a <USART_Cmd+0x3a>
 8004a0e:	9b02      	ldr	r3, [sp, #8]
 8004a10:	899b      	ldrh	r3, [r3, #12]
 8004a12:	b29b      	uxth	r3, r3
 8004a14:	9300      	str	r3, [sp, #0]
 8004a16:	f64d 73ff 	movw	r3, #57343	; 0xdfff
 8004a1a:	9900      	ldr	r1, [sp, #0]
 8004a1c:	ea01 0303 	and.w	r3, r1, r3
 8004a20:	9300      	str	r3, [sp, #0]
 8004a22:	9a02      	ldr	r2, [sp, #8]
 8004a24:	9900      	ldr	r1, [sp, #0]
 8004a26:	460b      	mov	r3, r1
 8004a28:	8193      	strh	r3, [r2, #12]
 8004a2a:	b003      	add	sp, #12
 8004a2c:	4770      	bx	lr
 8004a2e:	46c0      	nop			(mov r8, r8)

08004a30 <USART_ITConfig>:
 8004a30:	b087      	sub	sp, #28
 8004a32:	9002      	str	r0, [sp, #8]
 8004a34:	460b      	mov	r3, r1
 8004a36:	9200      	str	r2, [sp, #0]
 8004a38:	f8ad 3004 	strh.w	r3, [sp, #4]
 8004a3c:	f04f 0300 	mov.w	r3, #0	; 0x0
 8004a40:	9303      	str	r3, [sp, #12]
 8004a42:	f04f 0300 	mov.w	r3, #0	; 0x0
 8004a46:	9304      	str	r3, [sp, #16]
 8004a48:	f04f 0300 	mov.w	r3, #0	; 0x0
 8004a4c:	9305      	str	r3, [sp, #20]
 8004a4e:	f04f 0300 	mov.w	r3, #0	; 0x0
 8004a52:	9306      	str	r3, [sp, #24]
 8004a54:	ab02      	add	r3, sp, #8
 8004a56:	681b      	ldr	r3, [r3, #0]
 8004a58:	9306      	str	r3, [sp, #24]
 8004a5a:	f8bd 3004 	ldrh.w	r3, [sp, #4]
 8004a5e:	b2db      	uxtb	r3, r3
 8004a60:	ea4f 1353 	mov.w	r3, r3, lsr #5
 8004a64:	b2db      	uxtb	r3, r3
 8004a66:	9303      	str	r3, [sp, #12]
 8004a68:	f8bd 3004 	ldrh.w	r3, [sp, #4]
 8004a6c:	f003 031f 	and.w	r3, r3, #31	; 0x1f
 8004a70:	9304      	str	r3, [sp, #16]
 8004a72:	9a04      	ldr	r2, [sp, #16]
 8004a74:	f04f 0301 	mov.w	r3, #1	; 0x1
 8004a78:	fa03 f302 	lsl.w	r3, r3, r2
 8004a7c:	9305      	str	r3, [sp, #20]
 8004a7e:	9b03      	ldr	r3, [sp, #12]
 8004a80:	2b01      	cmp	r3, #1
 8004a82:	d104      	bne.n	8004a8e <USART_ITConfig+0x5e>
 8004a84:	9b06      	ldr	r3, [sp, #24]
 8004a86:	f103 030c 	add.w	r3, r3, #12	; 0xc
 8004a8a:	9306      	str	r3, [sp, #24]
 8004a8c:	e00b      	b.n	8004aa6 <USART_ITConfig+0x76>
 8004a8e:	9b03      	ldr	r3, [sp, #12]
 8004a90:	2b02      	cmp	r3, #2
 8004a92:	d104      	bne.n	8004a9e <USART_ITConfig+0x6e>
 8004a94:	9b06      	ldr	r3, [sp, #24]
 8004a96:	f103 0310 	add.w	r3, r3, #16	; 0x10
 8004a9a:	9306      	str	r3, [sp, #24]
 8004a9c:	e003      	b.n	8004aa6 <USART_ITConfig+0x76>
 8004a9e:	9b06      	ldr	r3, [sp, #24]
 8004aa0:	f103 0314 	add.w	r3, r3, #20	; 0x14
 8004aa4:	9306      	str	r3, [sp, #24]
 8004aa6:	9b00      	ldr	r3, [sp, #0]
 8004aa8:	2b00      	cmp	r3, #0
 8004aaa:	d007      	beq.n	8004abc <USART_ITConfig+0x8c>
 8004aac:	9906      	ldr	r1, [sp, #24]
 8004aae:	9b06      	ldr	r3, [sp, #24]
 8004ab0:	681a      	ldr	r2, [r3, #0]
 8004ab2:	9b05      	ldr	r3, [sp, #20]
 8004ab4:	ea42 0303 	orr.w	r3, r2, r3
 8004ab8:	600b      	str	r3, [r1, #0]
 8004aba:	e008      	b.n	8004ace <USART_ITConfig+0x9e>
 8004abc:	9906      	ldr	r1, [sp, #24]
 8004abe:	9b06      	ldr	r3, [sp, #24]
 8004ac0:	681a      	ldr	r2, [r3, #0]
 8004ac2:	9b05      	ldr	r3, [sp, #20]
 8004ac4:	ea6f 0303 	mvn.w	r3, r3
 8004ac8:	ea02 0303 	and.w	r3, r2, r3
 8004acc:	600b      	str	r3, [r1, #0]
 8004ace:	b007      	add	sp, #28
 8004ad0:	4770      	bx	lr
 8004ad2:	46c0      	nop			(mov r8, r8)

08004ad4 <USART_DMACmd>:
 8004ad4:	b083      	sub	sp, #12
 8004ad6:	9002      	str	r0, [sp, #8]
 8004ad8:	460b      	mov	r3, r1
 8004ada:	9200      	str	r2, [sp, #0]
 8004adc:	f8ad 3004 	strh.w	r3, [sp, #4]
 8004ae0:	9b00      	ldr	r3, [sp, #0]
 8004ae2:	2b00      	cmp	r3, #0
 8004ae4:	d00a      	beq.n	8004afc <USART_DMACmd+0x28>
 8004ae6:	9b02      	ldr	r3, [sp, #8]
 8004ae8:	8a9b      	ldrh	r3, [r3, #20]
 8004aea:	b29a      	uxth	r2, r3
 8004aec:	f8bd 3004 	ldrh.w	r3, [sp, #4]
 8004af0:	ea42 0303 	orr.w	r3, r2, r3
 8004af4:	b29b      	uxth	r3, r3
 8004af6:	9a02      	ldr	r2, [sp, #8]
 8004af8:	8293      	strh	r3, [r2, #20]
 8004afa:	e00c      	b.n	8004b16 <USART_DMACmd+0x42>
 8004afc:	9b02      	ldr	r3, [sp, #8]
 8004afe:	8a9b      	ldrh	r3, [r3, #20]
 8004b00:	b29a      	uxth	r2, r3
 8004b02:	f8bd 3004 	ldrh.w	r3, [sp, #4]
 8004b06:	ea6f 0303 	mvn.w	r3, r3
 8004b0a:	b29b      	uxth	r3, r3
 8004b0c:	ea02 0303 	and.w	r3, r2, r3
 8004b10:	b29b      	uxth	r3, r3
 8004b12:	9a02      	ldr	r2, [sp, #8]
 8004b14:	8293      	strh	r3, [r2, #20]
 8004b16:	b003      	add	sp, #12
 8004b18:	4770      	bx	lr
 8004b1a:	46c0      	nop			(mov r8, r8)

08004b1c <USART_SetAddress>:
 8004b1c:	b083      	sub	sp, #12
 8004b1e:	9002      	str	r0, [sp, #8]
 8004b20:	460b      	mov	r3, r1
 8004b22:	f88d 3004 	strb.w	r3, [sp, #4]
 8004b26:	9b02      	ldr	r3, [sp, #8]
 8004b28:	8a1b      	ldrh	r3, [r3, #16]
 8004b2a:	b29b      	uxth	r3, r3
 8004b2c:	9300      	str	r3, [sp, #0]
 8004b2e:	f64f 73f0 	movw	r3, #65520	; 0xfff0
 8004b32:	9900      	ldr	r1, [sp, #0]
 8004b34:	ea01 0303 	and.w	r3, r1, r3
 8004b38:	9300      	str	r3, [sp, #0]
 8004b3a:	9a02      	ldr	r2, [sp, #8]
 8004b3c:	9900      	ldr	r1, [sp, #0]
 8004b3e:	460b      	mov	r3, r1
 8004b40:	8213      	strh	r3, [r2, #16]
 8004b42:	9b02      	ldr	r3, [sp, #8]
 8004b44:	8a1b      	ldrh	r3, [r3, #16]
 8004b46:	b29a      	uxth	r2, r3
 8004b48:	f89d 3004 	ldrb.w	r3, [sp, #4]
 8004b4c:	ea42 0303 	orr.w	r3, r2, r3
 8004b50:	b29b      	uxth	r3, r3
 8004b52:	9a02      	ldr	r2, [sp, #8]
 8004b54:	8213      	strh	r3, [r2, #16]
 8004b56:	b003      	add	sp, #12
 8004b58:	4770      	bx	lr
 8004b5a:	46c0      	nop			(mov r8, r8)

08004b5c <USART_WakeUpConfig>:
 8004b5c:	b083      	sub	sp, #12
 8004b5e:	9002      	str	r0, [sp, #8]
 8004b60:	460b      	mov	r3, r1
 8004b62:	f8ad 3004 	strh.w	r3, [sp, #4]
 8004b66:	9b02      	ldr	r3, [sp, #8]
 8004b68:	899b      	ldrh	r3, [r3, #12]
 8004b6a:	b29b      	uxth	r3, r3
 8004b6c:	9300      	str	r3, [sp, #0]
 8004b6e:	f24f 73ff 	movw	r3, #63487	; 0xf7ff
 8004b72:	9900      	ldr	r1, [sp, #0]
 8004b74:	ea01 0303 	and.w	r3, r1, r3
 8004b78:	9300      	str	r3, [sp, #0]
 8004b7a:	9a02      	ldr	r2, [sp, #8]
 8004b7c:	9900      	ldr	r1, [sp, #0]
 8004b7e:	460b      	mov	r3, r1
 8004b80:	8193      	strh	r3, [r2, #12]
 8004b82:	9b02      	ldr	r3, [sp, #8]
 8004b84:	899b      	ldrh	r3, [r3, #12]
 8004b86:	b29a      	uxth	r2, r3
 8004b88:	f8bd 3004 	ldrh.w	r3, [sp, #4]
 8004b8c:	ea42 0303 	orr.w	r3, r2, r3
 8004b90:	b29b      	uxth	r3, r3
 8004b92:	9a02      	ldr	r2, [sp, #8]
 8004b94:	8193      	strh	r3, [r2, #12]
 8004b96:	b003      	add	sp, #12
 8004b98:	4770      	bx	lr
 8004b9a:	46c0      	nop			(mov r8, r8)

08004b9c <USART_ReceiverWakeUpCmd>:
 8004b9c:	b083      	sub	sp, #12
 8004b9e:	9002      	str	r0, [sp, #8]
 8004ba0:	9101      	str	r1, [sp, #4]
 8004ba2:	9b01      	ldr	r3, [sp, #4]
 8004ba4:	2b00      	cmp	r3, #0
 8004ba6:	d008      	beq.n	8004bba <USART_ReceiverWakeUpCmd+0x1e>
 8004ba8:	9b02      	ldr	r3, [sp, #8]
 8004baa:	899b      	ldrh	r3, [r3, #12]
 8004bac:	b29b      	uxth	r3, r3
 8004bae:	f043 0302 	orr.w	r3, r3, #2	; 0x2
 8004bb2:	b29b      	uxth	r3, r3
 8004bb4:	9a02      	ldr	r2, [sp, #8]
 8004bb6:	8193      	strh	r3, [r2, #12]
 8004bb8:	e00d      	b.n	8004bd6 <USART_ReceiverWakeUpCmd+0x3a>
 8004bba:	9b02      	ldr	r3, [sp, #8]
 8004bbc:	899b      	ldrh	r3, [r3, #12]
 8004bbe:	b29b      	uxth	r3, r3
 8004bc0:	9300      	str	r3, [sp, #0]
 8004bc2:	f64f 73fd 	movw	r3, #65533	; 0xfffd
 8004bc6:	9900      	ldr	r1, [sp, #0]
 8004bc8:	ea01 0303 	and.w	r3, r1, r3
 8004bcc:	9300      	str	r3, [sp, #0]
 8004bce:	9a02      	ldr	r2, [sp, #8]
 8004bd0:	9900      	ldr	r1, [sp, #0]
 8004bd2:	460b      	mov	r3, r1
 8004bd4:	8193      	strh	r3, [r2, #12]
 8004bd6:	b003      	add	sp, #12
 8004bd8:	4770      	bx	lr
 8004bda:	46c0      	nop			(mov r8, r8)

08004bdc <USART_LINBreakDetectLengthConfig>:
 8004bdc:	b083      	sub	sp, #12
 8004bde:	9002      	str	r0, [sp, #8]
 8004be0:	460b      	mov	r3, r1
 8004be2:	f8ad 3004 	strh.w	r3, [sp, #4]
 8004be6:	9b02      	ldr	r3, [sp, #8]
 8004be8:	8a1b      	ldrh	r3, [r3, #16]
 8004bea:	b29b      	uxth	r3, r3
 8004bec:	9300      	str	r3, [sp, #0]
 8004bee:	f64f 73df 	movw	r3, #65503	; 0xffdf
 8004bf2:	9900      	ldr	r1, [sp, #0]
 8004bf4:	ea01 0303 	and.w	r3, r1, r3
 8004bf8:	9300      	str	r3, [sp, #0]
 8004bfa:	9a02      	ldr	r2, [sp, #8]
 8004bfc:	9900      	ldr	r1, [sp, #0]
 8004bfe:	460b      	mov	r3, r1
 8004c00:	8213      	strh	r3, [r2, #16]
 8004c02:	9b02      	ldr	r3, [sp, #8]
 8004c04:	8a1b      	ldrh	r3, [r3, #16]
 8004c06:	b29a      	uxth	r2, r3
 8004c08:	f8bd 3004 	ldrh.w	r3, [sp, #4]
 8004c0c:	ea42 0303 	orr.w	r3, r2, r3
 8004c10:	b29b      	uxth	r3, r3
 8004c12:	9a02      	ldr	r2, [sp, #8]
 8004c14:	8213      	strh	r3, [r2, #16]
 8004c16:	b003      	add	sp, #12
 8004c18:	4770      	bx	lr
 8004c1a:	46c0      	nop			(mov r8, r8)

08004c1c <USART_LINCmd>:
 8004c1c:	b083      	sub	sp, #12
 8004c1e:	9002      	str	r0, [sp, #8]
 8004c20:	9101      	str	r1, [sp, #4]
 8004c22:	9b01      	ldr	r3, [sp, #4]
 8004c24:	2b00      	cmp	r3, #0
 8004c26:	d008      	beq.n	8004c3a <USART_LINCmd+0x1e>
 8004c28:	9b02      	ldr	r3, [sp, #8]
 8004c2a:	8a1b      	ldrh	r3, [r3, #16]
 8004c2c:	b29b      	uxth	r3, r3
 8004c2e:	f443 4380 	orr.w	r3, r3, #16384	; 0x4000
 8004c32:	b29b      	uxth	r3, r3
 8004c34:	9a02      	ldr	r2, [sp, #8]
 8004c36:	8213      	strh	r3, [r2, #16]
 8004c38:	e00d      	b.n	8004c56 <USART_LINCmd+0x3a>
 8004c3a:	9b02      	ldr	r3, [sp, #8]
 8004c3c:	8a1b      	ldrh	r3, [r3, #16]
 8004c3e:	b29b      	uxth	r3, r3
 8004c40:	9300      	str	r3, [sp, #0]
 8004c42:	f64b 73ff 	movw	r3, #49151	; 0xbfff
 8004c46:	9900      	ldr	r1, [sp, #0]
 8004c48:	ea01 0303 	and.w	r3, r1, r3
 8004c4c:	9300      	str	r3, [sp, #0]
 8004c4e:	9a02      	ldr	r2, [sp, #8]
 8004c50:	9900      	ldr	r1, [sp, #0]
 8004c52:	460b      	mov	r3, r1
 8004c54:	8213      	strh	r3, [r2, #16]
 8004c56:	b003      	add	sp, #12
 8004c58:	4770      	bx	lr
 8004c5a:	46c0      	nop			(mov r8, r8)

08004c5c <USART_SendData>:
 8004c5c:	b083      	sub	sp, #12
 8004c5e:	9002      	str	r0, [sp, #8]
 8004c60:	460b      	mov	r3, r1
 8004c62:	f8ad 3004 	strh.w	r3, [sp, #4]
 8004c66:	f8bd 1004 	ldrh.w	r1, [sp, #4]
 8004c6a:	9100      	str	r1, [sp, #0]
 8004c6c:	9a00      	ldr	r2, [sp, #0]
 8004c6e:	ea4f 53c2 	mov.w	r3, r2, lsl #23
 8004c72:	ea4f 53d3 	mov.w	r3, r3, lsr #23
 8004c76:	9300      	str	r3, [sp, #0]
 8004c78:	9a02      	ldr	r2, [sp, #8]
 8004c7a:	9900      	ldr	r1, [sp, #0]
 8004c7c:	460b      	mov	r3, r1
 8004c7e:	8093      	strh	r3, [r2, #4]
 8004c80:	b003      	add	sp, #12
 8004c82:	4770      	bx	lr

08004c84 <USART_ReceiveData>:
 8004c84:	b082      	sub	sp, #8
 8004c86:	9001      	str	r0, [sp, #4]
 8004c88:	9b01      	ldr	r3, [sp, #4]
 8004c8a:	889b      	ldrh	r3, [r3, #4]
 8004c8c:	b29b      	uxth	r3, r3
 8004c8e:	9300      	str	r3, [sp, #0]
 8004c90:	9a00      	ldr	r2, [sp, #0]
 8004c92:	ea4f 53c2 	mov.w	r3, r2, lsl #23
 8004c96:	ea4f 53d3 	mov.w	r3, r3, lsr #23
 8004c9a:	9300      	str	r3, [sp, #0]
 8004c9c:	9b00      	ldr	r3, [sp, #0]
 8004c9e:	4618      	mov	r0, r3
 8004ca0:	b002      	add	sp, #8
 8004ca2:	4770      	bx	lr

08004ca4 <USART_SendBreak>:
 8004ca4:	b081      	sub	sp, #4
 8004ca6:	9000      	str	r0, [sp, #0]
 8004ca8:	9b00      	ldr	r3, [sp, #0]
 8004caa:	899b      	ldrh	r3, [r3, #12]
 8004cac:	b29b      	uxth	r3, r3
 8004cae:	f043 0301 	orr.w	r3, r3, #1	; 0x1
 8004cb2:	b29b      	uxth	r3, r3
 8004cb4:	9a00      	ldr	r2, [sp, #0]
 8004cb6:	8193      	strh	r3, [r2, #12]
 8004cb8:	b001      	add	sp, #4
 8004cba:	4770      	bx	lr

08004cbc <USART_SetGuardTime>:
 8004cbc:	b082      	sub	sp, #8
 8004cbe:	9001      	str	r0, [sp, #4]
 8004cc0:	460b      	mov	r3, r1
 8004cc2:	f88d 3000 	strb.w	r3, [sp]
 8004cc6:	9b01      	ldr	r3, [sp, #4]
 8004cc8:	8b1b      	ldrh	r3, [r3, #24]
 8004cca:	b29b      	uxth	r3, r3
 8004ccc:	f003 03ff 	and.w	r3, r3, #255	; 0xff
 8004cd0:	9a01      	ldr	r2, [sp, #4]
 8004cd2:	8313      	strh	r3, [r2, #24]
 8004cd4:	9b01      	ldr	r3, [sp, #4]
 8004cd6:	8b1b      	ldrh	r3, [r3, #24]
 8004cd8:	b29a      	uxth	r2, r3
 8004cda:	f89d 3000 	ldrb.w	r3, [sp]
 8004cde:	ea4f 2303 	mov.w	r3, r3, lsl #8
 8004ce2:	b29b      	uxth	r3, r3
 8004ce4:	ea42 0303 	orr.w	r3, r2, r3
 8004ce8:	b29b      	uxth	r3, r3
 8004cea:	9a01      	ldr	r2, [sp, #4]
 8004cec:	8313      	strh	r3, [r2, #24]
 8004cee:	b002      	add	sp, #8
 8004cf0:	4770      	bx	lr
 8004cf2:	46c0      	nop			(mov r8, r8)

08004cf4 <USART_SetPrescaler>:
 8004cf4:	b082      	sub	sp, #8
 8004cf6:	9001      	str	r0, [sp, #4]
 8004cf8:	460b      	mov	r3, r1
 8004cfa:	f88d 3000 	strb.w	r3, [sp]
 8004cfe:	9b01      	ldr	r3, [sp, #4]
 8004d00:	8b1b      	ldrh	r3, [r3, #24]
 8004d02:	b29b      	uxth	r3, r3
 8004d04:	f403 437f 	and.w	r3, r3, #65280	; 0xff00
 8004d08:	9a01      	ldr	r2, [sp, #4]
 8004d0a:	8313      	strh	r3, [r2, #24]
 8004d0c:	9b01      	ldr	r3, [sp, #4]
 8004d0e:	8b1b      	ldrh	r3, [r3, #24]
 8004d10:	b29a      	uxth	r2, r3
 8004d12:	f89d 3000 	ldrb.w	r3, [sp]
 8004d16:	ea42 0303 	orr.w	r3, r2, r3
 8004d1a:	b29b      	uxth	r3, r3
 8004d1c:	9a01      	ldr	r2, [sp, #4]
 8004d1e:	8313      	strh	r3, [r2, #24]
 8004d20:	b002      	add	sp, #8
 8004d22:	4770      	bx	lr

08004d24 <USART_SmartCardCmd>:
 8004d24:	b083      	sub	sp, #12
 8004d26:	9002      	str	r0, [sp, #8]
 8004d28:	9101      	str	r1, [sp, #4]
 8004d2a:	9b01      	ldr	r3, [sp, #4]
 8004d2c:	2b00      	cmp	r3, #0
 8004d2e:	d008      	beq.n	8004d42 <USART_SmartCardCmd+0x1e>
 8004d30:	9b02      	ldr	r3, [sp, #8]
 8004d32:	8a9b      	ldrh	r3, [r3, #20]
 8004d34:	b29b      	uxth	r3, r3
 8004d36:	f043 0320 	orr.w	r3, r3, #32	; 0x20
 8004d3a:	b29b      	uxth	r3, r3
 8004d3c:	9a02      	ldr	r2, [sp, #8]
 8004d3e:	8293      	strh	r3, [r2, #20]
 8004d40:	e00d      	b.n	8004d5e <USART_SmartCardCmd+0x3a>
 8004d42:	9b02      	ldr	r3, [sp, #8]
 8004d44:	8a9b      	ldrh	r3, [r3, #20]
 8004d46:	b29b      	uxth	r3, r3
 8004d48:	9300      	str	r3, [sp, #0]
 8004d4a:	f64f 73df 	movw	r3, #65503	; 0xffdf
 8004d4e:	9900      	ldr	r1, [sp, #0]
 8004d50:	ea01 0303 	and.w	r3, r1, r3
 8004d54:	9300      	str	r3, [sp, #0]
 8004d56:	9a02      	ldr	r2, [sp, #8]
 8004d58:	9900      	ldr	r1, [sp, #0]
 8004d5a:	460b      	mov	r3, r1
 8004d5c:	8293      	strh	r3, [r2, #20]
 8004d5e:	b003      	add	sp, #12
 8004d60:	4770      	bx	lr
 8004d62:	46c0      	nop			(mov r8, r8)

08004d64 <USART_SmartCardNACKCmd>:
 8004d64:	b083      	sub	sp, #12
 8004d66:	9002      	str	r0, [sp, #8]
 8004d68:	9101      	str	r1, [sp, #4]
 8004d6a:	9b01      	ldr	r3, [sp, #4]
 8004d6c:	2b00      	cmp	r3, #0
 8004d6e:	d008      	beq.n	8004d82 <USART_SmartCardNACKCmd+0x1e>
 8004d70:	9b02      	ldr	r3, [sp, #8]
 8004d72:	8a9b      	ldrh	r3, [r3, #20]
 8004d74:	b29b      	uxth	r3, r3
 8004d76:	f043 0310 	orr.w	r3, r3, #16	; 0x10
 8004d7a:	b29b      	uxth	r3, r3
 8004d7c:	9a02      	ldr	r2, [sp, #8]
 8004d7e:	8293      	strh	r3, [r2, #20]
 8004d80:	e00d      	b.n	8004d9e <USART_SmartCardNACKCmd+0x3a>
 8004d82:	9b02      	ldr	r3, [sp, #8]
 8004d84:	8a9b      	ldrh	r3, [r3, #20]
 8004d86:	b29b      	uxth	r3, r3
 8004d88:	9300      	str	r3, [sp, #0]
 8004d8a:	f64f 73ef 	movw	r3, #65519	; 0xffef
 8004d8e:	9900      	ldr	r1, [sp, #0]
 8004d90:	ea01 0303 	and.w	r3, r1, r3
 8004d94:	9300      	str	r3, [sp, #0]
 8004d96:	9a02      	ldr	r2, [sp, #8]
 8004d98:	9900      	ldr	r1, [sp, #0]
 8004d9a:	460b      	mov	r3, r1
 8004d9c:	8293      	strh	r3, [r2, #20]
 8004d9e:	b003      	add	sp, #12
 8004da0:	4770      	bx	lr
 8004da2:	46c0      	nop			(mov r8, r8)

08004da4 <USART_HalfDuplexCmd>:
 8004da4:	b083      	sub	sp, #12
 8004da6:	9002      	str	r0, [sp, #8]
 8004da8:	9101      	str	r1, [sp, #4]
 8004daa:	9b01      	ldr	r3, [sp, #4]
 8004dac:	2b00      	cmp	r3, #0
 8004dae:	d008      	beq.n	8004dc2 <USART_HalfDuplexCmd+0x1e>
 8004db0:	9b02      	ldr	r3, [sp, #8]
 8004db2:	8a9b      	ldrh	r3, [r3, #20]
 8004db4:	b29b      	uxth	r3, r3
 8004db6:	f043 0308 	orr.w	r3, r3, #8	; 0x8
 8004dba:	b29b      	uxth	r3, r3
 8004dbc:	9a02      	ldr	r2, [sp, #8]
 8004dbe:	8293      	strh	r3, [r2, #20]
 8004dc0:	e00d      	b.n	8004dde <USART_HalfDuplexCmd+0x3a>
 8004dc2:	9b02      	ldr	r3, [sp, #8]
 8004dc4:	8a9b      	ldrh	r3, [r3, #20]
 8004dc6:	b29b      	uxth	r3, r3
 8004dc8:	9300      	str	r3, [sp, #0]
 8004dca:	f64f 73f7 	movw	r3, #65527	; 0xfff7
 8004dce:	9900      	ldr	r1, [sp, #0]
 8004dd0:	ea01 0303 	and.w	r3, r1, r3
 8004dd4:	9300      	str	r3, [sp, #0]
 8004dd6:	9a02      	ldr	r2, [sp, #8]
 8004dd8:	9900      	ldr	r1, [sp, #0]
 8004dda:	460b      	mov	r3, r1
 8004ddc:	8293      	strh	r3, [r2, #20]
 8004dde:	b003      	add	sp, #12
 8004de0:	4770      	bx	lr
 8004de2:	46c0      	nop			(mov r8, r8)

08004de4 <USART_IrDAConfig>:
 8004de4:	b083      	sub	sp, #12
 8004de6:	9002      	str	r0, [sp, #8]
 8004de8:	460b      	mov	r3, r1
 8004dea:	f8ad 3004 	strh.w	r3, [sp, #4]
 8004dee:	9b02      	ldr	r3, [sp, #8]
 8004df0:	8a9b      	ldrh	r3, [r3, #20]
 8004df2:	b29b      	uxth	r3, r3
 8004df4:	9300      	str	r3, [sp, #0]
 8004df6:	f64f 73fb 	movw	r3, #65531	; 0xfffb
 8004dfa:	9900      	ldr	r1, [sp, #0]
 8004dfc:	ea01 0303 	and.w	r3, r1, r3
 8004e00:	9300      	str	r3, [sp, #0]
 8004e02:	9a02      	ldr	r2, [sp, #8]
 8004e04:	9900      	ldr	r1, [sp, #0]
 8004e06:	460b      	mov	r3, r1
 8004e08:	8293      	strh	r3, [r2, #20]
 8004e0a:	9b02      	ldr	r3, [sp, #8]
 8004e0c:	8a9b      	ldrh	r3, [r3, #20]
 8004e0e:	b29a      	uxth	r2, r3
 8004e10:	f8bd 3004 	ldrh.w	r3, [sp, #4]
 8004e14:	ea42 0303 	orr.w	r3, r2, r3
 8004e18:	b29b      	uxth	r3, r3
 8004e1a:	9a02      	ldr	r2, [sp, #8]
 8004e1c:	8293      	strh	r3, [r2, #20]
 8004e1e:	b003      	add	sp, #12
 8004e20:	4770      	bx	lr
 8004e22:	46c0      	nop			(mov r8, r8)

08004e24 <USART_IrDACmd>:
 8004e24:	b083      	sub	sp, #12
 8004e26:	9002      	str	r0, [sp, #8]
 8004e28:	9101      	str	r1, [sp, #4]
 8004e2a:	9b01      	ldr	r3, [sp, #4]
 8004e2c:	2b00      	cmp	r3, #0
 8004e2e:	d008      	beq.n	8004e42 <USART_IrDACmd+0x1e>
 8004e30:	9b02      	ldr	r3, [sp, #8]
 8004e32:	8a9b      	ldrh	r3, [r3, #20]
 8004e34:	b29b      	uxth	r3, r3
 8004e36:	f043 0302 	orr.w	r3, r3, #2	; 0x2
 8004e3a:	b29b      	uxth	r3, r3
 8004e3c:	9a02      	ldr	r2, [sp, #8]
 8004e3e:	8293      	strh	r3, [r2, #20]
 8004e40:	e00d      	b.n	8004e5e <USART_IrDACmd+0x3a>
 8004e42:	9b02      	ldr	r3, [sp, #8]
 8004e44:	8a9b      	ldrh	r3, [r3, #20]
 8004e46:	b29b      	uxth	r3, r3
 8004e48:	9300      	str	r3, [sp, #0]
 8004e4a:	f64f 73fd 	movw	r3, #65533	; 0xfffd
 8004e4e:	9900      	ldr	r1, [sp, #0]
 8004e50:	ea01 0303 	and.w	r3, r1, r3
 8004e54:	9300      	str	r3, [sp, #0]
 8004e56:	9a02      	ldr	r2, [sp, #8]
 8004e58:	9900      	ldr	r1, [sp, #0]
 8004e5a:	460b      	mov	r3, r1
 8004e5c:	8293      	strh	r3, [r2, #20]
 8004e5e:	b003      	add	sp, #12
 8004e60:	4770      	bx	lr
 8004e62:	46c0      	nop			(mov r8, r8)

08004e64 <USART_GetFlagStatus>:
 8004e64:	b083      	sub	sp, #12
 8004e66:	9001      	str	r0, [sp, #4]
 8004e68:	460b      	mov	r3, r1
 8004e6a:	f8ad 3000 	strh.w	r3, [sp]
 8004e6e:	f04f 0300 	mov.w	r3, #0	; 0x0
 8004e72:	9302      	str	r3, [sp, #8]
 8004e74:	9b01      	ldr	r3, [sp, #4]
 8004e76:	881b      	ldrh	r3, [r3, #0]
 8004e78:	b29a      	uxth	r2, r3
 8004e7a:	f8bd 3000 	ldrh.w	r3, [sp]
 8004e7e:	ea02 0303 	and.w	r3, r2, r3
 8004e82:	b29b      	uxth	r3, r3
 8004e84:	2b00      	cmp	r3, #0
 8004e86:	d003      	beq.n	8004e90 <USART_GetFlagStatus+0x2c>
 8004e88:	f04f 0301 	mov.w	r3, #1	; 0x1
 8004e8c:	9302      	str	r3, [sp, #8]
 8004e8e:	e002      	b.n	8004e96 <USART_GetFlagStatus+0x32>
 8004e90:	f04f 0300 	mov.w	r3, #0	; 0x0
 8004e94:	9302      	str	r3, [sp, #8]
 8004e96:	9b02      	ldr	r3, [sp, #8]
 8004e98:	4618      	mov	r0, r3
 8004e9a:	b003      	add	sp, #12
 8004e9c:	4770      	bx	lr
 8004e9e:	46c0      	nop			(mov r8, r8)

08004ea0 <USART_ClearFlag>:
 8004ea0:	b082      	sub	sp, #8
 8004ea2:	9001      	str	r0, [sp, #4]
 8004ea4:	460b      	mov	r3, r1
 8004ea6:	f8ad 3000 	strh.w	r3, [sp]
 8004eaa:	f8bd 3000 	ldrh.w	r3, [sp]
 8004eae:	ea6f 0303 	mvn.w	r3, r3
 8004eb2:	b29b      	uxth	r3, r3
 8004eb4:	9a01      	ldr	r2, [sp, #4]
 8004eb6:	8013      	strh	r3, [r2, #0]
 8004eb8:	b002      	add	sp, #8
 8004eba:	4770      	bx	lr

08004ebc <USART_GetITStatus>:
 8004ebc:	b086      	sub	sp, #24
 8004ebe:	9001      	str	r0, [sp, #4]
 8004ec0:	460b      	mov	r3, r1
 8004ec2:	f8ad 3000 	strh.w	r3, [sp]
 8004ec6:	f04f 0300 	mov.w	r3, #0	; 0x0
 8004eca:	9302      	str	r3, [sp, #8]
 8004ecc:	f04f 0300 	mov.w	r3, #0	; 0x0
 8004ed0:	9303      	str	r3, [sp, #12]
 8004ed2:	f04f 0300 	mov.w	r3, #0	; 0x0
 8004ed6:	9304      	str	r3, [sp, #16]
 8004ed8:	f04f 0300 	mov.w	r3, #0	; 0x0
 8004edc:	9305      	str	r3, [sp, #20]
 8004ede:	f8bd 3000 	ldrh.w	r3, [sp]
 8004ee2:	b2db      	uxtb	r3, r3
 8004ee4:	ea4f 1353 	mov.w	r3, r3, lsr #5
 8004ee8:	b2db      	uxtb	r3, r3
 8004eea:	9304      	str	r3, [sp, #16]
 8004eec:	f8bd 3000 	ldrh.w	r3, [sp]
 8004ef0:	f003 031f 	and.w	r3, r3, #31	; 0x1f
 8004ef4:	9303      	str	r3, [sp, #12]
 8004ef6:	9a03      	ldr	r2, [sp, #12]
 8004ef8:	f04f 0301 	mov.w	r3, #1	; 0x1
 8004efc:	fa03 f302 	lsl.w	r3, r3, r2
 8004f00:	9303      	str	r3, [sp, #12]
 8004f02:	9b04      	ldr	r3, [sp, #16]
 8004f04:	2b01      	cmp	r3, #1
 8004f06:	d108      	bne.n	8004f1a <USART_GetITStatus+0x5e>
 8004f08:	9b01      	ldr	r3, [sp, #4]
 8004f0a:	899b      	ldrh	r3, [r3, #12]
 8004f0c:	b29b      	uxth	r3, r3
 8004f0e:	461a      	mov	r2, r3
 8004f10:	9b03      	ldr	r3, [sp, #12]
 8004f12:	ea03 0302 	and.w	r3, r3, r2
 8004f16:	9303      	str	r3, [sp, #12]
 8004f18:	e013      	b.n	8004f42 <USART_GetITStatus+0x86>
 8004f1a:	9b04      	ldr	r3, [sp, #16]
 8004f1c:	2b02      	cmp	r3, #2
 8004f1e:	d108      	bne.n	8004f32 <USART_GetITStatus+0x76>
 8004f20:	9b01      	ldr	r3, [sp, #4]
 8004f22:	8a1b      	ldrh	r3, [r3, #16]
 8004f24:	b29b      	uxth	r3, r3
 8004f26:	461a      	mov	r2, r3
 8004f28:	9b03      	ldr	r3, [sp, #12]
 8004f2a:	ea03 0302 	and.w	r3, r3, r2
 8004f2e:	9303      	str	r3, [sp, #12]
 8004f30:	e007      	b.n	8004f42 <USART_GetITStatus+0x86>
 8004f32:	9b01      	ldr	r3, [sp, #4]
 8004f34:	8a9b      	ldrh	r3, [r3, #20]
 8004f36:	b29b      	uxth	r3, r3
 8004f38:	461a      	mov	r2, r3
 8004f3a:	9b03      	ldr	r3, [sp, #12]
 8004f3c:	ea03 0302 	and.w	r3, r3, r2
 8004f40:	9303      	str	r3, [sp, #12]
 8004f42:	f8bd 3000 	ldrh.w	r3, [sp]
 8004f46:	ea4f 2313 	mov.w	r3, r3, lsr #8
 8004f4a:	b29b      	uxth	r3, r3
 8004f4c:	9302      	str	r3, [sp, #8]
 8004f4e:	9a02      	ldr	r2, [sp, #8]
 8004f50:	f04f 0301 	mov.w	r3, #1	; 0x1
 8004f54:	fa03 f302 	lsl.w	r3, r3, r2
 8004f58:	9302      	str	r3, [sp, #8]
 8004f5a:	9b01      	ldr	r3, [sp, #4]
 8004f5c:	881b      	ldrh	r3, [r3, #0]
 8004f5e:	b29b      	uxth	r3, r3
 8004f60:	461a      	mov	r2, r3
 8004f62:	9b02      	ldr	r3, [sp, #8]
 8004f64:	ea03 0302 	and.w	r3, r3, r2
 8004f68:	9302      	str	r3, [sp, #8]
 8004f6a:	9b03      	ldr	r3, [sp, #12]
 8004f6c:	2b00      	cmp	r3, #0
 8004f6e:	d006      	beq.n	8004f7e <USART_GetITStatus+0xc2>
 8004f70:	9b02      	ldr	r3, [sp, #8]
 8004f72:	2b00      	cmp	r3, #0
 8004f74:	d003      	beq.n	8004f7e <USART_GetITStatus+0xc2>
 8004f76:	f04f 0301 	mov.w	r3, #1	; 0x1
 8004f7a:	9305      	str	r3, [sp, #20]
 8004f7c:	e002      	b.n	8004f84 <USART_GetITStatus+0xc8>
 8004f7e:	f04f 0300 	mov.w	r3, #0	; 0x0
 8004f82:	9305      	str	r3, [sp, #20]
 8004f84:	9b05      	ldr	r3, [sp, #20]
 8004f86:	4618      	mov	r0, r3
 8004f88:	b006      	add	sp, #24
 8004f8a:	4770      	bx	lr

08004f8c <USART_ClearITPendingBit>:
 8004f8c:	b083      	sub	sp, #12
 8004f8e:	9001      	str	r0, [sp, #4]
 8004f90:	460b      	mov	r3, r1
 8004f92:	f8ad 3000 	strh.w	r3, [sp]
 8004f96:	f04f 0300 	mov.w	r3, #0	; 0x0
 8004f9a:	f8ad 3008 	strh.w	r3, [sp, #8]
 8004f9e:	f04f 0300 	mov.w	r3, #0	; 0x0
 8004fa2:	f8ad 300a 	strh.w	r3, [sp, #10]
 8004fa6:	f8bd 3000 	ldrh.w	r3, [sp]
 8004faa:	ea4f 2313 	mov.w	r3, r3, lsr #8
 8004fae:	f8ad 3008 	strh.w	r3, [sp, #8]
 8004fb2:	f8bd 2008 	ldrh.w	r2, [sp, #8]
 8004fb6:	f04f 0301 	mov.w	r3, #1	; 0x1
 8004fba:	fa03 f302 	lsl.w	r3, r3, r2
 8004fbe:	f8ad 300a 	strh.w	r3, [sp, #10]
 8004fc2:	f8bd 300a 	ldrh.w	r3, [sp, #10]
 8004fc6:	ea6f 0303 	mvn.w	r3, r3
 8004fca:	b29b      	uxth	r3, r3
 8004fcc:	9a01      	ldr	r2, [sp, #4]
 8004fce:	8013      	strh	r3, [r2, #0]
 8004fd0:	b003      	add	sp, #12
 8004fd2:	4770      	bx	lr

08004fd4 <EXTI_DeInit>:
 8004fd4:	4a09      	ldr	r2, [pc, #36]	(8004ffc <EXTI_DeInit+0x28>)
 8004fd6:	f04f 0300 	mov.w	r3, #0	; 0x0
 8004fda:	6013      	str	r3, [r2, #0]
 8004fdc:	4a07      	ldr	r2, [pc, #28]	(8004ffc <EXTI_DeInit+0x28>)
 8004fde:	f04f 0300 	mov.w	r3, #0	; 0x0
 8004fe2:	6053      	str	r3, [r2, #4]
 8004fe4:	4a05      	ldr	r2, [pc, #20]	(8004ffc <EXTI_DeInit+0x28>)
 8004fe6:	f04f 0300 	mov.w	r3, #0	; 0x0
 8004fea:	6093      	str	r3, [r2, #8]
 8004fec:	4a03      	ldr	r2, [pc, #12]	(8004ffc <EXTI_DeInit+0x28>)
 8004fee:	f04f 0300 	mov.w	r3, #0	; 0x0
 8004ff2:	60d3      	str	r3, [r2, #12]
 8004ff4:	4a01      	ldr	r2, [pc, #4]	(8004ffc <EXTI_DeInit+0x28>)
 8004ff6:	4b02      	ldr	r3, [pc, #8]	(8005000 <EXTI_DeInit+0x2c>)
 8004ff8:	6153      	str	r3, [r2, #20]
 8004ffa:	4770      	bx	lr
 8004ffc:	40010400 	.word	0x40010400
 8005000:	0007ffff 	.word	0x0007ffff

08005004 <EXTI_Init>:
 8005004:	b081      	sub	sp, #4
 8005006:	9000      	str	r0, [sp, #0]
 8005008:	9b00      	ldr	r3, [sp, #0]
 800500a:	68db      	ldr	r3, [r3, #12]
 800500c:	2b00      	cmp	r3, #0
 800500e:	d063      	beq.n	80050d8 <EXTI_Init+0xd4>
 8005010:	493d      	ldr	r1, [pc, #244]	(8005108 <EXTI_Init+0x104>)
 8005012:	4b3d      	ldr	r3, [pc, #244]	(8005108 <EXTI_Init+0x104>)
 8005014:	681a      	ldr	r2, [r3, #0]
 8005016:	9b00      	ldr	r3, [sp, #0]
 8005018:	681b      	ldr	r3, [r3, #0]
 800501a:	ea6f 0303 	mvn.w	r3, r3
 800501e:	ea02 0303 	and.w	r3, r2, r3
 8005022:	600b      	str	r3, [r1, #0]
 8005024:	4938      	ldr	r1, [pc, #224]	(8005108 <EXTI_Init+0x104>)
 8005026:	4b38      	ldr	r3, [pc, #224]	(8005108 <EXTI_Init+0x104>)
 8005028:	685a      	ldr	r2, [r3, #4]
 800502a:	9b00      	ldr	r3, [sp, #0]
 800502c:	681b      	ldr	r3, [r3, #0]
 800502e:	ea6f 0303 	mvn.w	r3, r3
 8005032:	ea02 0303 	and.w	r3, r2, r3
 8005036:	604b      	str	r3, [r1, #4]
 8005038:	9b00      	ldr	r3, [sp, #0]
 800503a:	685b      	ldr	r3, [r3, #4]
 800503c:	f103 4380 	add.w	r3, r3, #1073741824	; 0x40000000
 8005040:	f503 3382 	add.w	r3, r3, #66560	; 0x10400
 8005044:	4619      	mov	r1, r3
 8005046:	9b00      	ldr	r3, [sp, #0]
 8005048:	685b      	ldr	r3, [r3, #4]
 800504a:	f103 4380 	add.w	r3, r3, #1073741824	; 0x40000000
 800504e:	f503 3382 	add.w	r3, r3, #66560	; 0x10400
 8005052:	681a      	ldr	r2, [r3, #0]
 8005054:	9b00      	ldr	r3, [sp, #0]
 8005056:	681b      	ldr	r3, [r3, #0]
 8005058:	ea42 0303 	orr.w	r3, r2, r3
 800505c:	600b      	str	r3, [r1, #0]
 800505e:	492a      	ldr	r1, [pc, #168]	(8005108 <EXTI_Init+0x104>)
 8005060:	4b29      	ldr	r3, [pc, #164]	(8005108 <EXTI_Init+0x104>)
 8005062:	689a      	ldr	r2, [r3, #8]
 8005064:	9b00      	ldr	r3, [sp, #0]
 8005066:	681b      	ldr	r3, [r3, #0]
 8005068:	ea6f 0303 	mvn.w	r3, r3
 800506c:	ea02 0303 	and.w	r3, r2, r3
 8005070:	608b      	str	r3, [r1, #8]
 8005072:	4925      	ldr	r1, [pc, #148]	(8005108 <EXTI_Init+0x104>)
 8005074:	4b24      	ldr	r3, [pc, #144]	(8005108 <EXTI_Init+0x104>)
 8005076:	68da      	ldr	r2, [r3, #12]
 8005078:	9b00      	ldr	r3, [sp, #0]
 800507a:	681b      	ldr	r3, [r3, #0]
 800507c:	ea6f 0303 	mvn.w	r3, r3
 8005080:	ea02 0303 	and.w	r3, r2, r3
 8005084:	60cb      	str	r3, [r1, #12]
 8005086:	9b00      	ldr	r3, [sp, #0]
 8005088:	689b      	ldr	r3, [r3, #8]
 800508a:	2b10      	cmp	r3, #16
 800508c:	d110      	bne.n	80050b0 <EXTI_Init+0xac>
 800508e:	491e      	ldr	r1, [pc, #120]	(8005108 <EXTI_Init+0x104>)
 8005090:	4b1d      	ldr	r3, [pc, #116]	(8005108 <EXTI_Init+0x104>)
 8005092:	689a      	ldr	r2, [r3, #8]
 8005094:	9b00      	ldr	r3, [sp, #0]
 8005096:	681b      	ldr	r3, [r3, #0]
 8005098:	ea42 0303 	orr.w	r3, r2, r3
 800509c:	608b      	str	r3, [r1, #8]
 800509e:	491a      	ldr	r1, [pc, #104]	(8005108 <EXTI_Init+0x104>)
 80050a0:	4b19      	ldr	r3, [pc, #100]	(8005108 <EXTI_Init+0x104>)
 80050a2:	68da      	ldr	r2, [r3, #12]
 80050a4:	9b00      	ldr	r3, [sp, #0]
 80050a6:	681b      	ldr	r3, [r3, #0]
 80050a8:	ea42 0303 	orr.w	r3, r2, r3
 80050ac:	60cb      	str	r3, [r1, #12]
 80050ae:	e028      	b.n	8005102 <EXTI_Init+0xfe>
 80050b0:	9b00      	ldr	r3, [sp, #0]
 80050b2:	689b      	ldr	r3, [r3, #8]
 80050b4:	f103 4380 	add.w	r3, r3, #1073741824	; 0x40000000
 80050b8:	f503 3382 	add.w	r3, r3, #66560	; 0x10400
 80050bc:	4619      	mov	r1, r3
 80050be:	9b00      	ldr	r3, [sp, #0]
 80050c0:	689b      	ldr	r3, [r3, #8]
 80050c2:	f103 4380 	add.w	r3, r3, #1073741824	; 0x40000000
 80050c6:	f503 3382 	add.w	r3, r3, #66560	; 0x10400
 80050ca:	681a      	ldr	r2, [r3, #0]
 80050cc:	9b00      	ldr	r3, [sp, #0]
 80050ce:	681b      	ldr	r3, [r3, #0]
 80050d0:	ea42 0303 	orr.w	r3, r2, r3
 80050d4:	600b      	str	r3, [r1, #0]
 80050d6:	e014      	b.n	8005102 <EXTI_Init+0xfe>
 80050d8:	9b00      	ldr	r3, [sp, #0]
 80050da:	685b      	ldr	r3, [r3, #4]
 80050dc:	f103 4380 	add.w	r3, r3, #1073741824	; 0x40000000
 80050e0:	f503 3382 	add.w	r3, r3, #66560	; 0x10400
 80050e4:	4619      	mov	r1, r3
 80050e6:	9b00      	ldr	r3, [sp, #0]
 80050e8:	685b      	ldr	r3, [r3, #4]
 80050ea:	f103 4380 	add.w	r3, r3, #1073741824	; 0x40000000
 80050ee:	f503 3382 	add.w	r3, r3, #66560	; 0x10400
 80050f2:	681a      	ldr	r2, [r3, #0]
 80050f4:	9b00      	ldr	r3, [sp, #0]
 80050f6:	681b      	ldr	r3, [r3, #0]
 80050f8:	ea6f 0303 	mvn.w	r3, r3
 80050fc:	ea02 0303 	and.w	r3, r2, r3
 8005100:	600b      	str	r3, [r1, #0]
 8005102:	b001      	add	sp, #4
 8005104:	4770      	bx	lr
 8005106:	46c0      	nop			(mov r8, r8)
 8005108:	40010400 	.word	0x40010400

0800510c <EXTI_StructInit>:
 800510c:	b081      	sub	sp, #4
 800510e:	9000      	str	r0, [sp, #0]
 8005110:	9a00      	ldr	r2, [sp, #0]
 8005112:	f04f 0300 	mov.w	r3, #0	; 0x0
 8005116:	6013      	str	r3, [r2, #0]
 8005118:	9a00      	ldr	r2, [sp, #0]
 800511a:	f04f 0300 	mov.w	r3, #0	; 0x0
 800511e:	6053      	str	r3, [r2, #4]
 8005120:	9a00      	ldr	r2, [sp, #0]
 8005122:	f04f 030c 	mov.w	r3, #12	; 0xc
 8005126:	6093      	str	r3, [r2, #8]
 8005128:	9a00      	ldr	r2, [sp, #0]
 800512a:	f04f 0300 	mov.w	r3, #0	; 0x0
 800512e:	60d3      	str	r3, [r2, #12]
 8005130:	b001      	add	sp, #4
 8005132:	4770      	bx	lr

08005134 <EXTI_GenerateSWInterrupt>:
 8005134:	b081      	sub	sp, #4
 8005136:	9000      	str	r0, [sp, #0]
 8005138:	4904      	ldr	r1, [pc, #16]	(800514c <EXTI_GenerateSWInterrupt+0x18>)
 800513a:	4b04      	ldr	r3, [pc, #16]	(800514c <EXTI_GenerateSWInterrupt+0x18>)
 800513c:	691a      	ldr	r2, [r3, #16]
 800513e:	9b00      	ldr	r3, [sp, #0]
 8005140:	ea42 0303 	orr.w	r3, r2, r3
 8005144:	610b      	str	r3, [r1, #16]
 8005146:	b001      	add	sp, #4
 8005148:	4770      	bx	lr
 800514a:	46c0      	nop			(mov r8, r8)
 800514c:	40010400 	.word	0x40010400

08005150 <EXTI_GetFlagStatus>:
 8005150:	b082      	sub	sp, #8
 8005152:	9000      	str	r0, [sp, #0]
 8005154:	f04f 0300 	mov.w	r3, #0	; 0x0
 8005158:	9301      	str	r3, [sp, #4]
 800515a:	4b09      	ldr	r3, [pc, #36]	(8005180 <EXTI_GetFlagStatus+0x30>)
 800515c:	695a      	ldr	r2, [r3, #20]
 800515e:	9b00      	ldr	r3, [sp, #0]
 8005160:	ea02 0303 	and.w	r3, r2, r3
 8005164:	2b00      	cmp	r3, #0
 8005166:	d003      	beq.n	8005170 <EXTI_GetFlagStatus+0x20>
 8005168:	f04f 0301 	mov.w	r3, #1	; 0x1
 800516c:	9301      	str	r3, [sp, #4]
 800516e:	e002      	b.n	8005176 <EXTI_GetFlagStatus+0x26>
 8005170:	f04f 0300 	mov.w	r3, #0	; 0x0
 8005174:	9301      	str	r3, [sp, #4]
 8005176:	9b01      	ldr	r3, [sp, #4]
 8005178:	4618      	mov	r0, r3
 800517a:	b002      	add	sp, #8
 800517c:	4770      	bx	lr
 800517e:	46c0      	nop			(mov r8, r8)
 8005180:	40010400 	.word	0x40010400

08005184 <EXTI_ClearFlag>:
 8005184:	b081      	sub	sp, #4
 8005186:	9000      	str	r0, [sp, #0]
 8005188:	4a02      	ldr	r2, [pc, #8]	(8005194 <EXTI_ClearFlag+0x10>)
 800518a:	9b00      	ldr	r3, [sp, #0]
 800518c:	6153      	str	r3, [r2, #20]
 800518e:	b001      	add	sp, #4
 8005190:	4770      	bx	lr
 8005192:	46c0      	nop			(mov r8, r8)
 8005194:	40010400 	.word	0x40010400

08005198 <EXTI_GetITStatus>:
 8005198:	b083      	sub	sp, #12
 800519a:	9000      	str	r0, [sp, #0]
 800519c:	f04f 0300 	mov.w	r3, #0	; 0x0
 80051a0:	9301      	str	r3, [sp, #4]
 80051a2:	f04f 0300 	mov.w	r3, #0	; 0x0
 80051a6:	9302      	str	r3, [sp, #8]
 80051a8:	4b0d      	ldr	r3, [pc, #52]	(80051e0 <EXTI_GetITStatus+0x48>)
 80051aa:	681a      	ldr	r2, [r3, #0]
 80051ac:	9b00      	ldr	r3, [sp, #0]
 80051ae:	ea02 0303 	and.w	r3, r2, r3
 80051b2:	9302      	str	r3, [sp, #8]
 80051b4:	4b0a      	ldr	r3, [pc, #40]	(80051e0 <EXTI_GetITStatus+0x48>)
 80051b6:	695a      	ldr	r2, [r3, #20]
 80051b8:	9b00      	ldr	r3, [sp, #0]
 80051ba:	ea02 0303 	and.w	r3, r2, r3
 80051be:	2b00      	cmp	r3, #0
 80051c0:	d006      	beq.n	80051d0 <EXTI_GetITStatus+0x38>
 80051c2:	9b02      	ldr	r3, [sp, #8]
 80051c4:	2b00      	cmp	r3, #0
 80051c6:	d003      	beq.n	80051d0 <EXTI_GetITStatus+0x38>
 80051c8:	f04f 0301 	mov.w	r3, #1	; 0x1
 80051cc:	9301      	str	r3, [sp, #4]
 80051ce:	e002      	b.n	80051d6 <EXTI_GetITStatus+0x3e>
 80051d0:	f04f 0300 	mov.w	r3, #0	; 0x0
 80051d4:	9301      	str	r3, [sp, #4]
 80051d6:	9b01      	ldr	r3, [sp, #4]
 80051d8:	4618      	mov	r0, r3
 80051da:	b003      	add	sp, #12
 80051dc:	4770      	bx	lr
 80051de:	46c0      	nop			(mov r8, r8)
 80051e0:	40010400 	.word	0x40010400

080051e4 <EXTI_ClearITPendingBit>:
 80051e4:	b081      	sub	sp, #4
 80051e6:	9000      	str	r0, [sp, #0]
 80051e8:	4a02      	ldr	r2, [pc, #8]	(80051f4 <EXTI_ClearITPendingBit+0x10>)
 80051ea:	9b00      	ldr	r3, [sp, #0]
 80051ec:	6153      	str	r3, [r2, #20]
 80051ee:	b001      	add	sp, #4
 80051f0:	4770      	bx	lr
 80051f2:	46c0      	nop			(mov r8, r8)
 80051f4:	40010400 	.word	0x40010400

080051f8 <ADC_DeInit>:
 80051f8:	b500      	push	{lr}
 80051fa:	b082      	sub	sp, #8
 80051fc:	9001      	str	r0, [sp, #4]
 80051fe:	ab01      	add	r3, sp, #4
 8005200:	681b      	ldr	r3, [r3, #0]
 8005202:	9300      	str	r3, [sp, #0]
 8005204:	4b19      	ldr	r3, [pc, #100]	(800526c <ADC_DeInit+0x74>)
 8005206:	9a00      	ldr	r2, [sp, #0]
 8005208:	429a      	cmp	r2, r3
 800520a:	d014      	beq.n	8005236 <ADC_DeInit+0x3e>
 800520c:	4b18      	ldr	r3, [pc, #96]	(8005270 <ADC_DeInit+0x78>)
 800520e:	9a00      	ldr	r2, [sp, #0]
 8005210:	429a      	cmp	r2, r3
 8005212:	d01d      	beq.n	8005250 <ADC_DeInit+0x58>
 8005214:	4b17      	ldr	r3, [pc, #92]	(8005274 <ADC_DeInit+0x7c>)
 8005216:	9a00      	ldr	r2, [sp, #0]
 8005218:	429a      	cmp	r2, r3
 800521a:	d125      	bne.n	8005268 <ADC_DeInit+0x70>
 800521c:	f44f 7000 	mov.w	r0, #512	; 0x200
 8005220:	f04f 0101 	mov.w	r1, #1	; 0x1
 8005224:	f7fe f932 	bl	800348c <RCC_APB2PeriphResetCmd>
 8005228:	f44f 7000 	mov.w	r0, #512	; 0x200
 800522c:	f04f 0100 	mov.w	r1, #0	; 0x0
 8005230:	f7fe f92c 	bl	800348c <RCC_APB2PeriphResetCmd>
 8005234:	e018      	b.n	8005268 <ADC_DeInit+0x70>
 8005236:	f44f 6080 	mov.w	r0, #1024	; 0x400
 800523a:	f04f 0101 	mov.w	r1, #1	; 0x1
 800523e:	f7fe f925 	bl	800348c <RCC_APB2PeriphResetCmd>
 8005242:	f44f 6080 	mov.w	r0, #1024	; 0x400
 8005246:	f04f 0100 	mov.w	r1, #0	; 0x0
 800524a:	f7fe f91f 	bl	800348c <RCC_APB2PeriphResetCmd>
 800524e:	e00b      	b.n	8005268 <ADC_DeInit+0x70>
 8005250:	f44f 4000 	mov.w	r0, #32768	; 0x8000
 8005254:	f04f 0101 	mov.w	r1, #1	; 0x1
 8005258:	f7fe f918 	bl	800348c <RCC_APB2PeriphResetCmd>
 800525c:	f44f 4000 	mov.w	r0, #32768	; 0x8000
 8005260:	f04f 0100 	mov.w	r1, #0	; 0x0
 8005264:	f7fe f912 	bl	800348c <RCC_APB2PeriphResetCmd>
 8005268:	b002      	add	sp, #8
 800526a:	bd00      	pop	{pc}
 800526c:	40012800 	.word	0x40012800
 8005270:	40013c00 	.word	0x40013c00
 8005274:	40012400 	.word	0x40012400

08005278 <ADC_Init>:
 8005278:	b084      	sub	sp, #16
 800527a:	9001      	str	r0, [sp, #4]
 800527c:	9100      	str	r1, [sp, #0]
 800527e:	f04f 0300 	mov.w	r3, #0	; 0x0
 8005282:	9302      	str	r3, [sp, #8]
 8005284:	f04f 0300 	mov.w	r3, #0	; 0x0
 8005288:	f88d 300f 	strb.w	r3, [sp, #15]
 800528c:	9b01      	ldr	r3, [sp, #4]
 800528e:	685b      	ldr	r3, [r3, #4]
 8005290:	9302      	str	r3, [sp, #8]
 8005292:	9b02      	ldr	r3, [sp, #8]
 8005294:	f423 2370 	bic.w	r3, r3, #983040	; 0xf0000
 8005298:	f423 7380 	bic.w	r3, r3, #256	; 0x100
 800529c:	9302      	str	r3, [sp, #8]
 800529e:	9b00      	ldr	r3, [sp, #0]
 80052a0:	681a      	ldr	r2, [r3, #0]
 80052a2:	9b00      	ldr	r3, [sp, #0]
 80052a4:	685b      	ldr	r3, [r3, #4]
 80052a6:	ea4f 2303 	mov.w	r3, r3, lsl #8
 80052aa:	ea42 0203 	orr.w	r2, r2, r3
 80052ae:	9b02      	ldr	r3, [sp, #8]
 80052b0:	ea43 0302 	orr.w	r3, r3, r2
 80052b4:	9302      	str	r3, [sp, #8]
 80052b6:	9a01      	ldr	r2, [sp, #4]
 80052b8:	9b02      	ldr	r3, [sp, #8]
 80052ba:	6053      	str	r3, [r2, #4]
 80052bc:	9b01      	ldr	r3, [sp, #4]
 80052be:	689b      	ldr	r3, [r3, #8]
 80052c0:	9302      	str	r3, [sp, #8]
 80052c2:	9a02      	ldr	r2, [sp, #8]
 80052c4:	4b1c      	ldr	r3, [pc, #112]	(8005338 <ADC_Init+0xc0>)
 80052c6:	ea02 0303 	and.w	r3, r2, r3
 80052ca:	9302      	str	r3, [sp, #8]
 80052cc:	9b00      	ldr	r3, [sp, #0]
 80052ce:	691a      	ldr	r2, [r3, #16]
 80052d0:	9b00      	ldr	r3, [sp, #0]
 80052d2:	68db      	ldr	r3, [r3, #12]
 80052d4:	ea42 0203 	orr.w	r2, r2, r3
 80052d8:	9b00      	ldr	r3, [sp, #0]
 80052da:	689b      	ldr	r3, [r3, #8]
 80052dc:	ea4f 0343 	mov.w	r3, r3, lsl #1
 80052e0:	ea42 0203 	orr.w	r2, r2, r3
 80052e4:	9b02      	ldr	r3, [sp, #8]
 80052e6:	ea43 0302 	orr.w	r3, r3, r2
 80052ea:	9302      	str	r3, [sp, #8]
 80052ec:	9a01      	ldr	r2, [sp, #4]
 80052ee:	9b02      	ldr	r3, [sp, #8]
 80052f0:	6093      	str	r3, [r2, #8]
 80052f2:	9b01      	ldr	r3, [sp, #4]
 80052f4:	6adb      	ldr	r3, [r3, #44]
 80052f6:	9302      	str	r3, [sp, #8]
 80052f8:	9b02      	ldr	r3, [sp, #8]
 80052fa:	f423 0370 	bic.w	r3, r3, #15728640	; 0xf00000
 80052fe:	9302      	str	r3, [sp, #8]
 8005300:	9b00      	ldr	r3, [sp, #0]
 8005302:	7d1b      	ldrb	r3, [r3, #20]
 8005304:	f103 33ff 	add.w	r3, r3, #4294967295	; 0xffffffff
 8005308:	b2db      	uxtb	r3, r3
 800530a:	f89d 200f 	ldrb.w	r2, [sp, #15]
 800530e:	4619      	mov	r1, r3
 8005310:	4613      	mov	r3, r2
 8005312:	ea41 0303 	orr.w	r3, r1, r3
 8005316:	b2db      	uxtb	r3, r3
 8005318:	f88d 300f 	strb.w	r3, [sp, #15]
 800531c:	f89d 300f 	ldrb.w	r3, [sp, #15]
 8005320:	ea4f 5203 	mov.w	r2, r3, lsl #20
 8005324:	9b02      	ldr	r3, [sp, #8]
 8005326:	ea43 0302 	orr.w	r3, r3, r2
 800532a:	9302      	str	r3, [sp, #8]
 800532c:	9a01      	ldr	r2, [sp, #4]
 800532e:	9b02      	ldr	r3, [sp, #8]
 8005330:	62d3      	str	r3, [r2, #44]
 8005332:	b004      	add	sp, #16
 8005334:	4770      	bx	lr
 8005336:	46c0      	nop			(mov r8, r8)
 8005338:	fff1f7fd 	.word	0xfff1f7fd

0800533c <ADC_StructInit>:
 800533c:	b081      	sub	sp, #4
 800533e:	9000      	str	r0, [sp, #0]
 8005340:	9a00      	ldr	r2, [sp, #0]
 8005342:	f04f 0300 	mov.w	r3, #0	; 0x0
 8005346:	6013      	str	r3, [r2, #0]
 8005348:	9a00      	ldr	r2, [sp, #0]
 800534a:	f04f 0300 	mov.w	r3, #0	; 0x0
 800534e:	6053      	str	r3, [r2, #4]
 8005350:	9a00      	ldr	r2, [sp, #0]
 8005352:	f04f 0300 	mov.w	r3, #0	; 0x0
 8005356:	6093      	str	r3, [r2, #8]
 8005358:	9a00      	ldr	r2, [sp, #0]
 800535a:	f04f 0300 	mov.w	r3, #0	; 0x0
 800535e:	60d3      	str	r3, [r2, #12]
 8005360:	9a00      	ldr	r2, [sp, #0]
 8005362:	f04f 0300 	mov.w	r3, #0	; 0x0
 8005366:	6113      	str	r3, [r2, #16]
 8005368:	9a00      	ldr	r2, [sp, #0]
 800536a:	f04f 0301 	mov.w	r3, #1	; 0x1
 800536e:	7513      	strb	r3, [r2, #20]
 8005370:	b001      	add	sp, #4
 8005372:	4770      	bx	lr

08005374 <ADC_Cmd>:
 8005374:	b082      	sub	sp, #8
 8005376:	9001      	str	r0, [sp, #4]
 8005378:	9100      	str	r1, [sp, #0]
 800537a:	9b00      	ldr	r3, [sp, #0]
 800537c:	2b00      	cmp	r3, #0
 800537e:	d006      	beq.n	800538e <ADC_Cmd+0x1a>
 8005380:	9b01      	ldr	r3, [sp, #4]
 8005382:	689b      	ldr	r3, [r3, #8]
 8005384:	f043 0201 	orr.w	r2, r3, #1	; 0x1
 8005388:	9b01      	ldr	r3, [sp, #4]
 800538a:	609a      	str	r2, [r3, #8]
 800538c:	e005      	b.n	800539a <ADC_Cmd+0x26>
 800538e:	9b01      	ldr	r3, [sp, #4]
 8005390:	689b      	ldr	r3, [r3, #8]
 8005392:	f023 0201 	bic.w	r2, r3, #1	; 0x1
 8005396:	9b01      	ldr	r3, [sp, #4]
 8005398:	609a      	str	r2, [r3, #8]
 800539a:	b002      	add	sp, #8
 800539c:	4770      	bx	lr
 800539e:	46c0      	nop			(mov r8, r8)

080053a0 <ADC_DMACmd>:
 80053a0:	b082      	sub	sp, #8
 80053a2:	9001      	str	r0, [sp, #4]
 80053a4:	9100      	str	r1, [sp, #0]
 80053a6:	9b00      	ldr	r3, [sp, #0]
 80053a8:	2b00      	cmp	r3, #0
 80053aa:	d006      	beq.n	80053ba <ADC_DMACmd+0x1a>
 80053ac:	9b01      	ldr	r3, [sp, #4]
 80053ae:	689b      	ldr	r3, [r3, #8]
 80053b0:	f443 7280 	orr.w	r2, r3, #256	; 0x100
 80053b4:	9b01      	ldr	r3, [sp, #4]
 80053b6:	609a      	str	r2, [r3, #8]
 80053b8:	e005      	b.n	80053c6 <ADC_DMACmd+0x26>
 80053ba:	9b01      	ldr	r3, [sp, #4]
 80053bc:	689b      	ldr	r3, [r3, #8]
 80053be:	f423 7280 	bic.w	r2, r3, #256	; 0x100
 80053c2:	9b01      	ldr	r3, [sp, #4]
 80053c4:	609a      	str	r2, [r3, #8]
 80053c6:	b002      	add	sp, #8
 80053c8:	4770      	bx	lr
 80053ca:	46c0      	nop			(mov r8, r8)

080053cc <ADC_ITConfig>:
 80053cc:	b084      	sub	sp, #16
 80053ce:	9002      	str	r0, [sp, #8]
 80053d0:	460b      	mov	r3, r1
 80053d2:	9200      	str	r2, [sp, #0]
 80053d4:	f8ad 3004 	strh.w	r3, [sp, #4]
 80053d8:	f04f 0300 	mov.w	r3, #0	; 0x0
 80053dc:	f88d 300f 	strb.w	r3, [sp, #15]
 80053e0:	f8bd 3004 	ldrh.w	r3, [sp, #4]
 80053e4:	f88d 300f 	strb.w	r3, [sp, #15]
 80053e8:	9b00      	ldr	r3, [sp, #0]
 80053ea:	2b00      	cmp	r3, #0
 80053ec:	d008      	beq.n	8005400 <ADC_ITConfig+0x34>
 80053ee:	9b02      	ldr	r3, [sp, #8]
 80053f0:	685a      	ldr	r2, [r3, #4]
 80053f2:	f89d 300f 	ldrb.w	r3, [sp, #15]
 80053f6:	ea42 0203 	orr.w	r2, r2, r3
 80053fa:	9b02      	ldr	r3, [sp, #8]
 80053fc:	605a      	str	r2, [r3, #4]
 80053fe:	e009      	b.n	8005414 <ADC_ITConfig+0x48>
 8005400:	9b02      	ldr	r3, [sp, #8]
 8005402:	685a      	ldr	r2, [r3, #4]
 8005404:	f89d 300f 	ldrb.w	r3, [sp, #15]
 8005408:	ea6f 0303 	mvn.w	r3, r3
 800540c:	ea02 0203 	and.w	r2, r2, r3
 8005410:	9b02      	ldr	r3, [sp, #8]
 8005412:	605a      	str	r2, [r3, #4]
 8005414:	b004      	add	sp, #16
 8005416:	4770      	bx	lr

08005418 <ADC_ResetCalibration>:
 8005418:	b081      	sub	sp, #4
 800541a:	9000      	str	r0, [sp, #0]
 800541c:	9b00      	ldr	r3, [sp, #0]
 800541e:	689b      	ldr	r3, [r3, #8]
 8005420:	f043 0208 	orr.w	r2, r3, #8	; 0x8
 8005424:	9b00      	ldr	r3, [sp, #0]
 8005426:	609a      	str	r2, [r3, #8]
 8005428:	b001      	add	sp, #4
 800542a:	4770      	bx	lr

0800542c <ADC_GetResetCalibrationStatus>:
 800542c:	b082      	sub	sp, #8
 800542e:	9000      	str	r0, [sp, #0]
 8005430:	f04f 0300 	mov.w	r3, #0	; 0x0
 8005434:	9301      	str	r3, [sp, #4]
 8005436:	9b00      	ldr	r3, [sp, #0]
 8005438:	689b      	ldr	r3, [r3, #8]
 800543a:	f003 0308 	and.w	r3, r3, #8	; 0x8
 800543e:	2b00      	cmp	r3, #0
 8005440:	d003      	beq.n	800544a <ADC_GetResetCalibrationStatus+0x1e>
 8005442:	f04f 0301 	mov.w	r3, #1	; 0x1
 8005446:	9301      	str	r3, [sp, #4]
 8005448:	e002      	b.n	8005450 <ADC_GetResetCalibrationStatus+0x24>
 800544a:	f04f 0300 	mov.w	r3, #0	; 0x0
 800544e:	9301      	str	r3, [sp, #4]
 8005450:	9b01      	ldr	r3, [sp, #4]
 8005452:	4618      	mov	r0, r3
 8005454:	b002      	add	sp, #8
 8005456:	4770      	bx	lr

08005458 <ADC_StartCalibration>:
 8005458:	b081      	sub	sp, #4
 800545a:	9000      	str	r0, [sp, #0]
 800545c:	9b00      	ldr	r3, [sp, #0]
 800545e:	689b      	ldr	r3, [r3, #8]
 8005460:	f043 0204 	orr.w	r2, r3, #4	; 0x4
 8005464:	9b00      	ldr	r3, [sp, #0]
 8005466:	609a      	str	r2, [r3, #8]
 8005468:	b001      	add	sp, #4
 800546a:	4770      	bx	lr

0800546c <ADC_GetCalibrationStatus>:
 800546c:	b082      	sub	sp, #8
 800546e:	9000      	str	r0, [sp, #0]
 8005470:	f04f 0300 	mov.w	r3, #0	; 0x0
 8005474:	9301      	str	r3, [sp, #4]
 8005476:	9b00      	ldr	r3, [sp, #0]
 8005478:	689b      	ldr	r3, [r3, #8]
 800547a:	f003 0304 	and.w	r3, r3, #4	; 0x4
 800547e:	2b00      	cmp	r3, #0
 8005480:	d003      	beq.n	800548a <ADC_GetCalibrationStatus+0x1e>
 8005482:	f04f 0301 	mov.w	r3, #1	; 0x1
 8005486:	9301      	str	r3, [sp, #4]
 8005488:	e002      	b.n	8005490 <ADC_GetCalibrationStatus+0x24>
 800548a:	f04f 0300 	mov.w	r3, #0	; 0x0
 800548e:	9301      	str	r3, [sp, #4]
 8005490:	9b01      	ldr	r3, [sp, #4]
 8005492:	4618      	mov	r0, r3
 8005494:	b002      	add	sp, #8
 8005496:	4770      	bx	lr

08005498 <ADC_SoftwareStartConvCmd>:
 8005498:	b082      	sub	sp, #8
 800549a:	9001      	str	r0, [sp, #4]
 800549c:	9100      	str	r1, [sp, #0]
 800549e:	9b00      	ldr	r3, [sp, #0]
 80054a0:	2b00      	cmp	r3, #0
 80054a2:	d006      	beq.n	80054b2 <ADC_SoftwareStartConvCmd+0x1a>
 80054a4:	9b01      	ldr	r3, [sp, #4]
 80054a6:	689b      	ldr	r3, [r3, #8]
 80054a8:	f443 02a0 	orr.w	r2, r3, #5242880	; 0x500000
 80054ac:	9b01      	ldr	r3, [sp, #4]
 80054ae:	609a      	str	r2, [r3, #8]
 80054b0:	e005      	b.n	80054be <ADC_SoftwareStartConvCmd+0x26>
 80054b2:	9b01      	ldr	r3, [sp, #4]
 80054b4:	689b      	ldr	r3, [r3, #8]
 80054b6:	f423 02a0 	bic.w	r2, r3, #5242880	; 0x500000
 80054ba:	9b01      	ldr	r3, [sp, #4]
 80054bc:	609a      	str	r2, [r3, #8]
 80054be:	b002      	add	sp, #8
 80054c0:	4770      	bx	lr
 80054c2:	46c0      	nop			(mov r8, r8)

080054c4 <ADC_GetSoftwareStartConvStatus>:
 80054c4:	b082      	sub	sp, #8
 80054c6:	9000      	str	r0, [sp, #0]
 80054c8:	f04f 0300 	mov.w	r3, #0	; 0x0
 80054cc:	9301      	str	r3, [sp, #4]
 80054ce:	9b00      	ldr	r3, [sp, #0]
 80054d0:	689b      	ldr	r3, [r3, #8]
 80054d2:	f403 0380 	and.w	r3, r3, #4194304	; 0x400000
 80054d6:	2b00      	cmp	r3, #0
 80054d8:	d003      	beq.n	80054e2 <ADC_GetSoftwareStartConvStatus+0x1e>
 80054da:	f04f 0301 	mov.w	r3, #1	; 0x1
 80054de:	9301      	str	r3, [sp, #4]
 80054e0:	e002      	b.n	80054e8 <ADC_GetSoftwareStartConvStatus+0x24>
 80054e2:	f04f 0300 	mov.w	r3, #0	; 0x0
 80054e6:	9301      	str	r3, [sp, #4]
 80054e8:	9b01      	ldr	r3, [sp, #4]
 80054ea:	4618      	mov	r0, r3
 80054ec:	b002      	add	sp, #8
 80054ee:	4770      	bx	lr

080054f0 <ADC_DiscModeChannelCountConfig>:
 80054f0:	b084      	sub	sp, #16
 80054f2:	9001      	str	r0, [sp, #4]
 80054f4:	460b      	mov	r3, r1
 80054f6:	f88d 3000 	strb.w	r3, [sp]
 80054fa:	f04f 0300 	mov.w	r3, #0	; 0x0
 80054fe:	9302      	str	r3, [sp, #8]
 8005500:	f04f 0300 	mov.w	r3, #0	; 0x0
 8005504:	9303      	str	r3, [sp, #12]
 8005506:	9b01      	ldr	r3, [sp, #4]
 8005508:	685b      	ldr	r3, [r3, #4]
 800550a:	9302      	str	r3, [sp, #8]
 800550c:	9b02      	ldr	r3, [sp, #8]
 800550e:	f423 4360 	bic.w	r3, r3, #57344	; 0xe000
 8005512:	9302      	str	r3, [sp, #8]
 8005514:	f89d 3000 	ldrb.w	r3, [sp]
 8005518:	f103 33ff 	add.w	r3, r3, #4294967295	; 0xffffffff
 800551c:	9303      	str	r3, [sp, #12]
 800551e:	9b03      	ldr	r3, [sp, #12]
 8005520:	ea4f 3243 	mov.w	r2, r3, lsl #13
 8005524:	9b02      	ldr	r3, [sp, #8]
 8005526:	ea43 0302 	orr.w	r3, r3, r2
 800552a:	9302      	str	r3, [sp, #8]
 800552c:	9a01      	ldr	r2, [sp, #4]
 800552e:	9b02      	ldr	r3, [sp, #8]
 8005530:	6053      	str	r3, [r2, #4]
 8005532:	b004      	add	sp, #16
 8005534:	4770      	bx	lr
 8005536:	46c0      	nop			(mov r8, r8)

08005538 <ADC_DiscModeCmd>:
 8005538:	b082      	sub	sp, #8
 800553a:	9001      	str	r0, [sp, #4]
 800553c:	9100      	str	r1, [sp, #0]
 800553e:	9b00      	ldr	r3, [sp, #0]
 8005540:	2b00      	cmp	r3, #0
 8005542:	d006      	beq.n	8005552 <ADC_DiscModeCmd+0x1a>
 8005544:	9b01      	ldr	r3, [sp, #4]
 8005546:	685b      	ldr	r3, [r3, #4]
 8005548:	f443 6200 	orr.w	r2, r3, #2048	; 0x800
 800554c:	9b01      	ldr	r3, [sp, #4]
 800554e:	605a      	str	r2, [r3, #4]
 8005550:	e005      	b.n	800555e <ADC_DiscModeCmd+0x26>
 8005552:	9b01      	ldr	r3, [sp, #4]
 8005554:	685b      	ldr	r3, [r3, #4]
 8005556:	f423 6200 	bic.w	r2, r3, #2048	; 0x800
 800555a:	9b01      	ldr	r3, [sp, #4]
 800555c:	605a      	str	r2, [r3, #4]
 800555e:	b002      	add	sp, #8
 8005560:	4770      	bx	lr
 8005562:	46c0      	nop			(mov r8, r8)

08005564 <ADC_RegularChannelConfig>:
 8005564:	b086      	sub	sp, #24
 8005566:	9003      	str	r0, [sp, #12]
 8005568:	4618      	mov	r0, r3
 800556a:	460b      	mov	r3, r1
 800556c:	f88d 3008 	strb.w	r3, [sp, #8]
 8005570:	4613      	mov	r3, r2
 8005572:	f88d 3004 	strb.w	r3, [sp, #4]
 8005576:	4603      	mov	r3, r0
 8005578:	f88d 3000 	strb.w	r3, [sp]
 800557c:	f04f 0300 	mov.w	r3, #0	; 0x0
 8005580:	9304      	str	r3, [sp, #16]
 8005582:	f04f 0300 	mov.w	r3, #0	; 0x0
 8005586:	9305      	str	r3, [sp, #20]
 8005588:	f89d 3008 	ldrb.w	r3, [sp, #8]
 800558c:	2b09      	cmp	r3, #9
 800558e:	d92c      	bls.n	80055ea <ADC_RegularChannelConfig+0x86>
 8005590:	9b03      	ldr	r3, [sp, #12]
 8005592:	68db      	ldr	r3, [r3, #12]
 8005594:	9304      	str	r3, [sp, #16]
 8005596:	f89d 2008 	ldrb.w	r2, [sp, #8]
 800559a:	4613      	mov	r3, r2
 800559c:	ea4f 0343 	mov.w	r3, r3, lsl #1
 80055a0:	4413      	add	r3, r2
 80055a2:	f1a3 021e 	sub.w	r2, r3, #30	; 0x1e
 80055a6:	f04f 0307 	mov.w	r3, #7	; 0x7
 80055aa:	fa03 f302 	lsl.w	r3, r3, r2
 80055ae:	9305      	str	r3, [sp, #20]
 80055b0:	9b05      	ldr	r3, [sp, #20]
 80055b2:	ea6f 0203 	mvn.w	r2, r3
 80055b6:	9b04      	ldr	r3, [sp, #16]
 80055b8:	ea03 0302 	and.w	r3, r3, r2
 80055bc:	9304      	str	r3, [sp, #16]
 80055be:	f89d 1000 	ldrb.w	r1, [sp]
 80055c2:	f89d 2008 	ldrb.w	r2, [sp, #8]
 80055c6:	4613      	mov	r3, r2
 80055c8:	ea4f 0343 	mov.w	r3, r3, lsl #1
 80055cc:	4413      	add	r3, r2
 80055ce:	f1a3 031e 	sub.w	r3, r3, #30	; 0x1e
 80055d2:	fa01 f303 	lsl.w	r3, r1, r3
 80055d6:	9305      	str	r3, [sp, #20]
 80055d8:	9a04      	ldr	r2, [sp, #16]
 80055da:	9b05      	ldr	r3, [sp, #20]
 80055dc:	ea42 0303 	orr.w	r3, r2, r3
 80055e0:	9304      	str	r3, [sp, #16]
 80055e2:	9a03      	ldr	r2, [sp, #12]
 80055e4:	9b04      	ldr	r3, [sp, #16]
 80055e6:	60d3      	str	r3, [r2, #12]
 80055e8:	e027      	b.n	800563a <ADC_RegularChannelConfig+0xd6>
 80055ea:	9b03      	ldr	r3, [sp, #12]
 80055ec:	691b      	ldr	r3, [r3, #16]
 80055ee:	9304      	str	r3, [sp, #16]
 80055f0:	f89d 2008 	ldrb.w	r2, [sp, #8]
 80055f4:	4613      	mov	r3, r2
 80055f6:	ea4f 0343 	mov.w	r3, r3, lsl #1
 80055fa:	441a      	add	r2, r3
 80055fc:	f04f 0307 	mov.w	r3, #7	; 0x7
 8005600:	fa03 f302 	lsl.w	r3, r3, r2
 8005604:	9305      	str	r3, [sp, #20]
 8005606:	9b05      	ldr	r3, [sp, #20]
 8005608:	ea6f 0203 	mvn.w	r2, r3
 800560c:	9b04      	ldr	r3, [sp, #16]
 800560e:	ea03 0302 	and.w	r3, r3, r2
 8005612:	9304      	str	r3, [sp, #16]
 8005614:	f89d 1000 	ldrb.w	r1, [sp]
 8005618:	f89d 2008 	ldrb.w	r2, [sp, #8]
 800561c:	4613      	mov	r3, r2
 800561e:	ea4f 0343 	mov.w	r3, r3, lsl #1
 8005622:	4413      	add	r3, r2
 8005624:	fa01 f303 	lsl.w	r3, r1, r3
 8005628:	9305      	str	r3, [sp, #20]
 800562a:	9a04      	ldr	r2, [sp, #16]
 800562c:	9b05      	ldr	r3, [sp, #20]
 800562e:	ea42 0303 	orr.w	r3, r2, r3
 8005632:	9304      	str	r3, [sp, #16]
 8005634:	9a03      	ldr	r2, [sp, #12]
 8005636:	9b04      	ldr	r3, [sp, #16]
 8005638:	6113      	str	r3, [r2, #16]
 800563a:	f89d 3004 	ldrb.w	r3, [sp, #4]
 800563e:	2b06      	cmp	r3, #6
 8005640:	d82c      	bhi.n	800569c <ADC_RegularChannelConfig+0x138>
 8005642:	9b03      	ldr	r3, [sp, #12]
 8005644:	6b5b      	ldr	r3, [r3, #52]
 8005646:	9304      	str	r3, [sp, #16]
 8005648:	f89d 3004 	ldrb.w	r3, [sp, #4]
 800564c:	f103 32ff 	add.w	r2, r3, #4294967295	; 0xffffffff
 8005650:	4613      	mov	r3, r2
 8005652:	ea4f 0383 	mov.w	r3, r3, lsl #2
 8005656:	441a      	add	r2, r3
 8005658:	f04f 031f 	mov.w	r3, #31	; 0x1f
 800565c:	fa03 f302 	lsl.w	r3, r3, r2
 8005660:	9305      	str	r3, [sp, #20]
 8005662:	9b05      	ldr	r3, [sp, #20]
 8005664:	ea6f 0203 	mvn.w	r2, r3
 8005668:	9b04      	ldr	r3, [sp, #16]
 800566a:	ea03 0302 	and.w	r3, r3, r2
 800566e:	9304      	str	r3, [sp, #16]
 8005670:	f89d 1008 	ldrb.w	r1, [sp, #8]
 8005674:	f89d 3004 	ldrb.w	r3, [sp, #4]
 8005678:	f103 32ff 	add.w	r2, r3, #4294967295	; 0xffffffff
 800567c:	4613      	mov	r3, r2
 800567e:	ea4f 0383 	mov.w	r3, r3, lsl #2
 8005682:	4413      	add	r3, r2
 8005684:	fa01 f303 	lsl.w	r3, r1, r3
 8005688:	9305      	str	r3, [sp, #20]
 800568a:	9a04      	ldr	r2, [sp, #16]
 800568c:	9b05      	ldr	r3, [sp, #20]
 800568e:	ea42 0303 	orr.w	r3, r2, r3
 8005692:	9304      	str	r3, [sp, #16]
 8005694:	9a03      	ldr	r2, [sp, #12]
 8005696:	9b04      	ldr	r3, [sp, #16]
 8005698:	6353      	str	r3, [r2, #52]
 800569a:	e05c      	b.n	8005756 <ADC_RegularChannelConfig+0x1f2>
 800569c:	f89d 3004 	ldrb.w	r3, [sp, #4]
 80056a0:	2b0c      	cmp	r3, #12
 80056a2:	d82c      	bhi.n	80056fe <ADC_RegularChannelConfig+0x19a>
 80056a4:	9b03      	ldr	r3, [sp, #12]
 80056a6:	6b1b      	ldr	r3, [r3, #48]
 80056a8:	9304      	str	r3, [sp, #16]
 80056aa:	f89d 2004 	ldrb.w	r2, [sp, #4]
 80056ae:	4613      	mov	r3, r2
 80056b0:	ea4f 0383 	mov.w	r3, r3, lsl #2
 80056b4:	4413      	add	r3, r2
 80056b6:	f1a3 0223 	sub.w	r2, r3, #35	; 0x23
 80056ba:	f04f 031f 	mov.w	r3, #31	; 0x1f
 80056be:	fa03 f302 	lsl.w	r3, r3, r2
 80056c2:	9305      	str	r3, [sp, #20]
 80056c4:	9b05      	ldr	r3, [sp, #20]
 80056c6:	ea6f 0203 	mvn.w	r2, r3
 80056ca:	9b04      	ldr	r3, [sp, #16]
 80056cc:	ea03 0302 	and.w	r3, r3, r2
 80056d0:	9304      	str	r3, [sp, #16]
 80056d2:	f89d 1008 	ldrb.w	r1, [sp, #8]
 80056d6:	f89d 2004 	ldrb.w	r2, [sp, #4]
 80056da:	4613      	mov	r3, r2
 80056dc:	ea4f 0383 	mov.w	r3, r3, lsl #2
 80056e0:	4413      	add	r3, r2
 80056e2:	f1a3 0323 	sub.w	r3, r3, #35	; 0x23
 80056e6:	fa01 f303 	lsl.w	r3, r1, r3
 80056ea:	9305      	str	r3, [sp, #20]
 80056ec:	9a04      	ldr	r2, [sp, #16]
 80056ee:	9b05      	ldr	r3, [sp, #20]
 80056f0:	ea42 0303 	orr.w	r3, r2, r3
 80056f4:	9304      	str	r3, [sp, #16]
 80056f6:	9a03      	ldr	r2, [sp, #12]
 80056f8:	9b04      	ldr	r3, [sp, #16]
 80056fa:	6313      	str	r3, [r2, #48]
 80056fc:	e02b      	b.n	8005756 <ADC_RegularChannelConfig+0x1f2>
 80056fe:	9b03      	ldr	r3, [sp, #12]
 8005700:	6adb      	ldr	r3, [r3, #44]
 8005702:	9304      	str	r3, [sp, #16]
 8005704:	f89d 2004 	ldrb.w	r2, [sp, #4]
 8005708:	4613      	mov	r3, r2
 800570a:	ea4f 0383 	mov.w	r3, r3, lsl #2
 800570e:	4413      	add	r3, r2
 8005710:	f1a3 0241 	sub.w	r2, r3, #65	; 0x41
 8005714:	f04f 031f 	mov.w	r3, #31	; 0x1f
 8005718:	fa03 f302 	lsl.w	r3, r3, r2
 800571c:	9305      	str	r3, [sp, #20]
 800571e:	9b05      	ldr	r3, [sp, #20]
 8005720:	ea6f 0203 	mvn.w	r2, r3
 8005724:	9b04      	ldr	r3, [sp, #16]
 8005726:	ea03 0302 	and.w	r3, r3, r2
 800572a:	9304      	str	r3, [sp, #16]
 800572c:	f89d 1008 	ldrb.w	r1, [sp, #8]
 8005730:	f89d 2004 	ldrb.w	r2, [sp, #4]
 8005734:	4613      	mov	r3, r2
 8005736:	ea4f 0383 	mov.w	r3, r3, lsl #2
 800573a:	4413      	add	r3, r2
 800573c:	f1a3 0341 	sub.w	r3, r3, #65	; 0x41
 8005740:	fa01 f303 	lsl.w	r3, r1, r3
 8005744:	9305      	str	r3, [sp, #20]
 8005746:	9a04      	ldr	r2, [sp, #16]
 8005748:	9b05      	ldr	r3, [sp, #20]
 800574a:	ea42 0303 	orr.w	r3, r2, r3
 800574e:	9304      	str	r3, [sp, #16]
 8005750:	9a03      	ldr	r2, [sp, #12]
 8005752:	9b04      	ldr	r3, [sp, #16]
 8005754:	62d3      	str	r3, [r2, #44]
 8005756:	b006      	add	sp, #24
 8005758:	4770      	bx	lr
 800575a:	46c0      	nop			(mov r8, r8)

0800575c <ADC_ExternalTrigConvCmd>:
 800575c:	b082      	sub	sp, #8
 800575e:	9001      	str	r0, [sp, #4]
 8005760:	9100      	str	r1, [sp, #0]
 8005762:	9b00      	ldr	r3, [sp, #0]
 8005764:	2b00      	cmp	r3, #0
 8005766:	d006      	beq.n	8005776 <ADC_ExternalTrigConvCmd+0x1a>
 8005768:	9b01      	ldr	r3, [sp, #4]
 800576a:	689b      	ldr	r3, [r3, #8]
 800576c:	f443 1280 	orr.w	r2, r3, #1048576	; 0x100000
 8005770:	9b01      	ldr	r3, [sp, #4]
 8005772:	609a      	str	r2, [r3, #8]
 8005774:	e005      	b.n	8005782 <ADC_ExternalTrigConvCmd+0x26>
 8005776:	9b01      	ldr	r3, [sp, #4]
 8005778:	689b      	ldr	r3, [r3, #8]
 800577a:	f423 1280 	bic.w	r2, r3, #1048576	; 0x100000
 800577e:	9b01      	ldr	r3, [sp, #4]
 8005780:	609a      	str	r2, [r3, #8]
 8005782:	b002      	add	sp, #8
 8005784:	4770      	bx	lr
 8005786:	46c0      	nop			(mov r8, r8)

08005788 <ADC_GetConversionValue>:
 8005788:	b081      	sub	sp, #4
 800578a:	9000      	str	r0, [sp, #0]
 800578c:	9b00      	ldr	r3, [sp, #0]
 800578e:	6cdb      	ldr	r3, [r3, #76]
 8005790:	b29b      	uxth	r3, r3
 8005792:	4618      	mov	r0, r3
 8005794:	b001      	add	sp, #4
 8005796:	4770      	bx	lr

08005798 <ADC_GetDualModeConversionValue>:
 8005798:	4b01      	ldr	r3, [pc, #4]	(80057a0 <ADC_GetDualModeConversionValue+0x8>)
 800579a:	681b      	ldr	r3, [r3, #0]
 800579c:	4618      	mov	r0, r3
 800579e:	4770      	bx	lr
 80057a0:	4001244c 	.word	0x4001244c

080057a4 <ADC_AutoInjectedConvCmd>:
 80057a4:	b082      	sub	sp, #8
 80057a6:	9001      	str	r0, [sp, #4]
 80057a8:	9100      	str	r1, [sp, #0]
 80057aa:	9b00      	ldr	r3, [sp, #0]
 80057ac:	2b00      	cmp	r3, #0
 80057ae:	d006      	beq.n	80057be <ADC_AutoInjectedConvCmd+0x1a>
 80057b0:	9b01      	ldr	r3, [sp, #4]
 80057b2:	685b      	ldr	r3, [r3, #4]
 80057b4:	f443 6280 	orr.w	r2, r3, #1024	; 0x400
 80057b8:	9b01      	ldr	r3, [sp, #4]
 80057ba:	605a      	str	r2, [r3, #4]
 80057bc:	e005      	b.n	80057ca <ADC_AutoInjectedConvCmd+0x26>
 80057be:	9b01      	ldr	r3, [sp, #4]
 80057c0:	685b      	ldr	r3, [r3, #4]
 80057c2:	f423 6280 	bic.w	r2, r3, #1024	; 0x400
 80057c6:	9b01      	ldr	r3, [sp, #4]
 80057c8:	605a      	str	r2, [r3, #4]
 80057ca:	b002      	add	sp, #8
 80057cc:	4770      	bx	lr
 80057ce:	46c0      	nop			(mov r8, r8)

080057d0 <ADC_InjectedDiscModeCmd>:
 80057d0:	b082      	sub	sp, #8
 80057d2:	9001      	str	r0, [sp, #4]
 80057d4:	9100      	str	r1, [sp, #0]
 80057d6:	9b00      	ldr	r3, [sp, #0]
 80057d8:	2b00      	cmp	r3, #0
 80057da:	d006      	beq.n	80057ea <ADC_InjectedDiscModeCmd+0x1a>
 80057dc:	9b01      	ldr	r3, [sp, #4]
 80057de:	685b      	ldr	r3, [r3, #4]
 80057e0:	f443 5280 	orr.w	r2, r3, #4096	; 0x1000
 80057e4:	9b01      	ldr	r3, [sp, #4]
 80057e6:	605a      	str	r2, [r3, #4]
 80057e8:	e005      	b.n	80057f6 <ADC_InjectedDiscModeCmd+0x26>
 80057ea:	9b01      	ldr	r3, [sp, #4]
 80057ec:	685b      	ldr	r3, [r3, #4]
 80057ee:	f423 5280 	bic.w	r2, r3, #4096	; 0x1000
 80057f2:	9b01      	ldr	r3, [sp, #4]
 80057f4:	605a      	str	r2, [r3, #4]
 80057f6:	b002      	add	sp, #8
 80057f8:	4770      	bx	lr
 80057fa:	46c0      	nop			(mov r8, r8)

080057fc <ADC_ExternalTrigInjectedConvConfig>:
 80057fc:	b083      	sub	sp, #12
 80057fe:	9001      	str	r0, [sp, #4]
 8005800:	9100      	str	r1, [sp, #0]
 8005802:	f04f 0300 	mov.w	r3, #0	; 0x0
 8005806:	9302      	str	r3, [sp, #8]
 8005808:	9b01      	ldr	r3, [sp, #4]
 800580a:	689b      	ldr	r3, [r3, #8]
 800580c:	9302      	str	r3, [sp, #8]
 800580e:	9b02      	ldr	r3, [sp, #8]
 8005810:	f423 43e0 	bic.w	r3, r3, #28672	; 0x7000
 8005814:	9302      	str	r3, [sp, #8]
 8005816:	9a02      	ldr	r2, [sp, #8]
 8005818:	9b00      	ldr	r3, [sp, #0]
 800581a:	ea42 0303 	orr.w	r3, r2, r3
 800581e:	9302      	str	r3, [sp, #8]
 8005820:	9a01      	ldr	r2, [sp, #4]
 8005822:	9b02      	ldr	r3, [sp, #8]
 8005824:	6093      	str	r3, [r2, #8]
 8005826:	b003      	add	sp, #12
 8005828:	4770      	bx	lr
 800582a:	46c0      	nop			(mov r8, r8)

0800582c <ADC_ExternalTrigInjectedConvCmd>:
 800582c:	b082      	sub	sp, #8
 800582e:	9001      	str	r0, [sp, #4]
 8005830:	9100      	str	r1, [sp, #0]
 8005832:	9b00      	ldr	r3, [sp, #0]
 8005834:	2b00      	cmp	r3, #0
 8005836:	d006      	beq.n	8005846 <ADC_ExternalTrigInjectedConvCmd+0x1a>
 8005838:	9b01      	ldr	r3, [sp, #4]
 800583a:	689b      	ldr	r3, [r3, #8]
 800583c:	f443 4200 	orr.w	r2, r3, #32768	; 0x8000
 8005840:	9b01      	ldr	r3, [sp, #4]
 8005842:	609a      	str	r2, [r3, #8]
 8005844:	e005      	b.n	8005852 <ADC_ExternalTrigInjectedConvCmd+0x26>
 8005846:	9b01      	ldr	r3, [sp, #4]
 8005848:	689b      	ldr	r3, [r3, #8]
 800584a:	f423 4200 	bic.w	r2, r3, #32768	; 0x8000
 800584e:	9b01      	ldr	r3, [sp, #4]
 8005850:	609a      	str	r2, [r3, #8]
 8005852:	b002      	add	sp, #8
 8005854:	4770      	bx	lr
 8005856:	46c0      	nop			(mov r8, r8)

08005858 <ADC_SoftwareStartInjectedConvCmd>:
 8005858:	b082      	sub	sp, #8
 800585a:	9001      	str	r0, [sp, #4]
 800585c:	9100      	str	r1, [sp, #0]
 800585e:	9b00      	ldr	r3, [sp, #0]
 8005860:	2b00      	cmp	r3, #0
 8005862:	d006      	beq.n	8005872 <ADC_SoftwareStartInjectedConvCmd+0x1a>
 8005864:	9b01      	ldr	r3, [sp, #4]
 8005866:	689b      	ldr	r3, [r3, #8]
 8005868:	f443 1202 	orr.w	r2, r3, #2129920	; 0x208000
 800586c:	9b01      	ldr	r3, [sp, #4]
 800586e:	609a      	str	r2, [r3, #8]
 8005870:	e005      	b.n	800587e <ADC_SoftwareStartInjectedConvCmd+0x26>
 8005872:	9b01      	ldr	r3, [sp, #4]
 8005874:	689b      	ldr	r3, [r3, #8]
 8005876:	f423 1202 	bic.w	r2, r3, #2129920	; 0x208000
 800587a:	9b01      	ldr	r3, [sp, #4]
 800587c:	609a      	str	r2, [r3, #8]
 800587e:	b002      	add	sp, #8
 8005880:	4770      	bx	lr
 8005882:	46c0      	nop			(mov r8, r8)

08005884 <ADC_GetSoftwareStartInjectedConvCmdStatus>:
 8005884:	b082      	sub	sp, #8
 8005886:	9000      	str	r0, [sp, #0]
 8005888:	f04f 0300 	mov.w	r3, #0	; 0x0
 800588c:	9301      	str	r3, [sp, #4]
 800588e:	9b00      	ldr	r3, [sp, #0]
 8005890:	689b      	ldr	r3, [r3, #8]
 8005892:	f403 1300 	and.w	r3, r3, #2097152	; 0x200000
 8005896:	2b00      	cmp	r3, #0
 8005898:	d003      	beq.n	80058a2 <ADC_GetSoftwareStartInjectedConvCmdStatus+0x1e>
 800589a:	f04f 0301 	mov.w	r3, #1	; 0x1
 800589e:	9301      	str	r3, [sp, #4]
 80058a0:	e002      	b.n	80058a8 <ADC_GetSoftwareStartInjectedConvCmdStatus+0x24>
 80058a2:	f04f 0300 	mov.w	r3, #0	; 0x0
 80058a6:	9301      	str	r3, [sp, #4]
 80058a8:	9b01      	ldr	r3, [sp, #4]
 80058aa:	4618      	mov	r0, r3
 80058ac:	b002      	add	sp, #8
 80058ae:	4770      	bx	lr

080058b0 <ADC_InjectedChannelConfig>:
 80058b0:	b087      	sub	sp, #28
 80058b2:	9003      	str	r0, [sp, #12]
 80058b4:	4618      	mov	r0, r3
 80058b6:	460b      	mov	r3, r1
 80058b8:	f88d 3008 	strb.w	r3, [sp, #8]
 80058bc:	4613      	mov	r3, r2
 80058be:	f88d 3004 	strb.w	r3, [sp, #4]
 80058c2:	4603      	mov	r3, r0
 80058c4:	f88d 3000 	strb.w	r3, [sp]
 80058c8:	f04f 0300 	mov.w	r3, #0	; 0x0
 80058cc:	9304      	str	r3, [sp, #16]
 80058ce:	f04f 0300 	mov.w	r3, #0	; 0x0
 80058d2:	9305      	str	r3, [sp, #20]
 80058d4:	f04f 0300 	mov.w	r3, #0	; 0x0
 80058d8:	9306      	str	r3, [sp, #24]
 80058da:	f89d 3008 	ldrb.w	r3, [sp, #8]
 80058de:	2b09      	cmp	r3, #9
 80058e0:	d92c      	bls.n	800593c <ADC_InjectedChannelConfig+0x8c>
 80058e2:	9b03      	ldr	r3, [sp, #12]
 80058e4:	68db      	ldr	r3, [r3, #12]
 80058e6:	9304      	str	r3, [sp, #16]
 80058e8:	f89d 2008 	ldrb.w	r2, [sp, #8]
 80058ec:	4613      	mov	r3, r2
 80058ee:	ea4f 0343 	mov.w	r3, r3, lsl #1
 80058f2:	4413      	add	r3, r2
 80058f4:	f1a3 021e 	sub.w	r2, r3, #30	; 0x1e
 80058f8:	f04f 0307 	mov.w	r3, #7	; 0x7
 80058fc:	fa03 f302 	lsl.w	r3, r3, r2
 8005900:	9305      	str	r3, [sp, #20]
 8005902:	9b05      	ldr	r3, [sp, #20]
 8005904:	ea6f 0203 	mvn.w	r2, r3
 8005908:	9b04      	ldr	r3, [sp, #16]
 800590a:	ea03 0302 	and.w	r3, r3, r2
 800590e:	9304      	str	r3, [sp, #16]
 8005910:	f89d 1000 	ldrb.w	r1, [sp]
 8005914:	f89d 2008 	ldrb.w	r2, [sp, #8]
 8005918:	4613      	mov	r3, r2
 800591a:	ea4f 0343 	mov.w	r3, r3, lsl #1
 800591e:	4413      	add	r3, r2
 8005920:	f1a3 031e 	sub.w	r3, r3, #30	; 0x1e
 8005924:	fa01 f303 	lsl.w	r3, r1, r3
 8005928:	9305      	str	r3, [sp, #20]
 800592a:	9a04      	ldr	r2, [sp, #16]
 800592c:	9b05      	ldr	r3, [sp, #20]
 800592e:	ea42 0303 	orr.w	r3, r2, r3
 8005932:	9304      	str	r3, [sp, #16]
 8005934:	9a03      	ldr	r2, [sp, #12]
 8005936:	9b04      	ldr	r3, [sp, #16]
 8005938:	60d3      	str	r3, [r2, #12]
 800593a:	e027      	b.n	800598c <ADC_InjectedChannelConfig+0xdc>
 800593c:	9b03      	ldr	r3, [sp, #12]
 800593e:	691b      	ldr	r3, [r3, #16]
 8005940:	9304      	str	r3, [sp, #16]
 8005942:	f89d 2008 	ldrb.w	r2, [sp, #8]
 8005946:	4613      	mov	r3, r2
 8005948:	ea4f 0343 	mov.w	r3, r3, lsl #1
 800594c:	441a      	add	r2, r3
 800594e:	f04f 0307 	mov.w	r3, #7	; 0x7
 8005952:	fa03 f302 	lsl.w	r3, r3, r2
 8005956:	9305      	str	r3, [sp, #20]
 8005958:	9b05      	ldr	r3, [sp, #20]
 800595a:	ea6f 0203 	mvn.w	r2, r3
 800595e:	9b04      	ldr	r3, [sp, #16]
 8005960:	ea03 0302 	and.w	r3, r3, r2
 8005964:	9304      	str	r3, [sp, #16]
 8005966:	f89d 1000 	ldrb.w	r1, [sp]
 800596a:	f89d 2008 	ldrb.w	r2, [sp, #8]
 800596e:	4613      	mov	r3, r2
 8005970:	ea4f 0343 	mov.w	r3, r3, lsl #1
 8005974:	4413      	add	r3, r2
 8005976:	fa01 f303 	lsl.w	r3, r1, r3
 800597a:	9305      	str	r3, [sp, #20]
 800597c:	9a04      	ldr	r2, [sp, #16]
 800597e:	9b05      	ldr	r3, [sp, #20]
 8005980:	ea42 0303 	orr.w	r3, r2, r3
 8005984:	9304      	str	r3, [sp, #16]
 8005986:	9a03      	ldr	r2, [sp, #12]
 8005988:	9b04      	ldr	r3, [sp, #16]
 800598a:	6113      	str	r3, [r2, #16]
 800598c:	9b03      	ldr	r3, [sp, #12]
 800598e:	6b9b      	ldr	r3, [r3, #56]
 8005990:	9304      	str	r3, [sp, #16]
 8005992:	9b04      	ldr	r3, [sp, #16]
 8005994:	f403 1340 	and.w	r3, r3, #3145728	; 0x300000
 8005998:	ea4f 5313 	mov.w	r3, r3, lsr #20
 800599c:	9306      	str	r3, [sp, #24]
 800599e:	9b06      	ldr	r3, [sp, #24]
 80059a0:	b2db      	uxtb	r3, r3
 80059a2:	ea6f 0303 	mvn.w	r3, r3
 80059a6:	b2da      	uxtb	r2, r3
 80059a8:	f89d 3004 	ldrb.w	r3, [sp, #4]
 80059ac:	4413      	add	r3, r2
 80059ae:	b2db      	uxtb	r3, r3
 80059b0:	f103 0303 	add.w	r3, r3, #3	; 0x3
 80059b4:	b2db      	uxtb	r3, r3
 80059b6:	461a      	mov	r2, r3
 80059b8:	4613      	mov	r3, r2
 80059ba:	ea4f 0383 	mov.w	r3, r3, lsl #2
 80059be:	441a      	add	r2, r3
 80059c0:	f04f 031f 	mov.w	r3, #31	; 0x1f
 80059c4:	fa03 f302 	lsl.w	r3, r3, r2
 80059c8:	9305      	str	r3, [sp, #20]
 80059ca:	9b05      	ldr	r3, [sp, #20]
 80059cc:	ea6f 0203 	mvn.w	r2, r3
 80059d0:	9b04      	ldr	r3, [sp, #16]
 80059d2:	ea03 0302 	and.w	r3, r3, r2
 80059d6:	9304      	str	r3, [sp, #16]
 80059d8:	f89d 1008 	ldrb.w	r1, [sp, #8]
 80059dc:	9b06      	ldr	r3, [sp, #24]
 80059de:	b2db      	uxtb	r3, r3
 80059e0:	ea6f 0303 	mvn.w	r3, r3
 80059e4:	b2da      	uxtb	r2, r3
 80059e6:	f89d 3004 	ldrb.w	r3, [sp, #4]
 80059ea:	4413      	add	r3, r2
 80059ec:	b2db      	uxtb	r3, r3
 80059ee:	f103 0303 	add.w	r3, r3, #3	; 0x3
 80059f2:	b2db      	uxtb	r3, r3
 80059f4:	461a      	mov	r2, r3
 80059f6:	4613      	mov	r3, r2
 80059f8:	ea4f 0383 	mov.w	r3, r3, lsl #2
 80059fc:	4413      	add	r3, r2
 80059fe:	fa01 f303 	lsl.w	r3, r1, r3
 8005a02:	9305      	str	r3, [sp, #20]
 8005a04:	9a04      	ldr	r2, [sp, #16]
 8005a06:	9b05      	ldr	r3, [sp, #20]
 8005a08:	ea42 0303 	orr.w	r3, r2, r3
 8005a0c:	9304      	str	r3, [sp, #16]
 8005a0e:	9a03      	ldr	r2, [sp, #12]
 8005a10:	9b04      	ldr	r3, [sp, #16]
 8005a12:	6393      	str	r3, [r2, #56]
 8005a14:	b007      	add	sp, #28
 8005a16:	4770      	bx	lr

08005a18 <ADC_InjectedSequencerLengthConfig>:
 8005a18:	b084      	sub	sp, #16
 8005a1a:	9001      	str	r0, [sp, #4]
 8005a1c:	460b      	mov	r3, r1
 8005a1e:	f88d 3000 	strb.w	r3, [sp]
 8005a22:	f04f 0300 	mov.w	r3, #0	; 0x0
 8005a26:	9302      	str	r3, [sp, #8]
 8005a28:	f04f 0300 	mov.w	r3, #0	; 0x0
 8005a2c:	9303      	str	r3, [sp, #12]
 8005a2e:	9b01      	ldr	r3, [sp, #4]
 8005a30:	6b9b      	ldr	r3, [r3, #56]
 8005a32:	9302      	str	r3, [sp, #8]
 8005a34:	9b02      	ldr	r3, [sp, #8]
 8005a36:	f423 1340 	bic.w	r3, r3, #3145728	; 0x300000
 8005a3a:	9302      	str	r3, [sp, #8]
 8005a3c:	f89d 3000 	ldrb.w	r3, [sp]
 8005a40:	f103 33ff 	add.w	r3, r3, #4294967295	; 0xffffffff
 8005a44:	9303      	str	r3, [sp, #12]
 8005a46:	9b03      	ldr	r3, [sp, #12]
 8005a48:	ea4f 5203 	mov.w	r2, r3, lsl #20
 8005a4c:	9b02      	ldr	r3, [sp, #8]
 8005a4e:	ea43 0302 	orr.w	r3, r3, r2
 8005a52:	9302      	str	r3, [sp, #8]
 8005a54:	9a01      	ldr	r2, [sp, #4]
 8005a56:	9b02      	ldr	r3, [sp, #8]
 8005a58:	6393      	str	r3, [r2, #56]
 8005a5a:	b004      	add	sp, #16
 8005a5c:	4770      	bx	lr
 8005a5e:	46c0      	nop			(mov r8, r8)

08005a60 <ADC_SetInjectedOffset>:
 8005a60:	b083      	sub	sp, #12
 8005a62:	9002      	str	r0, [sp, #8]
 8005a64:	460b      	mov	r3, r1
 8005a66:	f88d 3004 	strb.w	r3, [sp, #4]
 8005a6a:	4613      	mov	r3, r2
 8005a6c:	f8ad 3000 	strh.w	r3, [sp]
 8005a70:	ab02      	add	r3, sp, #8
 8005a72:	681a      	ldr	r2, [r3, #0]
 8005a74:	f89d 3004 	ldrb.w	r3, [sp, #4]
 8005a78:	4413      	add	r3, r2
 8005a7a:	461a      	mov	r2, r3
 8005a7c:	f8bd 3000 	ldrh.w	r3, [sp]
 8005a80:	6013      	str	r3, [r2, #0]
 8005a82:	b003      	add	sp, #12
 8005a84:	4770      	bx	lr
 8005a86:	46c0      	nop			(mov r8, r8)

08005a88 <ADC_GetInjectedConversionValue>:
 8005a88:	b082      	sub	sp, #8
 8005a8a:	9001      	str	r0, [sp, #4]
 8005a8c:	460b      	mov	r3, r1
 8005a8e:	f88d 3000 	strb.w	r3, [sp]
 8005a92:	ab01      	add	r3, sp, #4
 8005a94:	681a      	ldr	r2, [r3, #0]
 8005a96:	f89d 3000 	ldrb.w	r3, [sp]
 8005a9a:	4413      	add	r3, r2
 8005a9c:	f103 0328 	add.w	r3, r3, #40	; 0x28
 8005aa0:	681b      	ldr	r3, [r3, #0]
 8005aa2:	b29b      	uxth	r3, r3
 8005aa4:	4618      	mov	r0, r3
 8005aa6:	b002      	add	sp, #8
 8005aa8:	4770      	bx	lr
 8005aaa:	46c0      	nop			(mov r8, r8)

08005aac <ADC_AnalogWatchdogCmd>:
 8005aac:	b083      	sub	sp, #12
 8005aae:	9001      	str	r0, [sp, #4]
 8005ab0:	9100      	str	r1, [sp, #0]
 8005ab2:	f04f 0300 	mov.w	r3, #0	; 0x0
 8005ab6:	9302      	str	r3, [sp, #8]
 8005ab8:	9b01      	ldr	r3, [sp, #4]
 8005aba:	685b      	ldr	r3, [r3, #4]
 8005abc:	9302      	str	r3, [sp, #8]
 8005abe:	9b02      	ldr	r3, [sp, #8]
 8005ac0:	f423 0340 	bic.w	r3, r3, #12582912	; 0xc00000
 8005ac4:	f423 7300 	bic.w	r3, r3, #512	; 0x200
 8005ac8:	9302      	str	r3, [sp, #8]
 8005aca:	9a02      	ldr	r2, [sp, #8]
 8005acc:	9b00      	ldr	r3, [sp, #0]
 8005ace:	ea42 0303 	orr.w	r3, r2, r3
 8005ad2:	9302      	str	r3, [sp, #8]
 8005ad4:	9a01      	ldr	r2, [sp, #4]
 8005ad6:	9b02      	ldr	r3, [sp, #8]
 8005ad8:	6053      	str	r3, [r2, #4]
 8005ada:	b003      	add	sp, #12
 8005adc:	4770      	bx	lr
 8005ade:	46c0      	nop			(mov r8, r8)

08005ae0 <ADC_AnalogWatchdogThresholdsConfig>:
 8005ae0:	b083      	sub	sp, #12
 8005ae2:	9002      	str	r0, [sp, #8]
 8005ae4:	460b      	mov	r3, r1
 8005ae6:	f8ad 3004 	strh.w	r3, [sp, #4]
 8005aea:	4613      	mov	r3, r2
 8005aec:	f8ad 3000 	strh.w	r3, [sp]
 8005af0:	f8bd 2004 	ldrh.w	r2, [sp, #4]
 8005af4:	9b02      	ldr	r3, [sp, #8]
 8005af6:	625a      	str	r2, [r3, #36]
 8005af8:	f8bd 2000 	ldrh.w	r2, [sp]
 8005afc:	9b02      	ldr	r3, [sp, #8]
 8005afe:	629a      	str	r2, [r3, #40]
 8005b00:	b003      	add	sp, #12
 8005b02:	4770      	bx	lr

08005b04 <ADC_AnalogWatchdogSingleChannelConfig>:
 8005b04:	b083      	sub	sp, #12
 8005b06:	9001      	str	r0, [sp, #4]
 8005b08:	460b      	mov	r3, r1
 8005b0a:	f88d 3000 	strb.w	r3, [sp]
 8005b0e:	f04f 0300 	mov.w	r3, #0	; 0x0
 8005b12:	9302      	str	r3, [sp, #8]
 8005b14:	9b01      	ldr	r3, [sp, #4]
 8005b16:	685b      	ldr	r3, [r3, #4]
 8005b18:	9302      	str	r3, [sp, #8]
 8005b1a:	9b02      	ldr	r3, [sp, #8]
 8005b1c:	f023 031f 	bic.w	r3, r3, #31	; 0x1f
 8005b20:	9302      	str	r3, [sp, #8]
 8005b22:	f89d 2000 	ldrb.w	r2, [sp]
 8005b26:	9b02      	ldr	r3, [sp, #8]
 8005b28:	ea43 0302 	orr.w	r3, r3, r2
 8005b2c:	9302      	str	r3, [sp, #8]
 8005b2e:	9a01      	ldr	r2, [sp, #4]
 8005b30:	9b02      	ldr	r3, [sp, #8]
 8005b32:	6053      	str	r3, [r2, #4]
 8005b34:	b003      	add	sp, #12
 8005b36:	4770      	bx	lr

08005b38 <ADC_TempSensorVrefintCmd>:
 8005b38:	b081      	sub	sp, #4
 8005b3a:	9000      	str	r0, [sp, #0]
 8005b3c:	9b00      	ldr	r3, [sp, #0]
 8005b3e:	2b00      	cmp	r3, #0
 8005b40:	d006      	beq.n	8005b50 <ADC_TempSensorVrefintCmd+0x18>
 8005b42:	4a07      	ldr	r2, [pc, #28]	(8005b60 <ADC_TempSensorVrefintCmd+0x28>)
 8005b44:	4b06      	ldr	r3, [pc, #24]	(8005b60 <ADC_TempSensorVrefintCmd+0x28>)
 8005b46:	689b      	ldr	r3, [r3, #8]
 8005b48:	f443 0300 	orr.w	r3, r3, #8388608	; 0x800000
 8005b4c:	6093      	str	r3, [r2, #8]
 8005b4e:	e005      	b.n	8005b5c <ADC_TempSensorVrefintCmd+0x24>
 8005b50:	4a03      	ldr	r2, [pc, #12]	(8005b60 <ADC_TempSensorVrefintCmd+0x28>)
 8005b52:	4b03      	ldr	r3, [pc, #12]	(8005b60 <ADC_TempSensorVrefintCmd+0x28>)
 8005b54:	689b      	ldr	r3, [r3, #8]
 8005b56:	f423 0300 	bic.w	r3, r3, #8388608	; 0x800000
 8005b5a:	6093      	str	r3, [r2, #8]
 8005b5c:	b001      	add	sp, #4
 8005b5e:	4770      	bx	lr
 8005b60:	40012400 	.word	0x40012400

08005b64 <ADC_GetFlagStatus>:
 8005b64:	b083      	sub	sp, #12
 8005b66:	9001      	str	r0, [sp, #4]
 8005b68:	460b      	mov	r3, r1
 8005b6a:	f88d 3000 	strb.w	r3, [sp]
 8005b6e:	f04f 0300 	mov.w	r3, #0	; 0x0
 8005b72:	9302      	str	r3, [sp, #8]
 8005b74:	9b01      	ldr	r3, [sp, #4]
 8005b76:	681a      	ldr	r2, [r3, #0]
 8005b78:	f89d 3000 	ldrb.w	r3, [sp]
 8005b7c:	ea02 0303 	and.w	r3, r2, r3
 8005b80:	2b00      	cmp	r3, #0
 8005b82:	d003      	beq.n	8005b8c <ADC_GetFlagStatus+0x28>
 8005b84:	f04f 0301 	mov.w	r3, #1	; 0x1
 8005b88:	9302      	str	r3, [sp, #8]
 8005b8a:	e002      	b.n	8005b92 <ADC_GetFlagStatus+0x2e>
 8005b8c:	f04f 0300 	mov.w	r3, #0	; 0x0
 8005b90:	9302      	str	r3, [sp, #8]
 8005b92:	9b02      	ldr	r3, [sp, #8]
 8005b94:	4618      	mov	r0, r3
 8005b96:	b003      	add	sp, #12
 8005b98:	4770      	bx	lr
 8005b9a:	46c0      	nop			(mov r8, r8)

08005b9c <ADC_ClearFlag>:
 8005b9c:	b082      	sub	sp, #8
 8005b9e:	9001      	str	r0, [sp, #4]
 8005ba0:	460b      	mov	r3, r1
 8005ba2:	f88d 3000 	strb.w	r3, [sp]
 8005ba6:	f89d 3000 	ldrb.w	r3, [sp]
 8005baa:	ea6f 0203 	mvn.w	r2, r3
 8005bae:	9b01      	ldr	r3, [sp, #4]
 8005bb0:	601a      	str	r2, [r3, #0]
 8005bb2:	b002      	add	sp, #8
 8005bb4:	4770      	bx	lr
 8005bb6:	46c0      	nop			(mov r8, r8)

08005bb8 <ADC_GetITStatus>:
 8005bb8:	b085      	sub	sp, #20
 8005bba:	9001      	str	r0, [sp, #4]
 8005bbc:	460b      	mov	r3, r1
 8005bbe:	f8ad 3000 	strh.w	r3, [sp]
 8005bc2:	f04f 0300 	mov.w	r3, #0	; 0x0
 8005bc6:	9302      	str	r3, [sp, #8]
 8005bc8:	f04f 0300 	mov.w	r3, #0	; 0x0
 8005bcc:	9303      	str	r3, [sp, #12]
 8005bce:	f04f 0300 	mov.w	r3, #0	; 0x0
 8005bd2:	9304      	str	r3, [sp, #16]
 8005bd4:	f8bd 3000 	ldrh.w	r3, [sp]
 8005bd8:	ea4f 2313 	mov.w	r3, r3, lsr #8
 8005bdc:	b29b      	uxth	r3, r3
 8005bde:	9303      	str	r3, [sp, #12]
 8005be0:	9b01      	ldr	r3, [sp, #4]
 8005be2:	685a      	ldr	r2, [r3, #4]
 8005be4:	f8bd 3000 	ldrh.w	r3, [sp]
 8005be8:	b2db      	uxtb	r3, r3
 8005bea:	ea02 0303 	and.w	r3, r2, r3
 8005bee:	9304      	str	r3, [sp, #16]
 8005bf0:	9b01      	ldr	r3, [sp, #4]
 8005bf2:	681a      	ldr	r2, [r3, #0]
 8005bf4:	9b03      	ldr	r3, [sp, #12]
 8005bf6:	ea02 0303 	and.w	r3, r2, r3
 8005bfa:	2b00      	cmp	r3, #0
 8005bfc:	d006      	beq.n	8005c0c <ADC_GetITStatus+0x54>
 8005bfe:	9b04      	ldr	r3, [sp, #16]
 8005c00:	2b00      	cmp	r3, #0
 8005c02:	d003      	beq.n	8005c0c <ADC_GetITStatus+0x54>
 8005c04:	f04f 0301 	mov.w	r3, #1	; 0x1
 8005c08:	9302      	str	r3, [sp, #8]
 8005c0a:	e002      	b.n	8005c12 <ADC_GetITStatus+0x5a>
 8005c0c:	f04f 0300 	mov.w	r3, #0	; 0x0
 8005c10:	9302      	str	r3, [sp, #8]
 8005c12:	9b02      	ldr	r3, [sp, #8]
 8005c14:	4618      	mov	r0, r3
 8005c16:	b005      	add	sp, #20
 8005c18:	4770      	bx	lr
 8005c1a:	46c0      	nop			(mov r8, r8)

08005c1c <ADC_ClearITPendingBit>:
 8005c1c:	b083      	sub	sp, #12
 8005c1e:	9001      	str	r0, [sp, #4]
 8005c20:	460b      	mov	r3, r1
 8005c22:	f8ad 3000 	strh.w	r3, [sp]
 8005c26:	f04f 0300 	mov.w	r3, #0	; 0x0
 8005c2a:	f88d 300b 	strb.w	r3, [sp, #11]
 8005c2e:	f8bd 3000 	ldrh.w	r3, [sp]
 8005c32:	ea4f 2313 	mov.w	r3, r3, lsr #8
 8005c36:	b29b      	uxth	r3, r3
 8005c38:	f88d 300b 	strb.w	r3, [sp, #11]
 8005c3c:	f89d 300b 	ldrb.w	r3, [sp, #11]
 8005c40:	ea6f 0203 	mvn.w	r2, r3
 8005c44:	9b01      	ldr	r3, [sp, #4]
 8005c46:	601a      	str	r2, [r3, #0]
 8005c48:	b003      	add	sp, #12
 8005c4a:	4770      	bx	lr

08005c4c <TIM_DeInit>:
 8005c4c:	b500      	push	{lr}
 8005c4e:	b082      	sub	sp, #8
 8005c50:	9001      	str	r0, [sp, #4]
 8005c52:	ab01      	add	r3, sp, #4
 8005c54:	681b      	ldr	r3, [r3, #0]
 8005c56:	9300      	str	r3, [sp, #0]
 8005c58:	4b49      	ldr	r3, [pc, #292]	(8005d80 <TIM_DeInit+0x134>)
 8005c5a:	9a00      	ldr	r2, [sp, #0]
 8005c5c:	429a      	cmp	r2, r3
 8005c5e:	d05a      	beq.n	8005d16 <TIM_DeInit+0xca>
 8005c60:	4b47      	ldr	r3, [pc, #284]	(8005d80 <TIM_DeInit+0x134>)
 8005c62:	9a00      	ldr	r2, [sp, #0]
 8005c64:	429a      	cmp	r2, r3
 8005c66:	d80c      	bhi.n	8005c82 <TIM_DeInit+0x36>
 8005c68:	4b46      	ldr	r3, [pc, #280]	(8005d84 <TIM_DeInit+0x138>)
 8005c6a:	9a00      	ldr	r2, [sp, #0]
 8005c6c:	429a      	cmp	r2, r3
 8005c6e:	d038      	beq.n	8005ce2 <TIM_DeInit+0x96>
 8005c70:	4b45      	ldr	r3, [pc, #276]	(8005d88 <TIM_DeInit+0x13c>)
 8005c72:	9a00      	ldr	r2, [sp, #0]
 8005c74:	429a      	cmp	r2, r3
 8005c76:	d041      	beq.n	8005cfc <TIM_DeInit+0xb0>
 8005c78:	9b00      	ldr	r3, [sp, #0]
 8005c7a:	f1b3 4f80 	cmp.w	r3, #1073741824	; 0x40000000
 8005c7e:	d023      	beq.n	8005cc8 <TIM_DeInit+0x7c>
 8005c80:	e07c      	b.n	8005d7c <TIM_DeInit+0x130>
 8005c82:	4b42      	ldr	r3, [pc, #264]	(8005d8c <TIM_DeInit+0x140>)
 8005c84:	9a00      	ldr	r2, [sp, #0]
 8005c86:	429a      	cmp	r2, r3
 8005c88:	d05f      	beq.n	8005d4a <TIM_DeInit+0xfe>
 8005c8a:	4b40      	ldr	r3, [pc, #256]	(8005d8c <TIM_DeInit+0x140>)
 8005c8c:	9a00      	ldr	r2, [sp, #0]
 8005c8e:	429a      	cmp	r2, r3
 8005c90:	d804      	bhi.n	8005c9c <TIM_DeInit+0x50>
 8005c92:	4b3f      	ldr	r3, [pc, #252]	(8005d90 <TIM_DeInit+0x144>)
 8005c94:	9a00      	ldr	r2, [sp, #0]
 8005c96:	429a      	cmp	r2, r3
 8005c98:	d04a      	beq.n	8005d30 <TIM_DeInit+0xe4>
 8005c9a:	e06f      	b.n	8005d7c <TIM_DeInit+0x130>
 8005c9c:	4b3d      	ldr	r3, [pc, #244]	(8005d94 <TIM_DeInit+0x148>)
 8005c9e:	9a00      	ldr	r2, [sp, #0]
 8005ca0:	429a      	cmp	r2, r3
 8005ca2:	d004      	beq.n	8005cae <TIM_DeInit+0x62>
 8005ca4:	4b3c      	ldr	r3, [pc, #240]	(8005d98 <TIM_DeInit+0x14c>)
 8005ca6:	9a00      	ldr	r2, [sp, #0]
 8005ca8:	429a      	cmp	r2, r3
 8005caa:	d05b      	beq.n	8005d64 <TIM_DeInit+0x118>
 8005cac:	e066      	b.n	8005d7c <TIM_DeInit+0x130>
 8005cae:	f44f 6000 	mov.w	r0, #2048	; 0x800
 8005cb2:	f04f 0101 	mov.w	r1, #1	; 0x1
 8005cb6:	f7fd fbe9 	bl	800348c <RCC_APB2PeriphResetCmd>
 8005cba:	f44f 6000 	mov.w	r0, #2048	; 0x800
 8005cbe:	f04f 0100 	mov.w	r1, #0	; 0x0
 8005cc2:	f7fd fbe3 	bl	800348c <RCC_APB2PeriphResetCmd>
 8005cc6:	e059      	b.n	8005d7c <TIM_DeInit+0x130>
 8005cc8:	f04f 0001 	mov.w	r0, #1	; 0x1
 8005ccc:	f04f 0101 	mov.w	r1, #1	; 0x1
 8005cd0:	f7fd fbf8 	bl	80034c4 <RCC_APB1PeriphResetCmd>
 8005cd4:	f04f 0001 	mov.w	r0, #1	; 0x1
 8005cd8:	f04f 0100 	mov.w	r1, #0	; 0x0
 8005cdc:	f7fd fbf2 	bl	80034c4 <RCC_APB1PeriphResetCmd>
 8005ce0:	e04c      	b.n	8005d7c <TIM_DeInit+0x130>
 8005ce2:	f04f 0002 	mov.w	r0, #2	; 0x2
 8005ce6:	f04f 0101 	mov.w	r1, #1	; 0x1
 8005cea:	f7fd fbeb 	bl	80034c4 <RCC_APB1PeriphResetCmd>
 8005cee:	f04f 0002 	mov.w	r0, #2	; 0x2
 8005cf2:	f04f 0100 	mov.w	r1, #0	; 0x0
 8005cf6:	f7fd fbe5 	bl	80034c4 <RCC_APB1PeriphResetCmd>
 8005cfa:	e03f      	b.n	8005d7c <TIM_DeInit+0x130>
 8005cfc:	f04f 0004 	mov.w	r0, #4	; 0x4
 8005d00:	f04f 0101 	mov.w	r1, #1	; 0x1
 8005d04:	f7fd fbde 	bl	80034c4 <RCC_APB1PeriphResetCmd>
 8005d08:	f04f 0004 	mov.w	r0, #4	; 0x4
 8005d0c:	f04f 0100 	mov.w	r1, #0	; 0x0
 8005d10:	f7fd fbd8 	bl	80034c4 <RCC_APB1PeriphResetCmd>
 8005d14:	e032      	b.n	8005d7c <TIM_DeInit+0x130>
 8005d16:	f04f 0008 	mov.w	r0, #8	; 0x8
 8005d1a:	f04f 0101 	mov.w	r1, #1	; 0x1
 8005d1e:	f7fd fbd1 	bl	80034c4 <RCC_APB1PeriphResetCmd>
 8005d22:	f04f 0008 	mov.w	r0, #8	; 0x8
 8005d26:	f04f 0100 	mov.w	r1, #0	; 0x0
 8005d2a:	f7fd fbcb 	bl	80034c4 <RCC_APB1PeriphResetCmd>
 8005d2e:	e025      	b.n	8005d7c <TIM_DeInit+0x130>
 8005d30:	f04f 0010 	mov.w	r0, #16	; 0x10
 8005d34:	f04f 0101 	mov.w	r1, #1	; 0x1
 8005d38:	f7fd fbc4 	bl	80034c4 <RCC_APB1PeriphResetCmd>
 8005d3c:	f04f 0010 	mov.w	r0, #16	; 0x10
 8005d40:	f04f 0100 	mov.w	r1, #0	; 0x0
 8005d44:	f7fd fbbe 	bl	80034c4 <RCC_APB1PeriphResetCmd>
 8005d48:	e018      	b.n	8005d7c <TIM_DeInit+0x130>
 8005d4a:	f04f 0020 	mov.w	r0, #32	; 0x20
 8005d4e:	f04f 0101 	mov.w	r1, #1	; 0x1
 8005d52:	f7fd fbb7 	bl	80034c4 <RCC_APB1PeriphResetCmd>
 8005d56:	f04f 0020 	mov.w	r0, #32	; 0x20
 8005d5a:	f04f 0100 	mov.w	r1, #0	; 0x0
 8005d5e:	f7fd fbb1 	bl	80034c4 <RCC_APB1PeriphResetCmd>
 8005d62:	e00b      	b.n	8005d7c <TIM_DeInit+0x130>
 8005d64:	f44f 5000 	mov.w	r0, #8192	; 0x2000
 8005d68:	f04f 0101 	mov.w	r1, #1	; 0x1
 8005d6c:	f7fd fb8e 	bl	800348c <RCC_APB2PeriphResetCmd>
 8005d70:	f44f 5000 	mov.w	r0, #8192	; 0x2000
 8005d74:	f04f 0100 	mov.w	r1, #0	; 0x0
 8005d78:	f7fd fb88 	bl	800348c <RCC_APB2PeriphResetCmd>
 8005d7c:	b002      	add	sp, #8
 8005d7e:	bd00      	pop	{pc}
 8005d80:	40000c00 	.word	0x40000c00
 8005d84:	40000400 	.word	0x40000400
 8005d88:	40000800 	.word	0x40000800
 8005d8c:	40001400 	.word	0x40001400
 8005d90:	40001000 	.word	0x40001000
 8005d94:	40012c00 	.word	0x40012c00
 8005d98:	40013400 	.word	0x40013400

08005d9c <TIM_TimeBaseInit>:
 8005d9c:	b082      	sub	sp, #8
 8005d9e:	9001      	str	r0, [sp, #4]
 8005da0:	9100      	str	r1, [sp, #0]
 8005da2:	9a01      	ldr	r2, [sp, #4]
 8005da4:	9b01      	ldr	r3, [sp, #4]
 8005da6:	881b      	ldrh	r3, [r3, #0]
 8005da8:	b29b      	uxth	r3, r3
 8005daa:	f003 038f 	and.w	r3, r3, #143	; 0x8f
 8005dae:	8013      	strh	r3, [r2, #0]
 8005db0:	9801      	ldr	r0, [sp, #4]
 8005db2:	9b01      	ldr	r3, [sp, #4]
 8005db4:	881b      	ldrh	r3, [r3, #0]
 8005db6:	b299      	uxth	r1, r3
 8005db8:	9b00      	ldr	r3, [sp, #0]
 8005dba:	88da      	ldrh	r2, [r3, #6]
 8005dbc:	9b00      	ldr	r3, [sp, #0]
 8005dbe:	885b      	ldrh	r3, [r3, #2]
 8005dc0:	ea42 0303 	orr.w	r3, r2, r3
 8005dc4:	b29b      	uxth	r3, r3
 8005dc6:	ea41 0303 	orr.w	r3, r1, r3
 8005dca:	b29b      	uxth	r3, r3
 8005dcc:	8003      	strh	r3, [r0, #0]
 8005dce:	9a01      	ldr	r2, [sp, #4]
 8005dd0:	9b00      	ldr	r3, [sp, #0]
 8005dd2:	889b      	ldrh	r3, [r3, #4]
 8005dd4:	8593      	strh	r3, [r2, #44]
 8005dd6:	9a01      	ldr	r2, [sp, #4]
 8005dd8:	9b00      	ldr	r3, [sp, #0]
 8005dda:	881b      	ldrh	r3, [r3, #0]
 8005ddc:	8513      	strh	r3, [r2, #40]
 8005dde:	ab01      	add	r3, sp, #4
 8005de0:	681a      	ldr	r2, [r3, #0]
 8005de2:	4b09      	ldr	r3, [pc, #36]	(8005e08 <TIM_TimeBaseInit+0x6c>)
 8005de4:	429a      	cmp	r2, r3
 8005de6:	d004      	beq.n	8005df2 <TIM_TimeBaseInit+0x56>
 8005de8:	ab01      	add	r3, sp, #4
 8005dea:	681a      	ldr	r2, [r3, #0]
 8005dec:	4b07      	ldr	r3, [pc, #28]	(8005e0c <TIM_TimeBaseInit+0x70>)
 8005dee:	429a      	cmp	r2, r3
 8005df0:	d103      	bne.n	8005dfa <TIM_TimeBaseInit+0x5e>
 8005df2:	9a01      	ldr	r2, [sp, #4]
 8005df4:	9b00      	ldr	r3, [sp, #0]
 8005df6:	7a1b      	ldrb	r3, [r3, #8]
 8005df8:	8613      	strh	r3, [r2, #48]
 8005dfa:	9b01      	ldr	r3, [sp, #4]
 8005dfc:	f04f 0201 	mov.w	r2, #1	; 0x1
 8005e00:	829a      	strh	r2, [r3, #20]
 8005e02:	b002      	add	sp, #8
 8005e04:	4770      	bx	lr
 8005e06:	46c0      	nop			(mov r8, r8)
 8005e08:	40012c00 	.word	0x40012c00
 8005e0c:	40013400 	.word	0x40013400

08005e10 <TIM_OC1Init>:
 8005e10:	b085      	sub	sp, #20
 8005e12:	9002      	str	r0, [sp, #8]
 8005e14:	9101      	str	r1, [sp, #4]
 8005e16:	f04f 0300 	mov.w	r3, #0	; 0x0
 8005e1a:	f8ad 300e 	strh.w	r3, [sp, #14]
 8005e1e:	f04f 0300 	mov.w	r3, #0	; 0x0
 8005e22:	f8ad 3010 	strh.w	r3, [sp, #16]
 8005e26:	f04f 0300 	mov.w	r3, #0	; 0x0
 8005e2a:	f8ad 3012 	strh.w	r3, [sp, #18]
 8005e2e:	9a02      	ldr	r2, [sp, #8]
 8005e30:	9b02      	ldr	r3, [sp, #8]
 8005e32:	8c1b      	ldrh	r3, [r3, #32]
 8005e34:	b29b      	uxth	r3, r3
 8005e36:	9300      	str	r3, [sp, #0]
 8005e38:	f64f 73fe 	movw	r3, #65534	; 0xfffe
 8005e3c:	9900      	ldr	r1, [sp, #0]
 8005e3e:	ea01 0303 	and.w	r3, r1, r3
 8005e42:	9300      	str	r3, [sp, #0]
 8005e44:	9900      	ldr	r1, [sp, #0]
 8005e46:	460b      	mov	r3, r1
 8005e48:	8413      	strh	r3, [r2, #32]
 8005e4a:	9b02      	ldr	r3, [sp, #8]
 8005e4c:	8c1b      	ldrh	r3, [r3, #32]
 8005e4e:	f8ad 3010 	strh.w	r3, [sp, #16]
 8005e52:	9b02      	ldr	r3, [sp, #8]
 8005e54:	889b      	ldrh	r3, [r3, #4]
 8005e56:	f8ad 3012 	strh.w	r3, [sp, #18]
 8005e5a:	9b02      	ldr	r3, [sp, #8]
 8005e5c:	8b1b      	ldrh	r3, [r3, #24]
 8005e5e:	f8ad 300e 	strh.w	r3, [sp, #14]
 8005e62:	f8bd 300e 	ldrh.w	r3, [sp, #14]
 8005e66:	f023 0370 	bic.w	r3, r3, #112	; 0x70
 8005e6a:	f8ad 300e 	strh.w	r3, [sp, #14]
 8005e6e:	9b01      	ldr	r3, [sp, #4]
 8005e70:	881a      	ldrh	r2, [r3, #0]
 8005e72:	f8bd 300e 	ldrh.w	r3, [sp, #14]
 8005e76:	ea42 0303 	orr.w	r3, r2, r3
 8005e7a:	f8ad 300e 	strh.w	r3, [sp, #14]
 8005e7e:	f8bd 3010 	ldrh.w	r3, [sp, #16]
 8005e82:	f023 0302 	bic.w	r3, r3, #2	; 0x2
 8005e86:	f8ad 3010 	strh.w	r3, [sp, #16]
 8005e8a:	9b01      	ldr	r3, [sp, #4]
 8005e8c:	891a      	ldrh	r2, [r3, #8]
 8005e8e:	f8bd 3010 	ldrh.w	r3, [sp, #16]
 8005e92:	ea42 0303 	orr.w	r3, r2, r3
 8005e96:	f8ad 3010 	strh.w	r3, [sp, #16]
 8005e9a:	9b01      	ldr	r3, [sp, #4]
 8005e9c:	885a      	ldrh	r2, [r3, #2]
 8005e9e:	f8bd 3010 	ldrh.w	r3, [sp, #16]
 8005ea2:	ea42 0303 	orr.w	r3, r2, r3
 8005ea6:	f8ad 3010 	strh.w	r3, [sp, #16]
 8005eaa:	9a02      	ldr	r2, [sp, #8]
 8005eac:	9b01      	ldr	r3, [sp, #4]
 8005eae:	88db      	ldrh	r3, [r3, #6]
 8005eb0:	8693      	strh	r3, [r2, #52]
 8005eb2:	ab02      	add	r3, sp, #8
 8005eb4:	681a      	ldr	r2, [r3, #0]
 8005eb6:	4b2b      	ldr	r3, [pc, #172]	(8005f64 <TIM_OC1Init+0x154>)
 8005eb8:	429a      	cmp	r2, r3
 8005eba:	d004      	beq.n	8005ec6 <TIM_OC1Init+0xb6>
 8005ebc:	ab02      	add	r3, sp, #8
 8005ebe:	681a      	ldr	r2, [r3, #0]
 8005ec0:	4b29      	ldr	r3, [pc, #164]	(8005f68 <TIM_OC1Init+0x158>)
 8005ec2:	429a      	cmp	r2, r3
 8005ec4:	d13f      	bne.n	8005f46 <TIM_OC1Init+0x136>
 8005ec6:	f8bd 3010 	ldrh.w	r3, [sp, #16]
 8005eca:	f023 0308 	bic.w	r3, r3, #8	; 0x8
 8005ece:	f8ad 3010 	strh.w	r3, [sp, #16]
 8005ed2:	9b01      	ldr	r3, [sp, #4]
 8005ed4:	895a      	ldrh	r2, [r3, #10]
 8005ed6:	f8bd 3010 	ldrh.w	r3, [sp, #16]
 8005eda:	ea42 0303 	orr.w	r3, r2, r3
 8005ede:	f8ad 3010 	strh.w	r3, [sp, #16]
 8005ee2:	f8bd 3010 	ldrh.w	r3, [sp, #16]
 8005ee6:	f023 0304 	bic.w	r3, r3, #4	; 0x4
 8005eea:	f8ad 3010 	strh.w	r3, [sp, #16]
 8005eee:	9b01      	ldr	r3, [sp, #4]
 8005ef0:	889a      	ldrh	r2, [r3, #4]
 8005ef2:	f8bd 3010 	ldrh.w	r3, [sp, #16]
 8005ef6:	ea42 0303 	orr.w	r3, r2, r3
 8005efa:	f8ad 3010 	strh.w	r3, [sp, #16]
 8005efe:	f8bd 3012 	ldrh.w	r3, [sp, #18]
 8005f02:	f423 7380 	bic.w	r3, r3, #256	; 0x100
 8005f06:	ea4f 4343 	mov.w	r3, r3, lsl #17
 8005f0a:	ea4f 4353 	mov.w	r3, r3, lsr #17
 8005f0e:	f8ad 3012 	strh.w	r3, [sp, #18]
 8005f12:	f8bd 3012 	ldrh.w	r3, [sp, #18]
 8005f16:	f423 7300 	bic.w	r3, r3, #512	; 0x200
 8005f1a:	ea4f 4343 	mov.w	r3, r3, lsl #17
 8005f1e:	ea4f 4353 	mov.w	r3, r3, lsr #17
 8005f22:	f8ad 3012 	strh.w	r3, [sp, #18]
 8005f26:	9b01      	ldr	r3, [sp, #4]
 8005f28:	899a      	ldrh	r2, [r3, #12]
 8005f2a:	f8bd 3012 	ldrh.w	r3, [sp, #18]
 8005f2e:	ea42 0303 	orr.w	r3, r2, r3
 8005f32:	f8ad 3012 	strh.w	r3, [sp, #18]
 8005f36:	9b01      	ldr	r3, [sp, #4]
 8005f38:	89da      	ldrh	r2, [r3, #14]
 8005f3a:	f8bd 3012 	ldrh.w	r3, [sp, #18]
 8005f3e:	ea42 0303 	orr.w	r3, r2, r3
 8005f42:	f8ad 3012 	strh.w	r3, [sp, #18]
 8005f46:	9a02      	ldr	r2, [sp, #8]
 8005f48:	f8bd 3012 	ldrh.w	r3, [sp, #18]
 8005f4c:	8093      	strh	r3, [r2, #4]
 8005f4e:	9a02      	ldr	r2, [sp, #8]
 8005f50:	f8bd 300e 	ldrh.w	r3, [sp, #14]
 8005f54:	8313      	strh	r3, [r2, #24]
 8005f56:	9a02      	ldr	r2, [sp, #8]
 8005f58:	f8bd 3010 	ldrh.w	r3, [sp, #16]
 8005f5c:	8413      	strh	r3, [r2, #32]
 8005f5e:	b005      	add	sp, #20
 8005f60:	4770      	bx	lr
 8005f62:	46c0      	nop			(mov r8, r8)
 8005f64:	40012c00 	.word	0x40012c00
 8005f68:	40013400 	.word	0x40013400

08005f6c <TIM_OC2Init>:
 8005f6c:	b085      	sub	sp, #20
 8005f6e:	9002      	str	r0, [sp, #8]
 8005f70:	9101      	str	r1, [sp, #4]
 8005f72:	f04f 0300 	mov.w	r3, #0	; 0x0
 8005f76:	f8ad 300e 	strh.w	r3, [sp, #14]
 8005f7a:	f04f 0300 	mov.w	r3, #0	; 0x0
 8005f7e:	f8ad 3010 	strh.w	r3, [sp, #16]
 8005f82:	f04f 0300 	mov.w	r3, #0	; 0x0
 8005f86:	f8ad 3012 	strh.w	r3, [sp, #18]
 8005f8a:	9a02      	ldr	r2, [sp, #8]
 8005f8c:	9b02      	ldr	r3, [sp, #8]
 8005f8e:	8c1b      	ldrh	r3, [r3, #32]
 8005f90:	b29b      	uxth	r3, r3
 8005f92:	9300      	str	r3, [sp, #0]
 8005f94:	f64f 73ef 	movw	r3, #65519	; 0xffef
 8005f98:	9900      	ldr	r1, [sp, #0]
 8005f9a:	ea01 0303 	and.w	r3, r1, r3
 8005f9e:	9300      	str	r3, [sp, #0]
 8005fa0:	9900      	ldr	r1, [sp, #0]
 8005fa2:	460b      	mov	r3, r1
 8005fa4:	8413      	strh	r3, [r2, #32]
 8005fa6:	9b02      	ldr	r3, [sp, #8]
 8005fa8:	8c1b      	ldrh	r3, [r3, #32]
 8005faa:	f8ad 3010 	strh.w	r3, [sp, #16]
 8005fae:	9b02      	ldr	r3, [sp, #8]
 8005fb0:	889b      	ldrh	r3, [r3, #4]
 8005fb2:	f8ad 3012 	strh.w	r3, [sp, #18]
 8005fb6:	9b02      	ldr	r3, [sp, #8]
 8005fb8:	8b1b      	ldrh	r3, [r3, #24]
 8005fba:	f8ad 300e 	strh.w	r3, [sp, #14]
 8005fbe:	f8bd 300e 	ldrh.w	r3, [sp, #14]
 8005fc2:	f423 43e0 	bic.w	r3, r3, #28672	; 0x7000
 8005fc6:	f8ad 300e 	strh.w	r3, [sp, #14]
 8005fca:	9b01      	ldr	r3, [sp, #4]
 8005fcc:	881b      	ldrh	r3, [r3, #0]
 8005fce:	ea4f 2303 	mov.w	r3, r3, lsl #8
 8005fd2:	b29a      	uxth	r2, r3
 8005fd4:	f8bd 300e 	ldrh.w	r3, [sp, #14]
 8005fd8:	ea42 0303 	orr.w	r3, r2, r3
 8005fdc:	f8ad 300e 	strh.w	r3, [sp, #14]
 8005fe0:	f8bd 3010 	ldrh.w	r3, [sp, #16]
 8005fe4:	f023 0320 	bic.w	r3, r3, #32	; 0x20
 8005fe8:	f8ad 3010 	strh.w	r3, [sp, #16]
 8005fec:	9b01      	ldr	r3, [sp, #4]
 8005fee:	891b      	ldrh	r3, [r3, #8]
 8005ff0:	ea4f 1303 	mov.w	r3, r3, lsl #4
 8005ff4:	b29a      	uxth	r2, r3
 8005ff6:	f8bd 3010 	ldrh.w	r3, [sp, #16]
 8005ffa:	ea42 0303 	orr.w	r3, r2, r3
 8005ffe:	f8ad 3010 	strh.w	r3, [sp, #16]
 8006002:	9b01      	ldr	r3, [sp, #4]
 8006004:	885b      	ldrh	r3, [r3, #2]
 8006006:	ea4f 1303 	mov.w	r3, r3, lsl #4
 800600a:	b29a      	uxth	r2, r3
 800600c:	f8bd 3010 	ldrh.w	r3, [sp, #16]
 8006010:	ea42 0303 	orr.w	r3, r2, r3
 8006014:	f8ad 3010 	strh.w	r3, [sp, #16]
 8006018:	9a02      	ldr	r2, [sp, #8]
 800601a:	9b01      	ldr	r3, [sp, #4]
 800601c:	88db      	ldrh	r3, [r3, #6]
 800601e:	8713      	strh	r3, [r2, #56]
 8006020:	ab02      	add	r3, sp, #8
 8006022:	681a      	ldr	r2, [r3, #0]
 8006024:	4b30      	ldr	r3, [pc, #192]	(80060e8 <TIM_OC2Init+0x17c>)
 8006026:	429a      	cmp	r2, r3
 8006028:	d004      	beq.n	8006034 <TIM_OC2Init+0xc8>
 800602a:	ab02      	add	r3, sp, #8
 800602c:	681a      	ldr	r2, [r3, #0]
 800602e:	4b2f      	ldr	r3, [pc, #188]	(80060ec <TIM_OC2Init+0x180>)
 8006030:	429a      	cmp	r2, r3
 8006032:	d14b      	bne.n	80060cc <TIM_OC2Init+0x160>
 8006034:	f8bd 3010 	ldrh.w	r3, [sp, #16]
 8006038:	f023 0380 	bic.w	r3, r3, #128	; 0x80
 800603c:	f8ad 3010 	strh.w	r3, [sp, #16]
 8006040:	9b01      	ldr	r3, [sp, #4]
 8006042:	895b      	ldrh	r3, [r3, #10]
 8006044:	ea4f 1303 	mov.w	r3, r3, lsl #4
 8006048:	b29a      	uxth	r2, r3
 800604a:	f8bd 3010 	ldrh.w	r3, [sp, #16]
 800604e:	ea42 0303 	orr.w	r3, r2, r3
 8006052:	f8ad 3010 	strh.w	r3, [sp, #16]
 8006056:	f8bd 3010 	ldrh.w	r3, [sp, #16]
 800605a:	f023 0340 	bic.w	r3, r3, #64	; 0x40
 800605e:	f8ad 3010 	strh.w	r3, [sp, #16]
 8006062:	9b01      	ldr	r3, [sp, #4]
 8006064:	889b      	ldrh	r3, [r3, #4]
 8006066:	ea4f 1303 	mov.w	r3, r3, lsl #4
 800606a:	b29a      	uxth	r2, r3
 800606c:	f8bd 3010 	ldrh.w	r3, [sp, #16]
 8006070:	ea42 0303 	orr.w	r3, r2, r3
 8006074:	f8ad 3010 	strh.w	r3, [sp, #16]
 8006078:	f8bd 3012 	ldrh.w	r3, [sp, #18]
 800607c:	f423 6380 	bic.w	r3, r3, #1024	; 0x400
 8006080:	ea4f 4343 	mov.w	r3, r3, lsl #17
 8006084:	ea4f 4353 	mov.w	r3, r3, lsr #17
 8006088:	f8ad 3012 	strh.w	r3, [sp, #18]
 800608c:	f8bd 3012 	ldrh.w	r3, [sp, #18]
 8006090:	f423 6300 	bic.w	r3, r3, #2048	; 0x800
 8006094:	ea4f 4343 	mov.w	r3, r3, lsl #17
 8006098:	ea4f 4353 	mov.w	r3, r3, lsr #17
 800609c:	f8ad 3012 	strh.w	r3, [sp, #18]
 80060a0:	9b01      	ldr	r3, [sp, #4]
 80060a2:	899b      	ldrh	r3, [r3, #12]
 80060a4:	ea4f 0383 	mov.w	r3, r3, lsl #2
 80060a8:	b29a      	uxth	r2, r3
 80060aa:	f8bd 3012 	ldrh.w	r3, [sp, #18]
 80060ae:	ea42 0303 	orr.w	r3, r2, r3
 80060b2:	f8ad 3012 	strh.w	r3, [sp, #18]
 80060b6:	9b01      	ldr	r3, [sp, #4]
 80060b8:	89db      	ldrh	r3, [r3, #14]
 80060ba:	ea4f 0383 	mov.w	r3, r3, lsl #2
 80060be:	b29a      	uxth	r2, r3
 80060c0:	f8bd 3012 	ldrh.w	r3, [sp, #18]
 80060c4:	ea42 0303 	orr.w	r3, r2, r3
 80060c8:	f8ad 3012 	strh.w	r3, [sp, #18]
 80060cc:	9a02      	ldr	r2, [sp, #8]
 80060ce:	f8bd 3012 	ldrh.w	r3, [sp, #18]
 80060d2:	8093      	strh	r3, [r2, #4]
 80060d4:	9a02      	ldr	r2, [sp, #8]
 80060d6:	f8bd 300e 	ldrh.w	r3, [sp, #14]
 80060da:	8313      	strh	r3, [r2, #24]
 80060dc:	9a02      	ldr	r2, [sp, #8]
 80060de:	f8bd 3010 	ldrh.w	r3, [sp, #16]
 80060e2:	8413      	strh	r3, [r2, #32]
 80060e4:	b005      	add	sp, #20
 80060e6:	4770      	bx	lr
 80060e8:	40012c00 	.word	0x40012c00
 80060ec:	40013400 	.word	0x40013400

080060f0 <TIM_OC3Init>:
 80060f0:	b085      	sub	sp, #20
 80060f2:	9002      	str	r0, [sp, #8]
 80060f4:	9101      	str	r1, [sp, #4]
 80060f6:	f04f 0300 	mov.w	r3, #0	; 0x0
 80060fa:	f8ad 300e 	strh.w	r3, [sp, #14]
 80060fe:	f04f 0300 	mov.w	r3, #0	; 0x0
 8006102:	f8ad 3010 	strh.w	r3, [sp, #16]
 8006106:	f04f 0300 	mov.w	r3, #0	; 0x0
 800610a:	f8ad 3012 	strh.w	r3, [sp, #18]
 800610e:	9a02      	ldr	r2, [sp, #8]
 8006110:	9b02      	ldr	r3, [sp, #8]
 8006112:	8c1b      	ldrh	r3, [r3, #32]
 8006114:	b29b      	uxth	r3, r3
 8006116:	9300      	str	r3, [sp, #0]
 8006118:	f64f 63ff 	movw	r3, #65279	; 0xfeff
 800611c:	9900      	ldr	r1, [sp, #0]
 800611e:	ea01 0303 	and.w	r3, r1, r3
 8006122:	9300      	str	r3, [sp, #0]
 8006124:	9900      	ldr	r1, [sp, #0]
 8006126:	460b      	mov	r3, r1
 8006128:	8413      	strh	r3, [r2, #32]
 800612a:	9b02      	ldr	r3, [sp, #8]
 800612c:	8c1b      	ldrh	r3, [r3, #32]
 800612e:	f8ad 3010 	strh.w	r3, [sp, #16]
 8006132:	9b02      	ldr	r3, [sp, #8]
 8006134:	889b      	ldrh	r3, [r3, #4]
 8006136:	f8ad 3012 	strh.w	r3, [sp, #18]
 800613a:	9b02      	ldr	r3, [sp, #8]
 800613c:	8b9b      	ldrh	r3, [r3, #28]
 800613e:	f8ad 300e 	strh.w	r3, [sp, #14]
 8006142:	f8bd 300e 	ldrh.w	r3, [sp, #14]
 8006146:	f023 0370 	bic.w	r3, r3, #112	; 0x70
 800614a:	f8ad 300e 	strh.w	r3, [sp, #14]
 800614e:	9b01      	ldr	r3, [sp, #4]
 8006150:	881a      	ldrh	r2, [r3, #0]
 8006152:	f8bd 300e 	ldrh.w	r3, [sp, #14]
 8006156:	ea42 0303 	orr.w	r3, r2, r3
 800615a:	f8ad 300e 	strh.w	r3, [sp, #14]
 800615e:	f8bd 3010 	ldrh.w	r3, [sp, #16]
 8006162:	f423 7300 	bic.w	r3, r3, #512	; 0x200
 8006166:	f8ad 3010 	strh.w	r3, [sp, #16]
 800616a:	9b01      	ldr	r3, [sp, #4]
 800616c:	891b      	ldrh	r3, [r3, #8]
 800616e:	ea4f 2303 	mov.w	r3, r3, lsl #8
 8006172:	b29a      	uxth	r2, r3
 8006174:	f8bd 3010 	ldrh.w	r3, [sp, #16]
 8006178:	ea42 0303 	orr.w	r3, r2, r3
 800617c:	f8ad 3010 	strh.w	r3, [sp, #16]
 8006180:	9b01      	ldr	r3, [sp, #4]
 8006182:	885b      	ldrh	r3, [r3, #2]
 8006184:	ea4f 2303 	mov.w	r3, r3, lsl #8
 8006188:	b29a      	uxth	r2, r3
 800618a:	f8bd 3010 	ldrh.w	r3, [sp, #16]
 800618e:	ea42 0303 	orr.w	r3, r2, r3
 8006192:	f8ad 3010 	strh.w	r3, [sp, #16]
 8006196:	9a02      	ldr	r2, [sp, #8]
 8006198:	9b01      	ldr	r3, [sp, #4]
 800619a:	88db      	ldrh	r3, [r3, #6]
 800619c:	8793      	strh	r3, [r2, #60]
 800619e:	ab02      	add	r3, sp, #8
 80061a0:	681a      	ldr	r2, [r3, #0]
 80061a2:	4b31      	ldr	r3, [pc, #196]	(8006268 <TIM_OC3Init+0x178>)
 80061a4:	429a      	cmp	r2, r3
 80061a6:	d004      	beq.n	80061b2 <TIM_OC3Init+0xc2>
 80061a8:	ab02      	add	r3, sp, #8
 80061aa:	681a      	ldr	r2, [r3, #0]
 80061ac:	4b2f      	ldr	r3, [pc, #188]	(800626c <TIM_OC3Init+0x17c>)
 80061ae:	429a      	cmp	r2, r3
 80061b0:	d14b      	bne.n	800624a <TIM_OC3Init+0x15a>
 80061b2:	f8bd 3010 	ldrh.w	r3, [sp, #16]
 80061b6:	f423 6300 	bic.w	r3, r3, #2048	; 0x800
 80061ba:	f8ad 3010 	strh.w	r3, [sp, #16]
 80061be:	9b01      	ldr	r3, [sp, #4]
 80061c0:	895b      	ldrh	r3, [r3, #10]
 80061c2:	ea4f 2303 	mov.w	r3, r3, lsl #8
 80061c6:	b29a      	uxth	r2, r3
 80061c8:	f8bd 3010 	ldrh.w	r3, [sp, #16]
 80061cc:	ea42 0303 	orr.w	r3, r2, r3
 80061d0:	f8ad 3010 	strh.w	r3, [sp, #16]
 80061d4:	f8bd 3010 	ldrh.w	r3, [sp, #16]
 80061d8:	f423 6380 	bic.w	r3, r3, #1024	; 0x400
 80061dc:	f8ad 3010 	strh.w	r3, [sp, #16]
 80061e0:	9b01      	ldr	r3, [sp, #4]
 80061e2:	889b      	ldrh	r3, [r3, #4]
 80061e4:	ea4f 2303 	mov.w	r3, r3, lsl #8
 80061e8:	b29a      	uxth	r2, r3
 80061ea:	f8bd 3010 	ldrh.w	r3, [sp, #16]
 80061ee:	ea42 0303 	orr.w	r3, r2, r3
 80061f2:	f8ad 3010 	strh.w	r3, [sp, #16]
 80061f6:	f8bd 3012 	ldrh.w	r3, [sp, #18]
 80061fa:	f423 5380 	bic.w	r3, r3, #4096	; 0x1000
 80061fe:	ea4f 4343 	mov.w	r3, r3, lsl #17
 8006202:	ea4f 4353 	mov.w	r3, r3, lsr #17
 8006206:	f8ad 3012 	strh.w	r3, [sp, #18]
 800620a:	f8bd 3012 	ldrh.w	r3, [sp, #18]
 800620e:	f423 5300 	bic.w	r3, r3, #8192	; 0x2000
 8006212:	ea4f 4343 	mov.w	r3, r3, lsl #17
 8006216:	ea4f 4353 	mov.w	r3, r3, lsr #17
 800621a:	f8ad 3012 	strh.w	r3, [sp, #18]
 800621e:	9b01      	ldr	r3, [sp, #4]
 8006220:	899b      	ldrh	r3, [r3, #12]
 8006222:	ea4f 1303 	mov.w	r3, r3, lsl #4
 8006226:	b29a      	uxth	r2, r3
 8006228:	f8bd 3012 	ldrh.w	r3, [sp, #18]
 800622c:	ea42 0303 	orr.w	r3, r2, r3
 8006230:	f8ad 3012 	strh.w	r3, [sp, #18]
 8006234:	9b01      	ldr	r3, [sp, #4]
 8006236:	89db      	ldrh	r3, [r3, #14]
 8006238:	ea4f 1303 	mov.w	r3, r3, lsl #4
 800623c:	b29a      	uxth	r2, r3
 800623e:	f8bd 3012 	ldrh.w	r3, [sp, #18]
 8006242:	ea42 0303 	orr.w	r3, r2, r3
 8006246:	f8ad 3012 	strh.w	r3, [sp, #18]
 800624a:	9a02      	ldr	r2, [sp, #8]
 800624c:	f8bd 3012 	ldrh.w	r3, [sp, #18]
 8006250:	8093      	strh	r3, [r2, #4]
 8006252:	9a02      	ldr	r2, [sp, #8]
 8006254:	f8bd 300e 	ldrh.w	r3, [sp, #14]
 8006258:	8393      	strh	r3, [r2, #28]
 800625a:	9a02      	ldr	r2, [sp, #8]
 800625c:	f8bd 3010 	ldrh.w	r3, [sp, #16]
 8006260:	8413      	strh	r3, [r2, #32]
 8006262:	b005      	add	sp, #20
 8006264:	4770      	bx	lr
 8006266:	46c0      	nop			(mov r8, r8)
 8006268:	40012c00 	.word	0x40012c00
 800626c:	40013400 	.word	0x40013400

08006270 <TIM_OC4Init>:
 8006270:	b085      	sub	sp, #20
 8006272:	9002      	str	r0, [sp, #8]
 8006274:	9101      	str	r1, [sp, #4]
 8006276:	f04f 0300 	mov.w	r3, #0	; 0x0
 800627a:	f8ad 300e 	strh.w	r3, [sp, #14]
 800627e:	f04f 0300 	mov.w	r3, #0	; 0x0
 8006282:	f8ad 3010 	strh.w	r3, [sp, #16]
 8006286:	f04f 0300 	mov.w	r3, #0	; 0x0
 800628a:	f8ad 3012 	strh.w	r3, [sp, #18]
 800628e:	9a02      	ldr	r2, [sp, #8]
 8006290:	9b02      	ldr	r3, [sp, #8]
 8006292:	8c1b      	ldrh	r3, [r3, #32]
 8006294:	b29b      	uxth	r3, r3
 8006296:	9300      	str	r3, [sp, #0]
 8006298:	f64e 73ff 	movw	r3, #61439	; 0xefff
 800629c:	9900      	ldr	r1, [sp, #0]
 800629e:	ea01 0303 	and.w	r3, r1, r3
 80062a2:	9300      	str	r3, [sp, #0]
 80062a4:	9900      	ldr	r1, [sp, #0]
 80062a6:	460b      	mov	r3, r1
 80062a8:	8413      	strh	r3, [r2, #32]
 80062aa:	9b02      	ldr	r3, [sp, #8]
 80062ac:	8c1b      	ldrh	r3, [r3, #32]
 80062ae:	f8ad 3010 	strh.w	r3, [sp, #16]
 80062b2:	9b02      	ldr	r3, [sp, #8]
 80062b4:	889b      	ldrh	r3, [r3, #4]
 80062b6:	f8ad 3012 	strh.w	r3, [sp, #18]
 80062ba:	9b02      	ldr	r3, [sp, #8]
 80062bc:	8b9b      	ldrh	r3, [r3, #28]
 80062be:	f8ad 300e 	strh.w	r3, [sp, #14]
 80062c2:	f8bd 300e 	ldrh.w	r3, [sp, #14]
 80062c6:	f423 43e0 	bic.w	r3, r3, #28672	; 0x7000
 80062ca:	f8ad 300e 	strh.w	r3, [sp, #14]
 80062ce:	9b01      	ldr	r3, [sp, #4]
 80062d0:	881b      	ldrh	r3, [r3, #0]
 80062d2:	ea4f 2303 	mov.w	r3, r3, lsl #8
 80062d6:	b29a      	uxth	r2, r3
 80062d8:	f8bd 300e 	ldrh.w	r3, [sp, #14]
 80062dc:	ea42 0303 	orr.w	r3, r2, r3
 80062e0:	f8ad 300e 	strh.w	r3, [sp, #14]
 80062e4:	f8bd 3010 	ldrh.w	r3, [sp, #16]
 80062e8:	f423 5300 	bic.w	r3, r3, #8192	; 0x2000
 80062ec:	f8ad 3010 	strh.w	r3, [sp, #16]
 80062f0:	9b01      	ldr	r3, [sp, #4]
 80062f2:	891b      	ldrh	r3, [r3, #8]
 80062f4:	ea4f 3303 	mov.w	r3, r3, lsl #12
 80062f8:	b29a      	uxth	r2, r3
 80062fa:	f8bd 3010 	ldrh.w	r3, [sp, #16]
 80062fe:	ea42 0303 	orr.w	r3, r2, r3
 8006302:	f8ad 3010 	strh.w	r3, [sp, #16]
 8006306:	9b01      	ldr	r3, [sp, #4]
 8006308:	885b      	ldrh	r3, [r3, #2]
 800630a:	ea4f 3303 	mov.w	r3, r3, lsl #12
 800630e:	b29a      	uxth	r2, r3
 8006310:	f8bd 3010 	ldrh.w	r3, [sp, #16]
 8006314:	ea42 0303 	orr.w	r3, r2, r3
 8006318:	f8ad 3010 	strh.w	r3, [sp, #16]
 800631c:	9a02      	ldr	r2, [sp, #8]
 800631e:	9b01      	ldr	r3, [sp, #4]
 8006320:	88db      	ldrh	r3, [r3, #6]
 8006322:	f8a2 3040 	strh.w	r3, [r2, #64]
 8006326:	ab02      	add	r3, sp, #8
 8006328:	681a      	ldr	r2, [r3, #0]
 800632a:	4b14      	ldr	r3, [pc, #80]	(800637c <TIM_OC4Init+0x10c>)
 800632c:	429a      	cmp	r2, r3
 800632e:	d004      	beq.n	800633a <TIM_OC4Init+0xca>
 8006330:	ab02      	add	r3, sp, #8
 8006332:	681a      	ldr	r2, [r3, #0]
 8006334:	4b12      	ldr	r3, [pc, #72]	(8006380 <TIM_OC4Init+0x110>)
 8006336:	429a      	cmp	r2, r3
 8006338:	d112      	bne.n	8006360 <TIM_OC4Init+0xf0>
 800633a:	f8bd 3012 	ldrh.w	r3, [sp, #18]
 800633e:	ea4f 4383 	mov.w	r3, r3, lsl #18
 8006342:	ea4f 4393 	mov.w	r3, r3, lsr #18
 8006346:	f8ad 3012 	strh.w	r3, [sp, #18]
 800634a:	9b01      	ldr	r3, [sp, #4]
 800634c:	899b      	ldrh	r3, [r3, #12]
 800634e:	ea4f 1383 	mov.w	r3, r3, lsl #6
 8006352:	b29a      	uxth	r2, r3
 8006354:	f8bd 3012 	ldrh.w	r3, [sp, #18]
 8006358:	ea42 0303 	orr.w	r3, r2, r3
 800635c:	f8ad 3012 	strh.w	r3, [sp, #18]
 8006360:	9a02      	ldr	r2, [sp, #8]
 8006362:	f8bd 3012 	ldrh.w	r3, [sp, #18]
 8006366:	8093      	strh	r3, [r2, #4]
 8006368:	9a02      	ldr	r2, [sp, #8]
 800636a:	f8bd 300e 	ldrh.w	r3, [sp, #14]
 800636e:	8393      	strh	r3, [r2, #28]
 8006370:	9a02      	ldr	r2, [sp, #8]
 8006372:	f8bd 3010 	ldrh.w	r3, [sp, #16]
 8006376:	8413      	strh	r3, [r2, #32]
 8006378:	b005      	add	sp, #20
 800637a:	4770      	bx	lr
 800637c:	40012c00 	.word	0x40012c00
 8006380:	40013400 	.word	0x40013400

08006384 <TIM_ICInit>:
 8006384:	b500      	push	{lr}
 8006386:	b082      	sub	sp, #8
 8006388:	9001      	str	r0, [sp, #4]
 800638a:	9100      	str	r1, [sp, #0]
 800638c:	9b00      	ldr	r3, [sp, #0]
 800638e:	881b      	ldrh	r3, [r3, #0]
 8006390:	2b00      	cmp	r3, #0
 8006392:	d113      	bne.n	80063bc <TIM_ICInit+0x38>
 8006394:	9b00      	ldr	r3, [sp, #0]
 8006396:	885b      	ldrh	r3, [r3, #2]
 8006398:	461a      	mov	r2, r3
 800639a:	9b00      	ldr	r3, [sp, #0]
 800639c:	889b      	ldrh	r3, [r3, #4]
 800639e:	469c      	mov	ip, r3
 80063a0:	9b00      	ldr	r3, [sp, #0]
 80063a2:	891b      	ldrh	r3, [r3, #8]
 80063a4:	9801      	ldr	r0, [sp, #4]
 80063a6:	4611      	mov	r1, r2
 80063a8:	4662      	mov	r2, ip
 80063aa:	f001 facf 	bl	800794c <TI1_Config>
 80063ae:	9b00      	ldr	r3, [sp, #0]
 80063b0:	88db      	ldrh	r3, [r3, #6]
 80063b2:	9801      	ldr	r0, [sp, #4]
 80063b4:	4619      	mov	r1, r3
 80063b6:	f001 f98b 	bl	80076d0 <TIM_SetIC1Prescaler>
 80063ba:	e042      	b.n	8006442 <TIM_ICInit+0xbe>
 80063bc:	9b00      	ldr	r3, [sp, #0]
 80063be:	881b      	ldrh	r3, [r3, #0]
 80063c0:	2b04      	cmp	r3, #4
 80063c2:	d113      	bne.n	80063ec <TIM_ICInit+0x68>
 80063c4:	9b00      	ldr	r3, [sp, #0]
 80063c6:	885b      	ldrh	r3, [r3, #2]
 80063c8:	461a      	mov	r2, r3
 80063ca:	9b00      	ldr	r3, [sp, #0]
 80063cc:	889b      	ldrh	r3, [r3, #4]
 80063ce:	469c      	mov	ip, r3
 80063d0:	9b00      	ldr	r3, [sp, #0]
 80063d2:	891b      	ldrh	r3, [r3, #8]
 80063d4:	9801      	ldr	r0, [sp, #4]
 80063d6:	4611      	mov	r1, r2
 80063d8:	4662      	mov	r2, ip
 80063da:	f001 fb13 	bl	8007a04 <TI2_Config>
 80063de:	9b00      	ldr	r3, [sp, #0]
 80063e0:	88db      	ldrh	r3, [r3, #6]
 80063e2:	9801      	ldr	r0, [sp, #4]
 80063e4:	4619      	mov	r1, r3
 80063e6:	f001 f993 	bl	8007710 <TIM_SetIC2Prescaler>
 80063ea:	e02a      	b.n	8006442 <TIM_ICInit+0xbe>
 80063ec:	9b00      	ldr	r3, [sp, #0]
 80063ee:	881b      	ldrh	r3, [r3, #0]
 80063f0:	2b08      	cmp	r3, #8
 80063f2:	d113      	bne.n	800641c <TIM_ICInit+0x98>
 80063f4:	9b00      	ldr	r3, [sp, #0]
 80063f6:	885b      	ldrh	r3, [r3, #2]
 80063f8:	461a      	mov	r2, r3
 80063fa:	9b00      	ldr	r3, [sp, #0]
 80063fc:	889b      	ldrh	r3, [r3, #4]
 80063fe:	469c      	mov	ip, r3
 8006400:	9b00      	ldr	r3, [sp, #0]
 8006402:	891b      	ldrh	r3, [r3, #8]
 8006404:	9801      	ldr	r0, [sp, #4]
 8006406:	4611      	mov	r1, r2
 8006408:	4662      	mov	r2, ip
 800640a:	f001 fb6b 	bl	8007ae4 <TI3_Config>
 800640e:	9b00      	ldr	r3, [sp, #0]
 8006410:	88db      	ldrh	r3, [r3, #6]
 8006412:	9801      	ldr	r0, [sp, #4]
 8006414:	4619      	mov	r1, r3
 8006416:	f001 f99d 	bl	8007754 <TIM_SetIC3Prescaler>
 800641a:	e012      	b.n	8006442 <TIM_ICInit+0xbe>
 800641c:	9b00      	ldr	r3, [sp, #0]
 800641e:	885b      	ldrh	r3, [r3, #2]
 8006420:	461a      	mov	r2, r3
 8006422:	9b00      	ldr	r3, [sp, #0]
 8006424:	889b      	ldrh	r3, [r3, #4]
 8006426:	469c      	mov	ip, r3
 8006428:	9b00      	ldr	r3, [sp, #0]
 800642a:	891b      	ldrh	r3, [r3, #8]
 800642c:	9801      	ldr	r0, [sp, #4]
 800642e:	4611      	mov	r1, r2
 8006430:	4662      	mov	r2, ip
 8006432:	f001 fbbd 	bl	8007bb0 <TI4_Config>
 8006436:	9b00      	ldr	r3, [sp, #0]
 8006438:	88db      	ldrh	r3, [r3, #6]
 800643a:	9801      	ldr	r0, [sp, #4]
 800643c:	4619      	mov	r1, r3
 800643e:	f001 f9a9 	bl	8007794 <TIM_SetIC4Prescaler>
 8006442:	b002      	add	sp, #8
 8006444:	bd00      	pop	{pc}
 8006446:	46c0      	nop			(mov r8, r8)

08006448 <TIM_PWMIConfig>:
 8006448:	b500      	push	{lr}
 800644a:	b083      	sub	sp, #12
 800644c:	9001      	str	r0, [sp, #4]
 800644e:	9100      	str	r1, [sp, #0]
 8006450:	f04f 0300 	mov.w	r3, #0	; 0x0
 8006454:	f8ad 3008 	strh.w	r3, [sp, #8]
 8006458:	f04f 0301 	mov.w	r3, #1	; 0x1
 800645c:	f8ad 300a 	strh.w	r3, [sp, #10]
 8006460:	9b00      	ldr	r3, [sp, #0]
 8006462:	885b      	ldrh	r3, [r3, #2]
 8006464:	2b00      	cmp	r3, #0
 8006466:	d104      	bne.n	8006472 <TIM_PWMIConfig+0x2a>
 8006468:	f04f 0302 	mov.w	r3, #2	; 0x2
 800646c:	f8ad 3008 	strh.w	r3, [sp, #8]
 8006470:	e003      	b.n	800647a <TIM_PWMIConfig+0x32>
 8006472:	f04f 0300 	mov.w	r3, #0	; 0x0
 8006476:	f8ad 3008 	strh.w	r3, [sp, #8]
 800647a:	9b00      	ldr	r3, [sp, #0]
 800647c:	889b      	ldrh	r3, [r3, #4]
 800647e:	2b01      	cmp	r3, #1
 8006480:	d104      	bne.n	800648c <TIM_PWMIConfig+0x44>
 8006482:	f04f 0302 	mov.w	r3, #2	; 0x2
 8006486:	f8ad 300a 	strh.w	r3, [sp, #10]
 800648a:	e003      	b.n	8006494 <TIM_PWMIConfig+0x4c>
 800648c:	f04f 0301 	mov.w	r3, #1	; 0x1
 8006490:	f8ad 300a 	strh.w	r3, [sp, #10]
 8006494:	9b00      	ldr	r3, [sp, #0]
 8006496:	881b      	ldrh	r3, [r3, #0]
 8006498:	2b00      	cmp	r3, #0
 800649a:	d124      	bne.n	80064e6 <TIM_PWMIConfig+0x9e>
 800649c:	9b00      	ldr	r3, [sp, #0]
 800649e:	885b      	ldrh	r3, [r3, #2]
 80064a0:	461a      	mov	r2, r3
 80064a2:	9b00      	ldr	r3, [sp, #0]
 80064a4:	889b      	ldrh	r3, [r3, #4]
 80064a6:	469c      	mov	ip, r3
 80064a8:	9b00      	ldr	r3, [sp, #0]
 80064aa:	891b      	ldrh	r3, [r3, #8]
 80064ac:	9801      	ldr	r0, [sp, #4]
 80064ae:	4611      	mov	r1, r2
 80064b0:	4662      	mov	r2, ip
 80064b2:	f001 fa4b 	bl	800794c <TI1_Config>
 80064b6:	9b00      	ldr	r3, [sp, #0]
 80064b8:	88db      	ldrh	r3, [r3, #6]
 80064ba:	9801      	ldr	r0, [sp, #4]
 80064bc:	4619      	mov	r1, r3
 80064be:	f001 f907 	bl	80076d0 <TIM_SetIC1Prescaler>
 80064c2:	f8bd 2008 	ldrh.w	r2, [sp, #8]
 80064c6:	f8bd c00a 	ldrh.w	ip, [sp, #10]
 80064ca:	9b00      	ldr	r3, [sp, #0]
 80064cc:	891b      	ldrh	r3, [r3, #8]
 80064ce:	9801      	ldr	r0, [sp, #4]
 80064d0:	4611      	mov	r1, r2
 80064d2:	4662      	mov	r2, ip
 80064d4:	f001 fa96 	bl	8007a04 <TI2_Config>
 80064d8:	9b00      	ldr	r3, [sp, #0]
 80064da:	88db      	ldrh	r3, [r3, #6]
 80064dc:	9801      	ldr	r0, [sp, #4]
 80064de:	4619      	mov	r1, r3
 80064e0:	f001 f916 	bl	8007710 <TIM_SetIC2Prescaler>
 80064e4:	e023      	b.n	800652e <TIM_PWMIConfig+0xe6>
 80064e6:	9b00      	ldr	r3, [sp, #0]
 80064e8:	885b      	ldrh	r3, [r3, #2]
 80064ea:	461a      	mov	r2, r3
 80064ec:	9b00      	ldr	r3, [sp, #0]
 80064ee:	889b      	ldrh	r3, [r3, #4]
 80064f0:	469c      	mov	ip, r3
 80064f2:	9b00      	ldr	r3, [sp, #0]
 80064f4:	891b      	ldrh	r3, [r3, #8]
 80064f6:	9801      	ldr	r0, [sp, #4]
 80064f8:	4611      	mov	r1, r2
 80064fa:	4662      	mov	r2, ip
 80064fc:	f001 fa82 	bl	8007a04 <TI2_Config>
 8006500:	9b00      	ldr	r3, [sp, #0]
 8006502:	88db      	ldrh	r3, [r3, #6]
 8006504:	9801      	ldr	r0, [sp, #4]
 8006506:	4619      	mov	r1, r3
 8006508:	f001 f902 	bl	8007710 <TIM_SetIC2Prescaler>
 800650c:	f8bd 2008 	ldrh.w	r2, [sp, #8]
 8006510:	f8bd c00a 	ldrh.w	ip, [sp, #10]
 8006514:	9b00      	ldr	r3, [sp, #0]
 8006516:	891b      	ldrh	r3, [r3, #8]
 8006518:	9801      	ldr	r0, [sp, #4]
 800651a:	4611      	mov	r1, r2
 800651c:	4662      	mov	r2, ip
 800651e:	f001 fa15 	bl	800794c <TI1_Config>
 8006522:	9b00      	ldr	r3, [sp, #0]
 8006524:	88db      	ldrh	r3, [r3, #6]
 8006526:	9801      	ldr	r0, [sp, #4]
 8006528:	4619      	mov	r1, r3
 800652a:	f001 f8d1 	bl	80076d0 <TIM_SetIC1Prescaler>
 800652e:	b003      	add	sp, #12
 8006530:	bd00      	pop	{pc}
 8006532:	46c0      	nop			(mov r8, r8)

08006534 <TIM_BDTRConfig>:
 8006534:	b082      	sub	sp, #8
 8006536:	9001      	str	r0, [sp, #4]
 8006538:	9100      	str	r1, [sp, #0]
 800653a:	9b00      	ldr	r3, [sp, #0]
 800653c:	881a      	ldrh	r2, [r3, #0]
 800653e:	9b00      	ldr	r3, [sp, #0]
 8006540:	885b      	ldrh	r3, [r3, #2]
 8006542:	ea42 0303 	orr.w	r3, r2, r3
 8006546:	b29a      	uxth	r2, r3
 8006548:	9b00      	ldr	r3, [sp, #0]
 800654a:	889b      	ldrh	r3, [r3, #4]
 800654c:	ea42 0303 	orr.w	r3, r2, r3
 8006550:	b29a      	uxth	r2, r3
 8006552:	9b00      	ldr	r3, [sp, #0]
 8006554:	88db      	ldrh	r3, [r3, #6]
 8006556:	ea42 0303 	orr.w	r3, r2, r3
 800655a:	b29a      	uxth	r2, r3
 800655c:	9b00      	ldr	r3, [sp, #0]
 800655e:	891b      	ldrh	r3, [r3, #8]
 8006560:	ea42 0303 	orr.w	r3, r2, r3
 8006564:	b29a      	uxth	r2, r3
 8006566:	9b00      	ldr	r3, [sp, #0]
 8006568:	895b      	ldrh	r3, [r3, #10]
 800656a:	ea42 0303 	orr.w	r3, r2, r3
 800656e:	b29a      	uxth	r2, r3
 8006570:	9b00      	ldr	r3, [sp, #0]
 8006572:	899b      	ldrh	r3, [r3, #12]
 8006574:	ea42 0303 	orr.w	r3, r2, r3
 8006578:	b29b      	uxth	r3, r3
 800657a:	9a01      	ldr	r2, [sp, #4]
 800657c:	f8a2 3044 	strh.w	r3, [r2, #68]
 8006580:	b002      	add	sp, #8
 8006582:	4770      	bx	lr

08006584 <TIM_TimeBaseStructInit>:
 8006584:	b081      	sub	sp, #4
 8006586:	9000      	str	r0, [sp, #0]
 8006588:	9a00      	ldr	r2, [sp, #0]
 800658a:	f64f 73ff 	movw	r3, #65535	; 0xffff
 800658e:	8093      	strh	r3, [r2, #4]
 8006590:	9a00      	ldr	r2, [sp, #0]
 8006592:	f04f 0300 	mov.w	r3, #0	; 0x0
 8006596:	8013      	strh	r3, [r2, #0]
 8006598:	9a00      	ldr	r2, [sp, #0]
 800659a:	f04f 0300 	mov.w	r3, #0	; 0x0
 800659e:	80d3      	strh	r3, [r2, #6]
 80065a0:	9a00      	ldr	r2, [sp, #0]
 80065a2:	f04f 0300 	mov.w	r3, #0	; 0x0
 80065a6:	8053      	strh	r3, [r2, #2]
 80065a8:	9a00      	ldr	r2, [sp, #0]
 80065aa:	f04f 0300 	mov.w	r3, #0	; 0x0
 80065ae:	7213      	strb	r3, [r2, #8]
 80065b0:	b001      	add	sp, #4
 80065b2:	4770      	bx	lr

080065b4 <TIM_OCStructInit>:
 80065b4:	b081      	sub	sp, #4
 80065b6:	9000      	str	r0, [sp, #0]
 80065b8:	9a00      	ldr	r2, [sp, #0]
 80065ba:	f04f 0300 	mov.w	r3, #0	; 0x0
 80065be:	8013      	strh	r3, [r2, #0]
 80065c0:	9a00      	ldr	r2, [sp, #0]
 80065c2:	f04f 0300 	mov.w	r3, #0	; 0x0
 80065c6:	8053      	strh	r3, [r2, #2]
 80065c8:	9a00      	ldr	r2, [sp, #0]
 80065ca:	f04f 0300 	mov.w	r3, #0	; 0x0
 80065ce:	8093      	strh	r3, [r2, #4]
 80065d0:	9a00      	ldr	r2, [sp, #0]
 80065d2:	f04f 0300 	mov.w	r3, #0	; 0x0
 80065d6:	80d3      	strh	r3, [r2, #6]
 80065d8:	9a00      	ldr	r2, [sp, #0]
 80065da:	f04f 0300 	mov.w	r3, #0	; 0x0
 80065de:	8113      	strh	r3, [r2, #8]
 80065e0:	9a00      	ldr	r2, [sp, #0]
 80065e2:	f04f 0300 	mov.w	r3, #0	; 0x0
 80065e6:	8153      	strh	r3, [r2, #10]
 80065e8:	9a00      	ldr	r2, [sp, #0]
 80065ea:	f04f 0300 	mov.w	r3, #0	; 0x0
 80065ee:	8193      	strh	r3, [r2, #12]
 80065f0:	9a00      	ldr	r2, [sp, #0]
 80065f2:	f04f 0300 	mov.w	r3, #0	; 0x0
 80065f6:	81d3      	strh	r3, [r2, #14]
 80065f8:	b001      	add	sp, #4
 80065fa:	4770      	bx	lr

080065fc <TIM_ICStructInit>:
 80065fc:	b081      	sub	sp, #4
 80065fe:	9000      	str	r0, [sp, #0]
 8006600:	9a00      	ldr	r2, [sp, #0]
 8006602:	f04f 0300 	mov.w	r3, #0	; 0x0
 8006606:	8013      	strh	r3, [r2, #0]
 8006608:	9a00      	ldr	r2, [sp, #0]
 800660a:	f04f 0300 	mov.w	r3, #0	; 0x0
 800660e:	8053      	strh	r3, [r2, #2]
 8006610:	9a00      	ldr	r2, [sp, #0]
 8006612:	f04f 0301 	mov.w	r3, #1	; 0x1
 8006616:	8093      	strh	r3, [r2, #4]
 8006618:	9a00      	ldr	r2, [sp, #0]
 800661a:	f04f 0300 	mov.w	r3, #0	; 0x0
 800661e:	80d3      	strh	r3, [r2, #6]
 8006620:	9a00      	ldr	r2, [sp, #0]
 8006622:	f04f 0300 	mov.w	r3, #0	; 0x0
 8006626:	8113      	strh	r3, [r2, #8]
 8006628:	b001      	add	sp, #4
 800662a:	4770      	bx	lr

0800662c <TIM_BDTRStructInit>:
 800662c:	b081      	sub	sp, #4
 800662e:	9000      	str	r0, [sp, #0]
 8006630:	9a00      	ldr	r2, [sp, #0]
 8006632:	f04f 0300 	mov.w	r3, #0	; 0x0
 8006636:	8013      	strh	r3, [r2, #0]
 8006638:	9a00      	ldr	r2, [sp, #0]
 800663a:	f04f 0300 	mov.w	r3, #0	; 0x0
 800663e:	8053      	strh	r3, [r2, #2]
 8006640:	9a00      	ldr	r2, [sp, #0]
 8006642:	f04f 0300 	mov.w	r3, #0	; 0x0
 8006646:	8093      	strh	r3, [r2, #4]
 8006648:	9a00      	ldr	r2, [sp, #0]
 800664a:	f04f 0300 	mov.w	r3, #0	; 0x0
 800664e:	80d3      	strh	r3, [r2, #6]
 8006650:	9a00      	ldr	r2, [sp, #0]
 8006652:	f04f 0300 	mov.w	r3, #0	; 0x0
 8006656:	8113      	strh	r3, [r2, #8]
 8006658:	9a00      	ldr	r2, [sp, #0]
 800665a:	f04f 0300 	mov.w	r3, #0	; 0x0
 800665e:	8153      	strh	r3, [r2, #10]
 8006660:	9a00      	ldr	r2, [sp, #0]
 8006662:	f04f 0300 	mov.w	r3, #0	; 0x0
 8006666:	8193      	strh	r3, [r2, #12]
 8006668:	b001      	add	sp, #4
 800666a:	4770      	bx	lr

0800666c <TIM_Cmd>:
 800666c:	b083      	sub	sp, #12
 800666e:	9002      	str	r0, [sp, #8]
 8006670:	9101      	str	r1, [sp, #4]
 8006672:	9b01      	ldr	r3, [sp, #4]
 8006674:	2b00      	cmp	r3, #0
 8006676:	d008      	beq.n	800668a <TIM_Cmd+0x1e>
 8006678:	9b02      	ldr	r3, [sp, #8]
 800667a:	881b      	ldrh	r3, [r3, #0]
 800667c:	b29b      	uxth	r3, r3
 800667e:	f043 0301 	orr.w	r3, r3, #1	; 0x1
 8006682:	b29b      	uxth	r3, r3
 8006684:	9a02      	ldr	r2, [sp, #8]
 8006686:	8013      	strh	r3, [r2, #0]
 8006688:	e00d      	b.n	80066a6 <TIM_Cmd+0x3a>
 800668a:	9b02      	ldr	r3, [sp, #8]
 800668c:	881b      	ldrh	r3, [r3, #0]
 800668e:	b29b      	uxth	r3, r3
 8006690:	9300      	str	r3, [sp, #0]
 8006692:	f240 33fe 	movw	r3, #1022	; 0x3fe
 8006696:	9900      	ldr	r1, [sp, #0]
 8006698:	ea01 0303 	and.w	r3, r1, r3
 800669c:	9300      	str	r3, [sp, #0]
 800669e:	9a02      	ldr	r2, [sp, #8]
 80066a0:	9900      	ldr	r1, [sp, #0]
 80066a2:	460b      	mov	r3, r1
 80066a4:	8013      	strh	r3, [r2, #0]
 80066a6:	b003      	add	sp, #12
 80066a8:	4770      	bx	lr
 80066aa:	46c0      	nop			(mov r8, r8)

080066ac <TIM_CtrlPWMOutputs>:
 80066ac:	b083      	sub	sp, #12
 80066ae:	9002      	str	r0, [sp, #8]
 80066b0:	9101      	str	r1, [sp, #4]
 80066b2:	9b01      	ldr	r3, [sp, #4]
 80066b4:	2b00      	cmp	r3, #0
 80066b6:	d00c      	beq.n	80066d2 <TIM_CtrlPWMOutputs+0x26>
 80066b8:	9b02      	ldr	r3, [sp, #8]
 80066ba:	f8b3 3044 	ldrh.w	r3, [r3, #68]
 80066be:	b29b      	uxth	r3, r3
 80066c0:	ea6f 4343 	mvn.w	r3, r3, lsl #17
 80066c4:	ea6f 4353 	mvn.w	r3, r3, lsr #17
 80066c8:	b29b      	uxth	r3, r3
 80066ca:	9a02      	ldr	r2, [sp, #8]
 80066cc:	f8a2 3044 	strh.w	r3, [r2, #68]
 80066d0:	e00f      	b.n	80066f2 <TIM_CtrlPWMOutputs+0x46>
 80066d2:	9b02      	ldr	r3, [sp, #8]
 80066d4:	f8b3 3044 	ldrh.w	r3, [r3, #68]
 80066d8:	b29b      	uxth	r3, r3
 80066da:	9300      	str	r3, [sp, #0]
 80066dc:	9900      	ldr	r1, [sp, #0]
 80066de:	ea4f 4341 	mov.w	r3, r1, lsl #17
 80066e2:	ea4f 4353 	mov.w	r3, r3, lsr #17
 80066e6:	9300      	str	r3, [sp, #0]
 80066e8:	9a02      	ldr	r2, [sp, #8]
 80066ea:	9900      	ldr	r1, [sp, #0]
 80066ec:	460b      	mov	r3, r1
 80066ee:	f8a2 3044 	strh.w	r3, [r2, #68]
 80066f2:	b003      	add	sp, #12
 80066f4:	4770      	bx	lr
 80066f6:	46c0      	nop			(mov r8, r8)

080066f8 <TIM_ITConfig>:
 80066f8:	b083      	sub	sp, #12
 80066fa:	9002      	str	r0, [sp, #8]
 80066fc:	460b      	mov	r3, r1
 80066fe:	9200      	str	r2, [sp, #0]
 8006700:	f8ad 3004 	strh.w	r3, [sp, #4]
 8006704:	9b00      	ldr	r3, [sp, #0]
 8006706:	2b00      	cmp	r3, #0
 8006708:	d00a      	beq.n	8006720 <TIM_ITConfig+0x28>
 800670a:	9b02      	ldr	r3, [sp, #8]
 800670c:	899b      	ldrh	r3, [r3, #12]
 800670e:	b29a      	uxth	r2, r3
 8006710:	f8bd 3004 	ldrh.w	r3, [sp, #4]
 8006714:	ea42 0303 	orr.w	r3, r2, r3
 8006718:	b29b      	uxth	r3, r3
 800671a:	9a02      	ldr	r2, [sp, #8]
 800671c:	8193      	strh	r3, [r2, #12]
 800671e:	e00c      	b.n	800673a <TIM_ITConfig+0x42>
 8006720:	9b02      	ldr	r3, [sp, #8]
 8006722:	899b      	ldrh	r3, [r3, #12]
 8006724:	b29a      	uxth	r2, r3
 8006726:	f8bd 3004 	ldrh.w	r3, [sp, #4]
 800672a:	ea6f 0303 	mvn.w	r3, r3
 800672e:	b29b      	uxth	r3, r3
 8006730:	ea02 0303 	and.w	r3, r2, r3
 8006734:	b29b      	uxth	r3, r3
 8006736:	9a02      	ldr	r2, [sp, #8]
 8006738:	8193      	strh	r3, [r2, #12]
 800673a:	b003      	add	sp, #12
 800673c:	4770      	bx	lr
 800673e:	46c0      	nop			(mov r8, r8)

08006740 <TIM_GenerateEvent>:
 8006740:	b082      	sub	sp, #8
 8006742:	9001      	str	r0, [sp, #4]
 8006744:	460b      	mov	r3, r1
 8006746:	f8ad 3000 	strh.w	r3, [sp]
 800674a:	9a01      	ldr	r2, [sp, #4]
 800674c:	f8bd 3000 	ldrh.w	r3, [sp]
 8006750:	8293      	strh	r3, [r2, #20]
 8006752:	b002      	add	sp, #8
 8006754:	4770      	bx	lr
 8006756:	46c0      	nop			(mov r8, r8)

08006758 <TIM_DMAConfig>:
 8006758:	b083      	sub	sp, #12
 800675a:	9002      	str	r0, [sp, #8]
 800675c:	460b      	mov	r3, r1
 800675e:	f8ad 3004 	strh.w	r3, [sp, #4]
 8006762:	4613      	mov	r3, r2
 8006764:	f8ad 3000 	strh.w	r3, [sp]
 8006768:	f8bd 2004 	ldrh.w	r2, [sp, #4]
 800676c:	f8bd 3000 	ldrh.w	r3, [sp]
 8006770:	ea42 0303 	orr.w	r3, r2, r3
 8006774:	b29b      	uxth	r3, r3
 8006776:	9a02      	ldr	r2, [sp, #8]
 8006778:	f8a2 3048 	strh.w	r3, [r2, #72]
 800677c:	b003      	add	sp, #12
 800677e:	4770      	bx	lr

08006780 <TIM_DMACmd>:
 8006780:	b083      	sub	sp, #12
 8006782:	9002      	str	r0, [sp, #8]
 8006784:	460b      	mov	r3, r1
 8006786:	9200      	str	r2, [sp, #0]
 8006788:	f8ad 3004 	strh.w	r3, [sp, #4]
 800678c:	9b00      	ldr	r3, [sp, #0]
 800678e:	2b00      	cmp	r3, #0
 8006790:	d00a      	beq.n	80067a8 <TIM_DMACmd+0x28>
 8006792:	9b02      	ldr	r3, [sp, #8]
 8006794:	899b      	ldrh	r3, [r3, #12]
 8006796:	b29a      	uxth	r2, r3
 8006798:	f8bd 3004 	ldrh.w	r3, [sp, #4]
 800679c:	ea42 0303 	orr.w	r3, r2, r3
 80067a0:	b29b      	uxth	r3, r3
 80067a2:	9a02      	ldr	r2, [sp, #8]
 80067a4:	8193      	strh	r3, [r2, #12]
 80067a6:	e00c      	b.n	80067c2 <TIM_DMACmd+0x42>
 80067a8:	9b02      	ldr	r3, [sp, #8]
 80067aa:	899b      	ldrh	r3, [r3, #12]
 80067ac:	b29a      	uxth	r2, r3
 80067ae:	f8bd 3004 	ldrh.w	r3, [sp, #4]
 80067b2:	ea6f 0303 	mvn.w	r3, r3
 80067b6:	b29b      	uxth	r3, r3
 80067b8:	ea02 0303 	and.w	r3, r2, r3
 80067bc:	b29b      	uxth	r3, r3
 80067be:	9a02      	ldr	r2, [sp, #8]
 80067c0:	8193      	strh	r3, [r2, #12]
 80067c2:	b003      	add	sp, #12
 80067c4:	4770      	bx	lr
 80067c6:	46c0      	nop			(mov r8, r8)

080067c8 <TIM_InternalClockConfig>:
 80067c8:	b082      	sub	sp, #8
 80067ca:	9001      	str	r0, [sp, #4]
 80067cc:	9b01      	ldr	r3, [sp, #4]
 80067ce:	891b      	ldrh	r3, [r3, #8]
 80067d0:	b29b      	uxth	r3, r3
 80067d2:	9300      	str	r3, [sp, #0]
 80067d4:	f64f 73f8 	movw	r3, #65528	; 0xfff8
 80067d8:	9900      	ldr	r1, [sp, #0]
 80067da:	ea01 0303 	and.w	r3, r1, r3
 80067de:	9300      	str	r3, [sp, #0]
 80067e0:	9a01      	ldr	r2, [sp, #4]
 80067e2:	9900      	ldr	r1, [sp, #0]
 80067e4:	460b      	mov	r3, r1
 80067e6:	8113      	strh	r3, [r2, #8]
 80067e8:	b002      	add	sp, #8
 80067ea:	4770      	bx	lr

080067ec <TIM_ITRxExternalClockConfig>:
 80067ec:	b500      	push	{lr}
 80067ee:	b082      	sub	sp, #8
 80067f0:	9001      	str	r0, [sp, #4]
 80067f2:	460b      	mov	r3, r1
 80067f4:	f8ad 3000 	strh.w	r3, [sp]
 80067f8:	f8bd 3000 	ldrh.w	r3, [sp]
 80067fc:	9801      	ldr	r0, [sp, #4]
 80067fe:	4619      	mov	r1, r3
 8006800:	f000 f910 	bl	8006a24 <TIM_SelectInputTrigger>
 8006804:	9b01      	ldr	r3, [sp, #4]
 8006806:	891b      	ldrh	r3, [r3, #8]
 8006808:	b29b      	uxth	r3, r3
 800680a:	f043 0307 	orr.w	r3, r3, #7	; 0x7
 800680e:	b29b      	uxth	r3, r3
 8006810:	9a01      	ldr	r2, [sp, #4]
 8006812:	8113      	strh	r3, [r2, #8]
 8006814:	b002      	add	sp, #8
 8006816:	bd00      	pop	{pc}

08006818 <TIM_TIxExternalClockConfig>:
 8006818:	b500      	push	{lr}
 800681a:	b084      	sub	sp, #16
 800681c:	9003      	str	r0, [sp, #12]
 800681e:	4618      	mov	r0, r3
 8006820:	460b      	mov	r3, r1
 8006822:	f8ad 3008 	strh.w	r3, [sp, #8]
 8006826:	4613      	mov	r3, r2
 8006828:	f8ad 3004 	strh.w	r3, [sp, #4]
 800682c:	4603      	mov	r3, r0
 800682e:	f8ad 3000 	strh.w	r3, [sp]
 8006832:	f8bd 3008 	ldrh.w	r3, [sp, #8]
 8006836:	2b60      	cmp	r3, #96
 8006838:	d10b      	bne.n	8006852 <TIM_TIxExternalClockConfig+0x3a>
 800683a:	f8bd 3004 	ldrh.w	r3, [sp, #4]
 800683e:	f8bd c000 	ldrh.w	ip, [sp]
 8006842:	9803      	ldr	r0, [sp, #12]
 8006844:	4619      	mov	r1, r3
 8006846:	f04f 0201 	mov.w	r2, #1	; 0x1
 800684a:	4663      	mov	r3, ip
 800684c:	f001 f8da 	bl	8007a04 <TI2_Config>
 8006850:	e00a      	b.n	8006868 <TIM_TIxExternalClockConfig+0x50>
 8006852:	f8bd 3004 	ldrh.w	r3, [sp, #4]
 8006856:	f8bd c000 	ldrh.w	ip, [sp]
 800685a:	9803      	ldr	r0, [sp, #12]
 800685c:	4619      	mov	r1, r3
 800685e:	f04f 0201 	mov.w	r2, #1	; 0x1
 8006862:	4663      	mov	r3, ip
 8006864:	f001 f872 	bl	800794c <TI1_Config>
 8006868:	f8bd 3008 	ldrh.w	r3, [sp, #8]
 800686c:	9803      	ldr	r0, [sp, #12]
 800686e:	4619      	mov	r1, r3
 8006870:	f000 f8d8 	bl	8006a24 <TIM_SelectInputTrigger>
 8006874:	9b03      	ldr	r3, [sp, #12]
 8006876:	891b      	ldrh	r3, [r3, #8]
 8006878:	b29b      	uxth	r3, r3
 800687a:	f043 0307 	orr.w	r3, r3, #7	; 0x7
 800687e:	b29b      	uxth	r3, r3
 8006880:	9a03      	ldr	r2, [sp, #12]
 8006882:	8113      	strh	r3, [r2, #8]
 8006884:	b004      	add	sp, #16
 8006886:	bd00      	pop	{pc}

08006888 <TIM_ETRClockMode1Config>:
 8006888:	b500      	push	{lr}
 800688a:	b085      	sub	sp, #20
 800688c:	9003      	str	r0, [sp, #12]
 800688e:	4618      	mov	r0, r3
 8006890:	460b      	mov	r3, r1
 8006892:	f8ad 3008 	strh.w	r3, [sp, #8]
 8006896:	4613      	mov	r3, r2
 8006898:	f8ad 3004 	strh.w	r3, [sp, #4]
 800689c:	4603      	mov	r3, r0
 800689e:	f8ad 3000 	strh.w	r3, [sp]
 80068a2:	f04f 0300 	mov.w	r3, #0	; 0x0
 80068a6:	f8ad 3012 	strh.w	r3, [sp, #18]
 80068aa:	f8bd 3008 	ldrh.w	r3, [sp, #8]
 80068ae:	f8bd 2004 	ldrh.w	r2, [sp, #4]
 80068b2:	f8bd c000 	ldrh.w	ip, [sp]
 80068b6:	9803      	ldr	r0, [sp, #12]
 80068b8:	4619      	mov	r1, r3
 80068ba:	4663      	mov	r3, ip
 80068bc:	f000 f844 	bl	8006948 <TIM_ETRConfig>
 80068c0:	9b03      	ldr	r3, [sp, #12]
 80068c2:	891b      	ldrh	r3, [r3, #8]
 80068c4:	f8ad 3012 	strh.w	r3, [sp, #18]
 80068c8:	f8bd 3012 	ldrh.w	r3, [sp, #18]
 80068cc:	f023 0307 	bic.w	r3, r3, #7	; 0x7
 80068d0:	f8ad 3012 	strh.w	r3, [sp, #18]
 80068d4:	f8bd 3012 	ldrh.w	r3, [sp, #18]
 80068d8:	f043 0307 	orr.w	r3, r3, #7	; 0x7
 80068dc:	f8ad 3012 	strh.w	r3, [sp, #18]
 80068e0:	f8bd 3012 	ldrh.w	r3, [sp, #18]
 80068e4:	f023 0370 	bic.w	r3, r3, #112	; 0x70
 80068e8:	f8ad 3012 	strh.w	r3, [sp, #18]
 80068ec:	f8bd 3012 	ldrh.w	r3, [sp, #18]
 80068f0:	f043 0370 	orr.w	r3, r3, #112	; 0x70
 80068f4:	f8ad 3012 	strh.w	r3, [sp, #18]
 80068f8:	9a03      	ldr	r2, [sp, #12]
 80068fa:	f8bd 3012 	ldrh.w	r3, [sp, #18]
 80068fe:	8113      	strh	r3, [r2, #8]
 8006900:	b005      	add	sp, #20
 8006902:	bd00      	pop	{pc}

08006904 <TIM_ETRClockMode2Config>:
 8006904:	b500      	push	{lr}
 8006906:	b084      	sub	sp, #16
 8006908:	9003      	str	r0, [sp, #12]
 800690a:	4618      	mov	r0, r3
 800690c:	460b      	mov	r3, r1
 800690e:	f8ad 3008 	strh.w	r3, [sp, #8]
 8006912:	4613      	mov	r3, r2
 8006914:	f8ad 3004 	strh.w	r3, [sp, #4]
 8006918:	4603      	mov	r3, r0
 800691a:	f8ad 3000 	strh.w	r3, [sp]
 800691e:	f8bd 3008 	ldrh.w	r3, [sp, #8]
 8006922:	f8bd 2004 	ldrh.w	r2, [sp, #4]
 8006926:	f8bd c000 	ldrh.w	ip, [sp]
 800692a:	9803      	ldr	r0, [sp, #12]
 800692c:	4619      	mov	r1, r3
 800692e:	4663      	mov	r3, ip
 8006930:	f000 f80a 	bl	8006948 <TIM_ETRConfig>
 8006934:	9b03      	ldr	r3, [sp, #12]
 8006936:	891b      	ldrh	r3, [r3, #8]
 8006938:	b29b      	uxth	r3, r3
 800693a:	f443 4380 	orr.w	r3, r3, #16384	; 0x4000
 800693e:	b29b      	uxth	r3, r3
 8006940:	9a03      	ldr	r2, [sp, #12]
 8006942:	8113      	strh	r3, [r2, #8]
 8006944:	b004      	add	sp, #16
 8006946:	bd00      	pop	{pc}

08006948 <TIM_ETRConfig>:
 8006948:	b085      	sub	sp, #20
 800694a:	9003      	str	r0, [sp, #12]
 800694c:	4618      	mov	r0, r3
 800694e:	460b      	mov	r3, r1
 8006950:	f8ad 3008 	strh.w	r3, [sp, #8]
 8006954:	4613      	mov	r3, r2
 8006956:	f8ad 3004 	strh.w	r3, [sp, #4]
 800695a:	4603      	mov	r3, r0
 800695c:	f8ad 3000 	strh.w	r3, [sp]
 8006960:	f04f 0300 	mov.w	r3, #0	; 0x0
 8006964:	f8ad 3012 	strh.w	r3, [sp, #18]
 8006968:	9b03      	ldr	r3, [sp, #12]
 800696a:	891b      	ldrh	r3, [r3, #8]
 800696c:	f8ad 3012 	strh.w	r3, [sp, #18]
 8006970:	f8bd 3012 	ldrh.w	r3, [sp, #18]
 8006974:	f003 03ff 	and.w	r3, r3, #255	; 0xff
 8006978:	f8ad 3012 	strh.w	r3, [sp, #18]
 800697c:	f8bd 2008 	ldrh.w	r2, [sp, #8]
 8006980:	f8bd 3004 	ldrh.w	r3, [sp, #4]
 8006984:	ea42 0303 	orr.w	r3, r2, r3
 8006988:	b29a      	uxth	r2, r3
 800698a:	f8bd 3000 	ldrh.w	r3, [sp]
 800698e:	ea4f 2303 	mov.w	r3, r3, lsl #8
 8006992:	b29b      	uxth	r3, r3
 8006994:	ea42 0303 	orr.w	r3, r2, r3
 8006998:	b29a      	uxth	r2, r3
 800699a:	f8bd 3012 	ldrh.w	r3, [sp, #18]
 800699e:	ea42 0303 	orr.w	r3, r2, r3
 80069a2:	f8ad 3012 	strh.w	r3, [sp, #18]
 80069a6:	9a03      	ldr	r2, [sp, #12]
 80069a8:	f8bd 3012 	ldrh.w	r3, [sp, #18]
 80069ac:	8113      	strh	r3, [r2, #8]
 80069ae:	b005      	add	sp, #20
 80069b0:	4770      	bx	lr
 80069b2:	46c0      	nop			(mov r8, r8)

080069b4 <TIM_PrescalerConfig>:
 80069b4:	b083      	sub	sp, #12
 80069b6:	9002      	str	r0, [sp, #8]
 80069b8:	460b      	mov	r3, r1
 80069ba:	f8ad 3004 	strh.w	r3, [sp, #4]
 80069be:	4613      	mov	r3, r2
 80069c0:	f8ad 3000 	strh.w	r3, [sp]
 80069c4:	9a02      	ldr	r2, [sp, #8]
 80069c6:	f8bd 3004 	ldrh.w	r3, [sp, #4]
 80069ca:	8513      	strh	r3, [r2, #40]
 80069cc:	9a02      	ldr	r2, [sp, #8]
 80069ce:	f8bd 3000 	ldrh.w	r3, [sp]
 80069d2:	8293      	strh	r3, [r2, #20]
 80069d4:	b003      	add	sp, #12
 80069d6:	4770      	bx	lr

080069d8 <TIM_CounterModeConfig>:
 80069d8:	b083      	sub	sp, #12
 80069da:	9001      	str	r0, [sp, #4]
 80069dc:	460b      	mov	r3, r1
 80069de:	f8ad 3000 	strh.w	r3, [sp]
 80069e2:	f04f 0300 	mov.w	r3, #0	; 0x0
 80069e6:	f8ad 300a 	strh.w	r3, [sp, #10]
 80069ea:	9b01      	ldr	r3, [sp, #4]
 80069ec:	881b      	ldrh	r3, [r3, #0]
 80069ee:	f8ad 300a 	strh.w	r3, [sp, #10]
 80069f2:	f8bd 300a 	ldrh.w	r3, [sp, #10]
 80069f6:	f023 0370 	bic.w	r3, r3, #112	; 0x70
 80069fa:	ea4f 5383 	mov.w	r3, r3, lsl #22
 80069fe:	ea4f 5393 	mov.w	r3, r3, lsr #22
 8006a02:	f8ad 300a 	strh.w	r3, [sp, #10]
 8006a06:	f8bd 200a 	ldrh.w	r2, [sp, #10]
 8006a0a:	f8bd 3000 	ldrh.w	r3, [sp]
 8006a0e:	ea42 0303 	orr.w	r3, r2, r3
 8006a12:	f8ad 300a 	strh.w	r3, [sp, #10]
 8006a16:	9a01      	ldr	r2, [sp, #4]
 8006a18:	f8bd 300a 	ldrh.w	r3, [sp, #10]
 8006a1c:	8013      	strh	r3, [r2, #0]
 8006a1e:	b003      	add	sp, #12
 8006a20:	4770      	bx	lr
 8006a22:	46c0      	nop			(mov r8, r8)

08006a24 <TIM_SelectInputTrigger>:
 8006a24:	b083      	sub	sp, #12
 8006a26:	9001      	str	r0, [sp, #4]
 8006a28:	460b      	mov	r3, r1
 8006a2a:	f8ad 3000 	strh.w	r3, [sp]
 8006a2e:	f04f 0300 	mov.w	r3, #0	; 0x0
 8006a32:	f8ad 300a 	strh.w	r3, [sp, #10]
 8006a36:	9b01      	ldr	r3, [sp, #4]
 8006a38:	891b      	ldrh	r3, [r3, #8]
 8006a3a:	f8ad 300a 	strh.w	r3, [sp, #10]
 8006a3e:	f8bd 300a 	ldrh.w	r3, [sp, #10]
 8006a42:	f023 0370 	bic.w	r3, r3, #112	; 0x70
 8006a46:	f8ad 300a 	strh.w	r3, [sp, #10]
 8006a4a:	f8bd 200a 	ldrh.w	r2, [sp, #10]
 8006a4e:	f8bd 3000 	ldrh.w	r3, [sp]
 8006a52:	ea42 0303 	orr.w	r3, r2, r3
 8006a56:	f8ad 300a 	strh.w	r3, [sp, #10]
 8006a5a:	9a01      	ldr	r2, [sp, #4]
 8006a5c:	f8bd 300a 	ldrh.w	r3, [sp, #10]
 8006a60:	8113      	strh	r3, [r2, #8]
 8006a62:	b003      	add	sp, #12
 8006a64:	4770      	bx	lr
 8006a66:	46c0      	nop			(mov r8, r8)

08006a68 <TIM_EncoderInterfaceConfig>:
 8006a68:	b086      	sub	sp, #24
 8006a6a:	9003      	str	r0, [sp, #12]
 8006a6c:	4618      	mov	r0, r3
 8006a6e:	460b      	mov	r3, r1
 8006a70:	f8ad 3008 	strh.w	r3, [sp, #8]
 8006a74:	4613      	mov	r3, r2
 8006a76:	f8ad 3004 	strh.w	r3, [sp, #4]
 8006a7a:	4603      	mov	r3, r0
 8006a7c:	f8ad 3000 	strh.w	r3, [sp]
 8006a80:	f04f 0300 	mov.w	r3, #0	; 0x0
 8006a84:	f8ad 3012 	strh.w	r3, [sp, #18]
 8006a88:	f04f 0300 	mov.w	r3, #0	; 0x0
 8006a8c:	f8ad 3014 	strh.w	r3, [sp, #20]
 8006a90:	f04f 0300 	mov.w	r3, #0	; 0x0
 8006a94:	f8ad 3016 	strh.w	r3, [sp, #22]
 8006a98:	9b03      	ldr	r3, [sp, #12]
 8006a9a:	891b      	ldrh	r3, [r3, #8]
 8006a9c:	f8ad 3012 	strh.w	r3, [sp, #18]
 8006aa0:	9b03      	ldr	r3, [sp, #12]
 8006aa2:	8b1b      	ldrh	r3, [r3, #24]
 8006aa4:	f8ad 3014 	strh.w	r3, [sp, #20]
 8006aa8:	9b03      	ldr	r3, [sp, #12]
 8006aaa:	8c1b      	ldrh	r3, [r3, #32]
 8006aac:	f8ad 3016 	strh.w	r3, [sp, #22]
 8006ab0:	f8bd 3012 	ldrh.w	r3, [sp, #18]
 8006ab4:	f023 0307 	bic.w	r3, r3, #7	; 0x7
 8006ab8:	f8ad 3012 	strh.w	r3, [sp, #18]
 8006abc:	f8bd 2012 	ldrh.w	r2, [sp, #18]
 8006ac0:	f8bd 3008 	ldrh.w	r3, [sp, #8]
 8006ac4:	ea42 0303 	orr.w	r3, r2, r3
 8006ac8:	f8ad 3012 	strh.w	r3, [sp, #18]
 8006acc:	f8bd 3014 	ldrh.w	r3, [sp, #20]
 8006ad0:	f423 7340 	bic.w	r3, r3, #768	; 0x300
 8006ad4:	f023 0303 	bic.w	r3, r3, #3	; 0x3
 8006ad8:	f8ad 3014 	strh.w	r3, [sp, #20]
 8006adc:	f8bd 3014 	ldrh.w	r3, [sp, #20]
 8006ae0:	f443 7380 	orr.w	r3, r3, #256	; 0x100
 8006ae4:	f043 0301 	orr.w	r3, r3, #1	; 0x1
 8006ae8:	f8ad 3014 	strh.w	r3, [sp, #20]
 8006aec:	f8bd 3016 	ldrh.w	r3, [sp, #22]
 8006af0:	f023 0322 	bic.w	r3, r3, #34	; 0x22
 8006af4:	f8ad 3016 	strh.w	r3, [sp, #22]
 8006af8:	f8bd 3000 	ldrh.w	r3, [sp]
 8006afc:	ea4f 1303 	mov.w	r3, r3, lsl #4
 8006b00:	b29a      	uxth	r2, r3
 8006b02:	f8bd 3004 	ldrh.w	r3, [sp, #4]
 8006b06:	ea42 0303 	orr.w	r3, r2, r3
 8006b0a:	b29a      	uxth	r2, r3
 8006b0c:	f8bd 3016 	ldrh.w	r3, [sp, #22]
 8006b10:	ea42 0303 	orr.w	r3, r2, r3
 8006b14:	f8ad 3016 	strh.w	r3, [sp, #22]
 8006b18:	9a03      	ldr	r2, [sp, #12]
 8006b1a:	f8bd 3012 	ldrh.w	r3, [sp, #18]
 8006b1e:	8113      	strh	r3, [r2, #8]
 8006b20:	9a03      	ldr	r2, [sp, #12]
 8006b22:	f8bd 3014 	ldrh.w	r3, [sp, #20]
 8006b26:	8313      	strh	r3, [r2, #24]
 8006b28:	9a03      	ldr	r2, [sp, #12]
 8006b2a:	f8bd 3016 	ldrh.w	r3, [sp, #22]
 8006b2e:	8413      	strh	r3, [r2, #32]
 8006b30:	b006      	add	sp, #24
 8006b32:	4770      	bx	lr

08006b34 <TIM_ForcedOC1Config>:
 8006b34:	b083      	sub	sp, #12
 8006b36:	9001      	str	r0, [sp, #4]
 8006b38:	460b      	mov	r3, r1
 8006b3a:	f8ad 3000 	strh.w	r3, [sp]
 8006b3e:	f04f 0300 	mov.w	r3, #0	; 0x0
 8006b42:	f8ad 300a 	strh.w	r3, [sp, #10]
 8006b46:	9b01      	ldr	r3, [sp, #4]
 8006b48:	8b1b      	ldrh	r3, [r3, #24]
 8006b4a:	f8ad 300a 	strh.w	r3, [sp, #10]
 8006b4e:	f8bd 300a 	ldrh.w	r3, [sp, #10]
 8006b52:	f023 0370 	bic.w	r3, r3, #112	; 0x70
 8006b56:	f8ad 300a 	strh.w	r3, [sp, #10]
 8006b5a:	f8bd 200a 	ldrh.w	r2, [sp, #10]
 8006b5e:	f8bd 3000 	ldrh.w	r3, [sp]
 8006b62:	ea42 0303 	orr.w	r3, r2, r3
 8006b66:	f8ad 300a 	strh.w	r3, [sp, #10]
 8006b6a:	9a01      	ldr	r2, [sp, #4]
 8006b6c:	f8bd 300a 	ldrh.w	r3, [sp, #10]
 8006b70:	8313      	strh	r3, [r2, #24]
 8006b72:	b003      	add	sp, #12
 8006b74:	4770      	bx	lr
 8006b76:	46c0      	nop			(mov r8, r8)

08006b78 <TIM_ForcedOC2Config>:
 8006b78:	b083      	sub	sp, #12
 8006b7a:	9001      	str	r0, [sp, #4]
 8006b7c:	460b      	mov	r3, r1
 8006b7e:	f8ad 3000 	strh.w	r3, [sp]
 8006b82:	f04f 0300 	mov.w	r3, #0	; 0x0
 8006b86:	f8ad 300a 	strh.w	r3, [sp, #10]
 8006b8a:	9b01      	ldr	r3, [sp, #4]
 8006b8c:	8b1b      	ldrh	r3, [r3, #24]
 8006b8e:	f8ad 300a 	strh.w	r3, [sp, #10]
 8006b92:	f8bd 300a 	ldrh.w	r3, [sp, #10]
 8006b96:	f423 43e0 	bic.w	r3, r3, #28672	; 0x7000
 8006b9a:	f8ad 300a 	strh.w	r3, [sp, #10]
 8006b9e:	f8bd 3000 	ldrh.w	r3, [sp]
 8006ba2:	ea4f 2303 	mov.w	r3, r3, lsl #8
 8006ba6:	b29a      	uxth	r2, r3
 8006ba8:	f8bd 300a 	ldrh.w	r3, [sp, #10]
 8006bac:	ea42 0303 	orr.w	r3, r2, r3
 8006bb0:	f8ad 300a 	strh.w	r3, [sp, #10]
 8006bb4:	9a01      	ldr	r2, [sp, #4]
 8006bb6:	f8bd 300a 	ldrh.w	r3, [sp, #10]
 8006bba:	8313      	strh	r3, [r2, #24]
 8006bbc:	b003      	add	sp, #12
 8006bbe:	4770      	bx	lr

08006bc0 <TIM_ForcedOC3Config>:
 8006bc0:	b083      	sub	sp, #12
 8006bc2:	9001      	str	r0, [sp, #4]
 8006bc4:	460b      	mov	r3, r1
 8006bc6:	f8ad 3000 	strh.w	r3, [sp]
 8006bca:	f04f 0300 	mov.w	r3, #0	; 0x0
 8006bce:	f8ad 300a 	strh.w	r3, [sp, #10]
 8006bd2:	9b01      	ldr	r3, [sp, #4]
 8006bd4:	8b9b      	ldrh	r3, [r3, #28]
 8006bd6:	f8ad 300a 	strh.w	r3, [sp, #10]
 8006bda:	f8bd 300a 	ldrh.w	r3, [sp, #10]
 8006bde:	f023 0370 	bic.w	r3, r3, #112	; 0x70
 8006be2:	f8ad 300a 	strh.w	r3, [sp, #10]
 8006be6:	f8bd 200a 	ldrh.w	r2, [sp, #10]
 8006bea:	f8bd 3000 	ldrh.w	r3, [sp]
 8006bee:	ea42 0303 	orr.w	r3, r2, r3
 8006bf2:	f8ad 300a 	strh.w	r3, [sp, #10]
 8006bf6:	9a01      	ldr	r2, [sp, #4]
 8006bf8:	f8bd 300a 	ldrh.w	r3, [sp, #10]
 8006bfc:	8393      	strh	r3, [r2, #28]
 8006bfe:	b003      	add	sp, #12
 8006c00:	4770      	bx	lr
 8006c02:	46c0      	nop			(mov r8, r8)

08006c04 <TIM_ForcedOC4Config>:
 8006c04:	b083      	sub	sp, #12
 8006c06:	9001      	str	r0, [sp, #4]
 8006c08:	460b      	mov	r3, r1
 8006c0a:	f8ad 3000 	strh.w	r3, [sp]
 8006c0e:	f04f 0300 	mov.w	r3, #0	; 0x0
 8006c12:	f8ad 300a 	strh.w	r3, [sp, #10]
 8006c16:	9b01      	ldr	r3, [sp, #4]
 8006c18:	8b9b      	ldrh	r3, [r3, #28]
 8006c1a:	f8ad 300a 	strh.w	r3, [sp, #10]
 8006c1e:	f8bd 300a 	ldrh.w	r3, [sp, #10]
 8006c22:	f423 43e0 	bic.w	r3, r3, #28672	; 0x7000
 8006c26:	f8ad 300a 	strh.w	r3, [sp, #10]
 8006c2a:	f8bd 3000 	ldrh.w	r3, [sp]
 8006c2e:	ea4f 2303 	mov.w	r3, r3, lsl #8
 8006c32:	b29a      	uxth	r2, r3
 8006c34:	f8bd 300a 	ldrh.w	r3, [sp, #10]
 8006c38:	ea42 0303 	orr.w	r3, r2, r3
 8006c3c:	f8ad 300a 	strh.w	r3, [sp, #10]
 8006c40:	9a01      	ldr	r2, [sp, #4]
 8006c42:	f8bd 300a 	ldrh.w	r3, [sp, #10]
 8006c46:	8393      	strh	r3, [r2, #28]
 8006c48:	b003      	add	sp, #12
 8006c4a:	4770      	bx	lr

08006c4c <TIM_ARRPreloadConfig>:
 8006c4c:	b083      	sub	sp, #12
 8006c4e:	9002      	str	r0, [sp, #8]
 8006c50:	9101      	str	r1, [sp, #4]
 8006c52:	9b01      	ldr	r3, [sp, #4]
 8006c54:	2b00      	cmp	r3, #0
 8006c56:	d008      	beq.n	8006c6a <TIM_ARRPreloadConfig+0x1e>
 8006c58:	9b02      	ldr	r3, [sp, #8]
 8006c5a:	881b      	ldrh	r3, [r3, #0]
 8006c5c:	b29b      	uxth	r3, r3
 8006c5e:	f043 0380 	orr.w	r3, r3, #128	; 0x80
 8006c62:	b29b      	uxth	r3, r3
 8006c64:	9a02      	ldr	r2, [sp, #8]
 8006c66:	8013      	strh	r3, [r2, #0]
 8006c68:	e00d      	b.n	8006c86 <TIM_ARRPreloadConfig+0x3a>
 8006c6a:	9b02      	ldr	r3, [sp, #8]
 8006c6c:	881b      	ldrh	r3, [r3, #0]
 8006c6e:	b29b      	uxth	r3, r3
 8006c70:	9300      	str	r3, [sp, #0]
 8006c72:	f240 337f 	movw	r3, #895	; 0x37f
 8006c76:	9900      	ldr	r1, [sp, #0]
 8006c78:	ea01 0303 	and.w	r3, r1, r3
 8006c7c:	9300      	str	r3, [sp, #0]
 8006c7e:	9a02      	ldr	r2, [sp, #8]
 8006c80:	9900      	ldr	r1, [sp, #0]
 8006c82:	460b      	mov	r3, r1
 8006c84:	8013      	strh	r3, [r2, #0]
 8006c86:	b003      	add	sp, #12
 8006c88:	4770      	bx	lr
 8006c8a:	46c0      	nop			(mov r8, r8)

08006c8c <TIM_SelectCOM>:
 8006c8c:	b083      	sub	sp, #12
 8006c8e:	9002      	str	r0, [sp, #8]
 8006c90:	9101      	str	r1, [sp, #4]
 8006c92:	9b01      	ldr	r3, [sp, #4]
 8006c94:	2b00      	cmp	r3, #0
 8006c96:	d008      	beq.n	8006caa <TIM_SelectCOM+0x1e>
 8006c98:	9b02      	ldr	r3, [sp, #8]
 8006c9a:	889b      	ldrh	r3, [r3, #4]
 8006c9c:	b29b      	uxth	r3, r3
 8006c9e:	f043 0304 	orr.w	r3, r3, #4	; 0x4
 8006ca2:	b29b      	uxth	r3, r3
 8006ca4:	9a02      	ldr	r2, [sp, #8]
 8006ca6:	8093      	strh	r3, [r2, #4]
 8006ca8:	e00d      	b.n	8006cc6 <TIM_SelectCOM+0x3a>
 8006caa:	9b02      	ldr	r3, [sp, #8]
 8006cac:	889b      	ldrh	r3, [r3, #4]
 8006cae:	b29b      	uxth	r3, r3
 8006cb0:	9300      	str	r3, [sp, #0]
 8006cb2:	f64f 73fb 	movw	r3, #65531	; 0xfffb
 8006cb6:	9900      	ldr	r1, [sp, #0]
 8006cb8:	ea01 0303 	and.w	r3, r1, r3
 8006cbc:	9300      	str	r3, [sp, #0]
 8006cbe:	9a02      	ldr	r2, [sp, #8]
 8006cc0:	9900      	ldr	r1, [sp, #0]
 8006cc2:	460b      	mov	r3, r1
 8006cc4:	8093      	strh	r3, [r2, #4]
 8006cc6:	b003      	add	sp, #12
 8006cc8:	4770      	bx	lr
 8006cca:	46c0      	nop			(mov r8, r8)

08006ccc <TIM_SelectCCDMA>:
 8006ccc:	b083      	sub	sp, #12
 8006cce:	9002      	str	r0, [sp, #8]
 8006cd0:	9101      	str	r1, [sp, #4]
 8006cd2:	9b01      	ldr	r3, [sp, #4]
 8006cd4:	2b00      	cmp	r3, #0
 8006cd6:	d008      	beq.n	8006cea <TIM_SelectCCDMA+0x1e>
 8006cd8:	9b02      	ldr	r3, [sp, #8]
 8006cda:	889b      	ldrh	r3, [r3, #4]
 8006cdc:	b29b      	uxth	r3, r3
 8006cde:	f043 0308 	orr.w	r3, r3, #8	; 0x8
 8006ce2:	b29b      	uxth	r3, r3
 8006ce4:	9a02      	ldr	r2, [sp, #8]
 8006ce6:	8093      	strh	r3, [r2, #4]
 8006ce8:	e00d      	b.n	8006d06 <TIM_SelectCCDMA+0x3a>
 8006cea:	9b02      	ldr	r3, [sp, #8]
 8006cec:	889b      	ldrh	r3, [r3, #4]
 8006cee:	b29b      	uxth	r3, r3
 8006cf0:	9300      	str	r3, [sp, #0]
 8006cf2:	f64f 73f7 	movw	r3, #65527	; 0xfff7
 8006cf6:	9900      	ldr	r1, [sp, #0]
 8006cf8:	ea01 0303 	and.w	r3, r1, r3
 8006cfc:	9300      	str	r3, [sp, #0]
 8006cfe:	9a02      	ldr	r2, [sp, #8]
 8006d00:	9900      	ldr	r1, [sp, #0]
 8006d02:	460b      	mov	r3, r1
 8006d04:	8093      	strh	r3, [r2, #4]
 8006d06:	b003      	add	sp, #12
 8006d08:	4770      	bx	lr
 8006d0a:	46c0      	nop			(mov r8, r8)

08006d0c <TIM_CCPreloadControl>:
 8006d0c:	b083      	sub	sp, #12
 8006d0e:	9002      	str	r0, [sp, #8]
 8006d10:	9101      	str	r1, [sp, #4]
 8006d12:	9b01      	ldr	r3, [sp, #4]
 8006d14:	2b00      	cmp	r3, #0
 8006d16:	d008      	beq.n	8006d2a <TIM_CCPreloadControl+0x1e>
 8006d18:	9b02      	ldr	r3, [sp, #8]
 8006d1a:	889b      	ldrh	r3, [r3, #4]
 8006d1c:	b29b      	uxth	r3, r3
 8006d1e:	f043 0301 	orr.w	r3, r3, #1	; 0x1
 8006d22:	b29b      	uxth	r3, r3
 8006d24:	9a02      	ldr	r2, [sp, #8]
 8006d26:	8093      	strh	r3, [r2, #4]
 8006d28:	e00d      	b.n	8006d46 <TIM_CCPreloadControl+0x3a>
 8006d2a:	9b02      	ldr	r3, [sp, #8]
 8006d2c:	889b      	ldrh	r3, [r3, #4]
 8006d2e:	b29b      	uxth	r3, r3
 8006d30:	9300      	str	r3, [sp, #0]
 8006d32:	f64f 73fe 	movw	r3, #65534	; 0xfffe
 8006d36:	9900      	ldr	r1, [sp, #0]
 8006d38:	ea01 0303 	and.w	r3, r1, r3
 8006d3c:	9300      	str	r3, [sp, #0]
 8006d3e:	9a02      	ldr	r2, [sp, #8]
 8006d40:	9900      	ldr	r1, [sp, #0]
 8006d42:	460b      	mov	r3, r1
 8006d44:	8093      	strh	r3, [r2, #4]
 8006d46:	b003      	add	sp, #12
 8006d48:	4770      	bx	lr
 8006d4a:	46c0      	nop			(mov r8, r8)

08006d4c <TIM_OC1PreloadConfig>:
 8006d4c:	b083      	sub	sp, #12
 8006d4e:	9001      	str	r0, [sp, #4]
 8006d50:	460b      	mov	r3, r1
 8006d52:	f8ad 3000 	strh.w	r3, [sp]
 8006d56:	f04f 0300 	mov.w	r3, #0	; 0x0
 8006d5a:	f8ad 300a 	strh.w	r3, [sp, #10]
 8006d5e:	9b01      	ldr	r3, [sp, #4]
 8006d60:	8b1b      	ldrh	r3, [r3, #24]
 8006d62:	f8ad 300a 	strh.w	r3, [sp, #10]
 8006d66:	f8bd 300a 	ldrh.w	r3, [sp, #10]
 8006d6a:	f023 0308 	bic.w	r3, r3, #8	; 0x8
 8006d6e:	f8ad 300a 	strh.w	r3, [sp, #10]
 8006d72:	f8bd 200a 	ldrh.w	r2, [sp, #10]
 8006d76:	f8bd 3000 	ldrh.w	r3, [sp]
 8006d7a:	ea42 0303 	orr.w	r3, r2, r3
 8006d7e:	f8ad 300a 	strh.w	r3, [sp, #10]
 8006d82:	9a01      	ldr	r2, [sp, #4]
 8006d84:	f8bd 300a 	ldrh.w	r3, [sp, #10]
 8006d88:	8313      	strh	r3, [r2, #24]
 8006d8a:	b003      	add	sp, #12
 8006d8c:	4770      	bx	lr
 8006d8e:	46c0      	nop			(mov r8, r8)

08006d90 <TIM_OC2PreloadConfig>:
 8006d90:	b083      	sub	sp, #12
 8006d92:	9001      	str	r0, [sp, #4]
 8006d94:	460b      	mov	r3, r1
 8006d96:	f8ad 3000 	strh.w	r3, [sp]
 8006d9a:	f04f 0300 	mov.w	r3, #0	; 0x0
 8006d9e:	f8ad 300a 	strh.w	r3, [sp, #10]
 8006da2:	9b01      	ldr	r3, [sp, #4]
 8006da4:	8b1b      	ldrh	r3, [r3, #24]
 8006da6:	f8ad 300a 	strh.w	r3, [sp, #10]
 8006daa:	f8bd 300a 	ldrh.w	r3, [sp, #10]
 8006dae:	f423 6300 	bic.w	r3, r3, #2048	; 0x800
 8006db2:	f8ad 300a 	strh.w	r3, [sp, #10]
 8006db6:	f8bd 3000 	ldrh.w	r3, [sp]
 8006dba:	ea4f 2303 	mov.w	r3, r3, lsl #8
 8006dbe:	b29a      	uxth	r2, r3
 8006dc0:	f8bd 300a 	ldrh.w	r3, [sp, #10]
 8006dc4:	ea42 0303 	orr.w	r3, r2, r3
 8006dc8:	f8ad 300a 	strh.w	r3, [sp, #10]
 8006dcc:	9a01      	ldr	r2, [sp, #4]
 8006dce:	f8bd 300a 	ldrh.w	r3, [sp, #10]
 8006dd2:	8313      	strh	r3, [r2, #24]
 8006dd4:	b003      	add	sp, #12
 8006dd6:	4770      	bx	lr

08006dd8 <TIM_OC3PreloadConfig>:
 8006dd8:	b083      	sub	sp, #12
 8006dda:	9001      	str	r0, [sp, #4]
 8006ddc:	460b      	mov	r3, r1
 8006dde:	f8ad 3000 	strh.w	r3, [sp]
 8006de2:	f04f 0300 	mov.w	r3, #0	; 0x0
 8006de6:	f8ad 300a 	strh.w	r3, [sp, #10]
 8006dea:	9b01      	ldr	r3, [sp, #4]
 8006dec:	8b9b      	ldrh	r3, [r3, #28]
 8006dee:	f8ad 300a 	strh.w	r3, [sp, #10]
 8006df2:	f8bd 300a 	ldrh.w	r3, [sp, #10]
 8006df6:	f023 0308 	bic.w	r3, r3, #8	; 0x8
 8006dfa:	f8ad 300a 	strh.w	r3, [sp, #10]
 8006dfe:	f8bd 200a 	ldrh.w	r2, [sp, #10]
 8006e02:	f8bd 3000 	ldrh.w	r3, [sp]
 8006e06:	ea42 0303 	orr.w	r3, r2, r3
 8006e0a:	f8ad 300a 	strh.w	r3, [sp, #10]
 8006e0e:	9a01      	ldr	r2, [sp, #4]
 8006e10:	f8bd 300a 	ldrh.w	r3, [sp, #10]
 8006e14:	8393      	strh	r3, [r2, #28]
 8006e16:	b003      	add	sp, #12
 8006e18:	4770      	bx	lr
 8006e1a:	46c0      	nop			(mov r8, r8)

08006e1c <TIM_OC4PreloadConfig>:
 8006e1c:	b083      	sub	sp, #12
 8006e1e:	9001      	str	r0, [sp, #4]
 8006e20:	460b      	mov	r3, r1
 8006e22:	f8ad 3000 	strh.w	r3, [sp]
 8006e26:	f04f 0300 	mov.w	r3, #0	; 0x0
 8006e2a:	f8ad 300a 	strh.w	r3, [sp, #10]
 8006e2e:	9b01      	ldr	r3, [sp, #4]
 8006e30:	8b9b      	ldrh	r3, [r3, #28]
 8006e32:	f8ad 300a 	strh.w	r3, [sp, #10]
 8006e36:	f8bd 300a 	ldrh.w	r3, [sp, #10]
 8006e3a:	f423 6300 	bic.w	r3, r3, #2048	; 0x800
 8006e3e:	f8ad 300a 	strh.w	r3, [sp, #10]
 8006e42:	f8bd 3000 	ldrh.w	r3, [sp]
 8006e46:	ea4f 2303 	mov.w	r3, r3, lsl #8
 8006e4a:	b29a      	uxth	r2, r3
 8006e4c:	f8bd 300a 	ldrh.w	r3, [sp, #10]
 8006e50:	ea42 0303 	orr.w	r3, r2, r3
 8006e54:	f8ad 300a 	strh.w	r3, [sp, #10]
 8006e58:	9a01      	ldr	r2, [sp, #4]
 8006e5a:	f8bd 300a 	ldrh.w	r3, [sp, #10]
 8006e5e:	8393      	strh	r3, [r2, #28]
 8006e60:	b003      	add	sp, #12
 8006e62:	4770      	bx	lr

08006e64 <TIM_OC1FastConfig>:
 8006e64:	b083      	sub	sp, #12
 8006e66:	9001      	str	r0, [sp, #4]
 8006e68:	460b      	mov	r3, r1
 8006e6a:	f8ad 3000 	strh.w	r3, [sp]
 8006e6e:	f04f 0300 	mov.w	r3, #0	; 0x0
 8006e72:	f8ad 300a 	strh.w	r3, [sp, #10]
 8006e76:	9b01      	ldr	r3, [sp, #4]
 8006e78:	8b1b      	ldrh	r3, [r3, #24]
 8006e7a:	f8ad 300a 	strh.w	r3, [sp, #10]
 8006e7e:	f8bd 300a 	ldrh.w	r3, [sp, #10]
 8006e82:	f023 0304 	bic.w	r3, r3, #4	; 0x4
 8006e86:	f8ad 300a 	strh.w	r3, [sp, #10]
 8006e8a:	f8bd 200a 	ldrh.w	r2, [sp, #10]
 8006e8e:	f8bd 3000 	ldrh.w	r3, [sp]
 8006e92:	ea42 0303 	orr.w	r3, r2, r3
 8006e96:	f8ad 300a 	strh.w	r3, [sp, #10]
 8006e9a:	9a01      	ldr	r2, [sp, #4]
 8006e9c:	f8bd 300a 	ldrh.w	r3, [sp, #10]
 8006ea0:	8313      	strh	r3, [r2, #24]
 8006ea2:	b003      	add	sp, #12
 8006ea4:	4770      	bx	lr
 8006ea6:	46c0      	nop			(mov r8, r8)

08006ea8 <TIM_OC2FastConfig>:
 8006ea8:	b083      	sub	sp, #12
 8006eaa:	9001      	str	r0, [sp, #4]
 8006eac:	460b      	mov	r3, r1
 8006eae:	f8ad 3000 	strh.w	r3, [sp]
 8006eb2:	f04f 0300 	mov.w	r3, #0	; 0x0
 8006eb6:	f8ad 300a 	strh.w	r3, [sp, #10]
 8006eba:	9b01      	ldr	r3, [sp, #4]
 8006ebc:	8b1b      	ldrh	r3, [r3, #24]
 8006ebe:	f8ad 300a 	strh.w	r3, [sp, #10]
 8006ec2:	f8bd 300a 	ldrh.w	r3, [sp, #10]
 8006ec6:	f423 6380 	bic.w	r3, r3, #1024	; 0x400
 8006eca:	f8ad 300a 	strh.w	r3, [sp, #10]
 8006ece:	f8bd 3000 	ldrh.w	r3, [sp]
 8006ed2:	ea4f 2303 	mov.w	r3, r3, lsl #8
 8006ed6:	b29a      	uxth	r2, r3
 8006ed8:	f8bd 300a 	ldrh.w	r3, [sp, #10]
 8006edc:	ea42 0303 	orr.w	r3, r2, r3
 8006ee0:	f8ad 300a 	strh.w	r3, [sp, #10]
 8006ee4:	9a01      	ldr	r2, [sp, #4]
 8006ee6:	f8bd 300a 	ldrh.w	r3, [sp, #10]
 8006eea:	8313      	strh	r3, [r2, #24]
 8006eec:	b003      	add	sp, #12
 8006eee:	4770      	bx	lr

08006ef0 <TIM_OC3FastConfig>:
 8006ef0:	b083      	sub	sp, #12
 8006ef2:	9001      	str	r0, [sp, #4]
 8006ef4:	460b      	mov	r3, r1
 8006ef6:	f8ad 3000 	strh.w	r3, [sp]
 8006efa:	f04f 0300 	mov.w	r3, #0	; 0x0
 8006efe:	f8ad 300a 	strh.w	r3, [sp, #10]
 8006f02:	9b01      	ldr	r3, [sp, #4]
 8006f04:	8b9b      	ldrh	r3, [r3, #28]
 8006f06:	f8ad 300a 	strh.w	r3, [sp, #10]
 8006f0a:	f8bd 300a 	ldrh.w	r3, [sp, #10]
 8006f0e:	f023 0304 	bic.w	r3, r3, #4	; 0x4
 8006f12:	f8ad 300a 	strh.w	r3, [sp, #10]
 8006f16:	f8bd 200a 	ldrh.w	r2, [sp, #10]
 8006f1a:	f8bd 3000 	ldrh.w	r3, [sp]
 8006f1e:	ea42 0303 	orr.w	r3, r2, r3
 8006f22:	f8ad 300a 	strh.w	r3, [sp, #10]
 8006f26:	9a01      	ldr	r2, [sp, #4]
 8006f28:	f8bd 300a 	ldrh.w	r3, [sp, #10]
 8006f2c:	8393      	strh	r3, [r2, #28]
 8006f2e:	b003      	add	sp, #12
 8006f30:	4770      	bx	lr
 8006f32:	46c0      	nop			(mov r8, r8)

08006f34 <TIM_OC4FastConfig>:
 8006f34:	b083      	sub	sp, #12
 8006f36:	9001      	str	r0, [sp, #4]
 8006f38:	460b      	mov	r3, r1
 8006f3a:	f8ad 3000 	strh.w	r3, [sp]
 8006f3e:	f04f 0300 	mov.w	r3, #0	; 0x0
 8006f42:	f8ad 300a 	strh.w	r3, [sp, #10]
 8006f46:	9b01      	ldr	r3, [sp, #4]
 8006f48:	8b9b      	ldrh	r3, [r3, #28]
 8006f4a:	f8ad 300a 	strh.w	r3, [sp, #10]
 8006f4e:	f8bd 300a 	ldrh.w	r3, [sp, #10]
 8006f52:	f423 6380 	bic.w	r3, r3, #1024	; 0x400
 8006f56:	f8ad 300a 	strh.w	r3, [sp, #10]
 8006f5a:	f8bd 3000 	ldrh.w	r3, [sp]
 8006f5e:	ea4f 2303 	mov.w	r3, r3, lsl #8
 8006f62:	b29a      	uxth	r2, r3
 8006f64:	f8bd 300a 	ldrh.w	r3, [sp, #10]
 8006f68:	ea42 0303 	orr.w	r3, r2, r3
 8006f6c:	f8ad 300a 	strh.w	r3, [sp, #10]
 8006f70:	9a01      	ldr	r2, [sp, #4]
 8006f72:	f8bd 300a 	ldrh.w	r3, [sp, #10]
 8006f76:	8393      	strh	r3, [r2, #28]
 8006f78:	b003      	add	sp, #12
 8006f7a:	4770      	bx	lr

08006f7c <TIM_ClearOC1Ref>:
 8006f7c:	b083      	sub	sp, #12
 8006f7e:	9001      	str	r0, [sp, #4]
 8006f80:	460b      	mov	r3, r1
 8006f82:	f8ad 3000 	strh.w	r3, [sp]
 8006f86:	f04f 0300 	mov.w	r3, #0	; 0x0
 8006f8a:	f8ad 300a 	strh.w	r3, [sp, #10]
 8006f8e:	9b01      	ldr	r3, [sp, #4]
 8006f90:	8b1b      	ldrh	r3, [r3, #24]
 8006f92:	f8ad 300a 	strh.w	r3, [sp, #10]
 8006f96:	f8bd 300a 	ldrh.w	r3, [sp, #10]
 8006f9a:	f023 0380 	bic.w	r3, r3, #128	; 0x80
 8006f9e:	f8ad 300a 	strh.w	r3, [sp, #10]
 8006fa2:	f8bd 200a 	ldrh.w	r2, [sp, #10]
 8006fa6:	f8bd 3000 	ldrh.w	r3, [sp]
 8006faa:	ea42 0303 	orr.w	r3, r2, r3
 8006fae:	f8ad 300a 	strh.w	r3, [sp, #10]
 8006fb2:	9a01      	ldr	r2, [sp, #4]
 8006fb4:	f8bd 300a 	ldrh.w	r3, [sp, #10]
 8006fb8:	8313      	strh	r3, [r2, #24]
 8006fba:	b003      	add	sp, #12
 8006fbc:	4770      	bx	lr
 8006fbe:	46c0      	nop			(mov r8, r8)

08006fc0 <TIM_ClearOC2Ref>:
 8006fc0:	b083      	sub	sp, #12
 8006fc2:	9001      	str	r0, [sp, #4]
 8006fc4:	460b      	mov	r3, r1
 8006fc6:	f8ad 3000 	strh.w	r3, [sp]
 8006fca:	f04f 0300 	mov.w	r3, #0	; 0x0
 8006fce:	f8ad 300a 	strh.w	r3, [sp, #10]
 8006fd2:	9b01      	ldr	r3, [sp, #4]
 8006fd4:	8b1b      	ldrh	r3, [r3, #24]
 8006fd6:	f8ad 300a 	strh.w	r3, [sp, #10]
 8006fda:	f8bd 300a 	ldrh.w	r3, [sp, #10]
 8006fde:	ea4f 4343 	mov.w	r3, r3, lsl #17
 8006fe2:	ea4f 4353 	mov.w	r3, r3, lsr #17
 8006fe6:	f8ad 300a 	strh.w	r3, [sp, #10]
 8006fea:	f8bd 3000 	ldrh.w	r3, [sp]
 8006fee:	ea4f 2303 	mov.w	r3, r3, lsl #8
 8006ff2:	b29a      	uxth	r2, r3
 8006ff4:	f8bd 300a 	ldrh.w	r3, [sp, #10]
 8006ff8:	ea42 0303 	orr.w	r3, r2, r3
 8006ffc:	f8ad 300a 	strh.w	r3, [sp, #10]
 8007000:	9a01      	ldr	r2, [sp, #4]
 8007002:	f8bd 300a 	ldrh.w	r3, [sp, #10]
 8007006:	8313      	strh	r3, [r2, #24]
 8007008:	b003      	add	sp, #12
 800700a:	4770      	bx	lr

0800700c <TIM_ClearOC3Ref>:
 800700c:	b083      	sub	sp, #12
 800700e:	9001      	str	r0, [sp, #4]
 8007010:	460b      	mov	r3, r1
 8007012:	f8ad 3000 	strh.w	r3, [sp]
 8007016:	f04f 0300 	mov.w	r3, #0	; 0x0
 800701a:	f8ad 300a 	strh.w	r3, [sp, #10]
 800701e:	9b01      	ldr	r3, [sp, #4]
 8007020:	8b9b      	ldrh	r3, [r3, #28]
 8007022:	f8ad 300a 	strh.w	r3, [sp, #10]
 8007026:	f8bd 300a 	ldrh.w	r3, [sp, #10]
 800702a:	f023 0380 	bic.w	r3, r3, #128	; 0x80
 800702e:	f8ad 300a 	strh.w	r3, [sp, #10]
 8007032:	f8bd 200a 	ldrh.w	r2, [sp, #10]
 8007036:	f8bd 3000 	ldrh.w	r3, [sp]
 800703a:	ea42 0303 	orr.w	r3, r2, r3
 800703e:	f8ad 300a 	strh.w	r3, [sp, #10]
 8007042:	9a01      	ldr	r2, [sp, #4]
 8007044:	f8bd 300a 	ldrh.w	r3, [sp, #10]
 8007048:	8393      	strh	r3, [r2, #28]
 800704a:	b003      	add	sp, #12
 800704c:	4770      	bx	lr
 800704e:	46c0      	nop			(mov r8, r8)

08007050 <TIM_ClearOC4Ref>:
 8007050:	b083      	sub	sp, #12
 8007052:	9001      	str	r0, [sp, #4]
 8007054:	460b      	mov	r3, r1
 8007056:	f8ad 3000 	strh.w	r3, [sp]
 800705a:	f04f 0300 	mov.w	r3, #0	; 0x0
 800705e:	f8ad 300a 	strh.w	r3, [sp, #10]
 8007062:	9b01      	ldr	r3, [sp, #4]
 8007064:	8b9b      	ldrh	r3, [r3, #28]
 8007066:	f8ad 300a 	strh.w	r3, [sp, #10]
 800706a:	f8bd 300a 	ldrh.w	r3, [sp, #10]
 800706e:	ea4f 4343 	mov.w	r3, r3, lsl #17
 8007072:	ea4f 4353 	mov.w	r3, r3, lsr #17
 8007076:	f8ad 300a 	strh.w	r3, [sp, #10]
 800707a:	f8bd 3000 	ldrh.w	r3, [sp]
 800707e:	ea4f 2303 	mov.w	r3, r3, lsl #8
 8007082:	b29a      	uxth	r2, r3
 8007084:	f8bd 300a 	ldrh.w	r3, [sp, #10]
 8007088:	ea42 0303 	orr.w	r3, r2, r3
 800708c:	f8ad 300a 	strh.w	r3, [sp, #10]
 8007090:	9a01      	ldr	r2, [sp, #4]
 8007092:	f8bd 300a 	ldrh.w	r3, [sp, #10]
 8007096:	8393      	strh	r3, [r2, #28]
 8007098:	b003      	add	sp, #12
 800709a:	4770      	bx	lr

0800709c <TIM_OC1PolarityConfig>:
 800709c:	b083      	sub	sp, #12
 800709e:	9001      	str	r0, [sp, #4]
 80070a0:	460b      	mov	r3, r1
 80070a2:	f8ad 3000 	strh.w	r3, [sp]
 80070a6:	f04f 0300 	mov.w	r3, #0	; 0x0
 80070aa:	f8ad 300a 	strh.w	r3, [sp, #10]
 80070ae:	9b01      	ldr	r3, [sp, #4]
 80070b0:	8c1b      	ldrh	r3, [r3, #32]
 80070b2:	f8ad 300a 	strh.w	r3, [sp, #10]
 80070b6:	f8bd 300a 	ldrh.w	r3, [sp, #10]
 80070ba:	f023 0302 	bic.w	r3, r3, #2	; 0x2
 80070be:	f8ad 300a 	strh.w	r3, [sp, #10]
 80070c2:	f8bd 200a 	ldrh.w	r2, [sp, #10]
 80070c6:	f8bd 3000 	ldrh.w	r3, [sp]
 80070ca:	ea42 0303 	orr.w	r3, r2, r3
 80070ce:	f8ad 300a 	strh.w	r3, [sp, #10]
 80070d2:	9a01      	ldr	r2, [sp, #4]
 80070d4:	f8bd 300a 	ldrh.w	r3, [sp, #10]
 80070d8:	8413      	strh	r3, [r2, #32]
 80070da:	b003      	add	sp, #12
 80070dc:	4770      	bx	lr
 80070de:	46c0      	nop			(mov r8, r8)

080070e0 <TIM_OC1NPolarityConfig>:
 80070e0:	b083      	sub	sp, #12
 80070e2:	9001      	str	r0, [sp, #4]
 80070e4:	460b      	mov	r3, r1
 80070e6:	f8ad 3000 	strh.w	r3, [sp]
 80070ea:	f04f 0300 	mov.w	r3, #0	; 0x0
 80070ee:	f8ad 300a 	strh.w	r3, [sp, #10]
 80070f2:	9b01      	ldr	r3, [sp, #4]
 80070f4:	8c1b      	ldrh	r3, [r3, #32]
 80070f6:	f8ad 300a 	strh.w	r3, [sp, #10]
 80070fa:	f8bd 300a 	ldrh.w	r3, [sp, #10]
 80070fe:	f023 0308 	bic.w	r3, r3, #8	; 0x8
 8007102:	f8ad 300a 	strh.w	r3, [sp, #10]
 8007106:	f8bd 200a 	ldrh.w	r2, [sp, #10]
 800710a:	f8bd 3000 	ldrh.w	r3, [sp]
 800710e:	ea42 0303 	orr.w	r3, r2, r3
 8007112:	f8ad 300a 	strh.w	r3, [sp, #10]
 8007116:	9a01      	ldr	r2, [sp, #4]
 8007118:	f8bd 300a 	ldrh.w	r3, [sp, #10]
 800711c:	8413      	strh	r3, [r2, #32]
 800711e:	b003      	add	sp, #12
 8007120:	4770      	bx	lr
 8007122:	46c0      	nop			(mov r8, r8)

08007124 <TIM_OC2PolarityConfig>:
 8007124:	b083      	sub	sp, #12
 8007126:	9001      	str	r0, [sp, #4]
 8007128:	460b      	mov	r3, r1
 800712a:	f8ad 3000 	strh.w	r3, [sp]
 800712e:	f04f 0300 	mov.w	r3, #0	; 0x0
 8007132:	f8ad 300a 	strh.w	r3, [sp, #10]
 8007136:	9b01      	ldr	r3, [sp, #4]
 8007138:	8c1b      	ldrh	r3, [r3, #32]
 800713a:	f8ad 300a 	strh.w	r3, [sp, #10]
 800713e:	f8bd 300a 	ldrh.w	r3, [sp, #10]
 8007142:	f023 0320 	bic.w	r3, r3, #32	; 0x20
 8007146:	f8ad 300a 	strh.w	r3, [sp, #10]
 800714a:	f8bd 3000 	ldrh.w	r3, [sp]
 800714e:	ea4f 1303 	mov.w	r3, r3, lsl #4
 8007152:	b29a      	uxth	r2, r3
 8007154:	f8bd 300a 	ldrh.w	r3, [sp, #10]
 8007158:	ea42 0303 	orr.w	r3, r2, r3
 800715c:	f8ad 300a 	strh.w	r3, [sp, #10]
 8007160:	9a01      	ldr	r2, [sp, #4]
 8007162:	f8bd 300a 	ldrh.w	r3, [sp, #10]
 8007166:	8413      	strh	r3, [r2, #32]
 8007168:	b003      	add	sp, #12
 800716a:	4770      	bx	lr

0800716c <TIM_OC2NPolarityConfig>:
 800716c:	b083      	sub	sp, #12
 800716e:	9001      	str	r0, [sp, #4]
 8007170:	460b      	mov	r3, r1
 8007172:	f8ad 3000 	strh.w	r3, [sp]
 8007176:	f04f 0300 	mov.w	r3, #0	; 0x0
 800717a:	f8ad 300a 	strh.w	r3, [sp, #10]
 800717e:	9b01      	ldr	r3, [sp, #4]
 8007180:	8c1b      	ldrh	r3, [r3, #32]
 8007182:	f8ad 300a 	strh.w	r3, [sp, #10]
 8007186:	f8bd 300a 	ldrh.w	r3, [sp, #10]
 800718a:	f023 0380 	bic.w	r3, r3, #128	; 0x80
 800718e:	f8ad 300a 	strh.w	r3, [sp, #10]
 8007192:	f8bd 3000 	ldrh.w	r3, [sp]
 8007196:	ea4f 1303 	mov.w	r3, r3, lsl #4
 800719a:	b29a      	uxth	r2, r3
 800719c:	f8bd 300a 	ldrh.w	r3, [sp, #10]
 80071a0:	ea42 0303 	orr.w	r3, r2, r3
 80071a4:	f8ad 300a 	strh.w	r3, [sp, #10]
 80071a8:	9a01      	ldr	r2, [sp, #4]
 80071aa:	f8bd 300a 	ldrh.w	r3, [sp, #10]
 80071ae:	8413      	strh	r3, [r2, #32]
 80071b0:	b003      	add	sp, #12
 80071b2:	4770      	bx	lr

080071b4 <TIM_OC3PolarityConfig>:
 80071b4:	b083      	sub	sp, #12
 80071b6:	9001      	str	r0, [sp, #4]
 80071b8:	460b      	mov	r3, r1
 80071ba:	f8ad 3000 	strh.w	r3, [sp]
 80071be:	f04f 0300 	mov.w	r3, #0	; 0x0
 80071c2:	f8ad 300a 	strh.w	r3, [sp, #10]
 80071c6:	9b01      	ldr	r3, [sp, #4]
 80071c8:	8c1b      	ldrh	r3, [r3, #32]
 80071ca:	f8ad 300a 	strh.w	r3, [sp, #10]
 80071ce:	f8bd 300a 	ldrh.w	r3, [sp, #10]
 80071d2:	f423 7300 	bic.w	r3, r3, #512	; 0x200
 80071d6:	f8ad 300a 	strh.w	r3, [sp, #10]
 80071da:	f8bd 3000 	ldrh.w	r3, [sp]
 80071de:	ea4f 2303 	mov.w	r3, r3, lsl #8
 80071e2:	b29a      	uxth	r2, r3
 80071e4:	f8bd 300a 	ldrh.w	r3, [sp, #10]
 80071e8:	ea42 0303 	orr.w	r3, r2, r3
 80071ec:	f8ad 300a 	strh.w	r3, [sp, #10]
 80071f0:	9a01      	ldr	r2, [sp, #4]
 80071f2:	f8bd 300a 	ldrh.w	r3, [sp, #10]
 80071f6:	8413      	strh	r3, [r2, #32]
 80071f8:	b003      	add	sp, #12
 80071fa:	4770      	bx	lr

080071fc <TIM_OC3NPolarityConfig>:
 80071fc:	b083      	sub	sp, #12
 80071fe:	9001      	str	r0, [sp, #4]
 8007200:	460b      	mov	r3, r1
 8007202:	f8ad 3000 	strh.w	r3, [sp]
 8007206:	f04f 0300 	mov.w	r3, #0	; 0x0
 800720a:	f8ad 300a 	strh.w	r3, [sp, #10]
 800720e:	9b01      	ldr	r3, [sp, #4]
 8007210:	8c1b      	ldrh	r3, [r3, #32]
 8007212:	f8ad 300a 	strh.w	r3, [sp, #10]
 8007216:	f8bd 300a 	ldrh.w	r3, [sp, #10]
 800721a:	f423 6300 	bic.w	r3, r3, #2048	; 0x800
 800721e:	f8ad 300a 	strh.w	r3, [sp, #10]
 8007222:	f8bd 3000 	ldrh.w	r3, [sp]
 8007226:	ea4f 2303 	mov.w	r3, r3, lsl #8
 800722a:	b29a      	uxth	r2, r3
 800722c:	f8bd 300a 	ldrh.w	r3, [sp, #10]
 8007230:	ea42 0303 	orr.w	r3, r2, r3
 8007234:	f8ad 300a 	strh.w	r3, [sp, #10]
 8007238:	9a01      	ldr	r2, [sp, #4]
 800723a:	f8bd 300a 	ldrh.w	r3, [sp, #10]
 800723e:	8413      	strh	r3, [r2, #32]
 8007240:	b003      	add	sp, #12
 8007242:	4770      	bx	lr

08007244 <TIM_OC4PolarityConfig>:
 8007244:	b083      	sub	sp, #12
 8007246:	9001      	str	r0, [sp, #4]
 8007248:	460b      	mov	r3, r1
 800724a:	f8ad 3000 	strh.w	r3, [sp]
 800724e:	f04f 0300 	mov.w	r3, #0	; 0x0
 8007252:	f8ad 300a 	strh.w	r3, [sp, #10]
 8007256:	9b01      	ldr	r3, [sp, #4]
 8007258:	8c1b      	ldrh	r3, [r3, #32]
 800725a:	f8ad 300a 	strh.w	r3, [sp, #10]
 800725e:	f8bd 300a 	ldrh.w	r3, [sp, #10]
 8007262:	f423 5300 	bic.w	r3, r3, #8192	; 0x2000
 8007266:	f8ad 300a 	strh.w	r3, [sp, #10]
 800726a:	f8bd 3000 	ldrh.w	r3, [sp]
 800726e:	ea4f 3303 	mov.w	r3, r3, lsl #12
 8007272:	b29a      	uxth	r2, r3
 8007274:	f8bd 300a 	ldrh.w	r3, [sp, #10]
 8007278:	ea42 0303 	orr.w	r3, r2, r3
 800727c:	f8ad 300a 	strh.w	r3, [sp, #10]
 8007280:	9a01      	ldr	r2, [sp, #4]
 8007282:	f8bd 300a 	ldrh.w	r3, [sp, #10]
 8007286:	8413      	strh	r3, [r2, #32]
 8007288:	b003      	add	sp, #12
 800728a:	4770      	bx	lr

0800728c <TIM_CCxCmd>:
 800728c:	b083      	sub	sp, #12
 800728e:	9002      	str	r0, [sp, #8]
 8007290:	460b      	mov	r3, r1
 8007292:	f8ad 3004 	strh.w	r3, [sp, #4]
 8007296:	4613      	mov	r3, r2
 8007298:	f8ad 3000 	strh.w	r3, [sp]
 800729c:	9b02      	ldr	r3, [sp, #8]
 800729e:	8c1b      	ldrh	r3, [r3, #32]
 80072a0:	b299      	uxth	r1, r3
 80072a2:	f8bd 2004 	ldrh.w	r2, [sp, #4]
 80072a6:	f04f 0301 	mov.w	r3, #1	; 0x1
 80072aa:	fa03 f302 	lsl.w	r3, r3, r2
 80072ae:	b29b      	uxth	r3, r3
 80072b0:	ea6f 0303 	mvn.w	r3, r3
 80072b4:	b29b      	uxth	r3, r3
 80072b6:	ea01 0303 	and.w	r3, r1, r3
 80072ba:	b29b      	uxth	r3, r3
 80072bc:	9a02      	ldr	r2, [sp, #8]
 80072be:	8413      	strh	r3, [r2, #32]
 80072c0:	9b02      	ldr	r3, [sp, #8]
 80072c2:	8c1b      	ldrh	r3, [r3, #32]
 80072c4:	b299      	uxth	r1, r3
 80072c6:	f8bd 2000 	ldrh.w	r2, [sp]
 80072ca:	f8bd 3004 	ldrh.w	r3, [sp, #4]
 80072ce:	fa02 f303 	lsl.w	r3, r2, r3
 80072d2:	b29b      	uxth	r3, r3
 80072d4:	ea41 0303 	orr.w	r3, r1, r3
 80072d8:	b29b      	uxth	r3, r3
 80072da:	9a02      	ldr	r2, [sp, #8]
 80072dc:	8413      	strh	r3, [r2, #32]
 80072de:	b003      	add	sp, #12
 80072e0:	4770      	bx	lr
 80072e2:	46c0      	nop			(mov r8, r8)

080072e4 <TIM_CCxNCmd>:
 80072e4:	b083      	sub	sp, #12
 80072e6:	9002      	str	r0, [sp, #8]
 80072e8:	460b      	mov	r3, r1
 80072ea:	f8ad 3004 	strh.w	r3, [sp, #4]
 80072ee:	4613      	mov	r3, r2
 80072f0:	f8ad 3000 	strh.w	r3, [sp]
 80072f4:	9b02      	ldr	r3, [sp, #8]
 80072f6:	8c1b      	ldrh	r3, [r3, #32]
 80072f8:	b299      	uxth	r1, r3
 80072fa:	f8bd 2004 	ldrh.w	r2, [sp, #4]
 80072fe:	f04f 0304 	mov.w	r3, #4	; 0x4
 8007302:	fa03 f302 	lsl.w	r3, r3, r2
 8007306:	b29b      	uxth	r3, r3
 8007308:	ea6f 0303 	mvn.w	r3, r3
 800730c:	b29b      	uxth	r3, r3
 800730e:	ea01 0303 	and.w	r3, r1, r3
 8007312:	b29b      	uxth	r3, r3
 8007314:	9a02      	ldr	r2, [sp, #8]
 8007316:	8413      	strh	r3, [r2, #32]
 8007318:	9b02      	ldr	r3, [sp, #8]
 800731a:	8c1b      	ldrh	r3, [r3, #32]
 800731c:	b299      	uxth	r1, r3
 800731e:	f8bd 2000 	ldrh.w	r2, [sp]
 8007322:	f8bd 3004 	ldrh.w	r3, [sp, #4]
 8007326:	fa02 f303 	lsl.w	r3, r2, r3
 800732a:	b29b      	uxth	r3, r3
 800732c:	ea41 0303 	orr.w	r3, r1, r3
 8007330:	b29b      	uxth	r3, r3
 8007332:	9a02      	ldr	r2, [sp, #8]
 8007334:	8413      	strh	r3, [r2, #32]
 8007336:	b003      	add	sp, #12
 8007338:	4770      	bx	lr
 800733a:	46c0      	nop			(mov r8, r8)

0800733c <TIM_SelectOCxM>:
 800733c:	b083      	sub	sp, #12
 800733e:	9002      	str	r0, [sp, #8]
 8007340:	460b      	mov	r3, r1
 8007342:	f8ad 3004 	strh.w	r3, [sp, #4]
 8007346:	4613      	mov	r3, r2
 8007348:	f8ad 3000 	strh.w	r3, [sp]
 800734c:	9802      	ldr	r0, [sp, #8]
 800734e:	9b02      	ldr	r3, [sp, #8]
 8007350:	8c1b      	ldrh	r3, [r3, #32]
 8007352:	b299      	uxth	r1, r3
 8007354:	f8bd 2004 	ldrh.w	r2, [sp, #4]
 8007358:	f04f 0301 	mov.w	r3, #1	; 0x1
 800735c:	fa03 f302 	lsl.w	r3, r3, r2
 8007360:	b29b      	uxth	r3, r3
 8007362:	ea6f 0303 	mvn.w	r3, r3
 8007366:	b29b      	uxth	r3, r3
 8007368:	ea01 0303 	and.w	r3, r1, r3
 800736c:	b29b      	uxth	r3, r3
 800736e:	8403      	strh	r3, [r0, #32]
 8007370:	f8bd 3004 	ldrh.w	r3, [sp, #4]
 8007374:	2b00      	cmp	r3, #0
 8007376:	d003      	beq.n	8007380 <TIM_SelectOCxM+0x44>
 8007378:	f8bd 3004 	ldrh.w	r3, [sp, #4]
 800737c:	2b08      	cmp	r3, #8
 800737e:	d136      	bne.n	80073ee <TIM_SelectOCxM+0xb2>
 8007380:	ab02      	add	r3, sp, #8
 8007382:	681a      	ldr	r2, [r3, #0]
 8007384:	f8bd 3004 	ldrh.w	r3, [sp, #4]
 8007388:	ea4f 0353 	mov.w	r3, r3, lsr #1
 800738c:	b29b      	uxth	r3, r3
 800738e:	4413      	add	r3, r2
 8007390:	f103 0318 	add.w	r3, r3, #24	; 0x18
 8007394:	4619      	mov	r1, r3
 8007396:	ab02      	add	r3, sp, #8
 8007398:	681a      	ldr	r2, [r3, #0]
 800739a:	f8bd 3004 	ldrh.w	r3, [sp, #4]
 800739e:	ea4f 0353 	mov.w	r3, r3, lsr #1
 80073a2:	b29b      	uxth	r3, r3
 80073a4:	4413      	add	r3, r2
 80073a6:	f103 0318 	add.w	r3, r3, #24	; 0x18
 80073aa:	681a      	ldr	r2, [r3, #0]
 80073ac:	f64f 738f 	movw	r3, #65423	; 0xff8f
 80073b0:	ea02 0303 	and.w	r3, r2, r3
 80073b4:	600b      	str	r3, [r1, #0]
 80073b6:	ab02      	add	r3, sp, #8
 80073b8:	681a      	ldr	r2, [r3, #0]
 80073ba:	f8bd 3004 	ldrh.w	r3, [sp, #4]
 80073be:	ea4f 0353 	mov.w	r3, r3, lsr #1
 80073c2:	b29b      	uxth	r3, r3
 80073c4:	4413      	add	r3, r2
 80073c6:	f103 0318 	add.w	r3, r3, #24	; 0x18
 80073ca:	4619      	mov	r1, r3
 80073cc:	ab02      	add	r3, sp, #8
 80073ce:	681a      	ldr	r2, [r3, #0]
 80073d0:	f8bd 3004 	ldrh.w	r3, [sp, #4]
 80073d4:	ea4f 0353 	mov.w	r3, r3, lsr #1
 80073d8:	b29b      	uxth	r3, r3
 80073da:	4413      	add	r3, r2
 80073dc:	f103 0318 	add.w	r3, r3, #24	; 0x18
 80073e0:	681a      	ldr	r2, [r3, #0]
 80073e2:	f8bd 3000 	ldrh.w	r3, [sp]
 80073e6:	ea42 0303 	orr.w	r3, r2, r3
 80073ea:	600b      	str	r3, [r1, #0]
 80073ec:	e044      	b.n	8007478 <TIM_SelectOCxM+0x13c>
 80073ee:	ab02      	add	r3, sp, #8
 80073f0:	681a      	ldr	r2, [r3, #0]
 80073f2:	f8bd 3004 	ldrh.w	r3, [sp, #4]
 80073f6:	f1a3 0304 	sub.w	r3, r3, #4	; 0x4
 80073fa:	b29b      	uxth	r3, r3
 80073fc:	ea4f 0353 	mov.w	r3, r3, lsr #1
 8007400:	b29b      	uxth	r3, r3
 8007402:	4413      	add	r3, r2
 8007404:	f103 0318 	add.w	r3, r3, #24	; 0x18
 8007408:	4619      	mov	r1, r3
 800740a:	ab02      	add	r3, sp, #8
 800740c:	681a      	ldr	r2, [r3, #0]
 800740e:	f8bd 3004 	ldrh.w	r3, [sp, #4]
 8007412:	f1a3 0304 	sub.w	r3, r3, #4	; 0x4
 8007416:	b29b      	uxth	r3, r3
 8007418:	ea4f 0353 	mov.w	r3, r3, lsr #1
 800741c:	b29b      	uxth	r3, r3
 800741e:	4413      	add	r3, r2
 8007420:	f103 0318 	add.w	r3, r3, #24	; 0x18
 8007424:	681a      	ldr	r2, [r3, #0]
 8007426:	f648 73ff 	movw	r3, #36863	; 0x8fff
 800742a:	ea02 0303 	and.w	r3, r2, r3
 800742e:	600b      	str	r3, [r1, #0]
 8007430:	ab02      	add	r3, sp, #8
 8007432:	681a      	ldr	r2, [r3, #0]
 8007434:	f8bd 3004 	ldrh.w	r3, [sp, #4]
 8007438:	f1a3 0304 	sub.w	r3, r3, #4	; 0x4
 800743c:	b29b      	uxth	r3, r3
 800743e:	ea4f 0353 	mov.w	r3, r3, lsr #1
 8007442:	b29b      	uxth	r3, r3
 8007444:	4413      	add	r3, r2
 8007446:	f103 0318 	add.w	r3, r3, #24	; 0x18
 800744a:	4619      	mov	r1, r3
 800744c:	ab02      	add	r3, sp, #8
 800744e:	681a      	ldr	r2, [r3, #0]
 8007450:	f8bd 3004 	ldrh.w	r3, [sp, #4]
 8007454:	f1a3 0304 	sub.w	r3, r3, #4	; 0x4
 8007458:	b29b      	uxth	r3, r3
 800745a:	ea4f 0353 	mov.w	r3, r3, lsr #1
 800745e:	b29b      	uxth	r3, r3
 8007460:	4413      	add	r3, r2
 8007462:	f103 0318 	add.w	r3, r3, #24	; 0x18
 8007466:	681a      	ldr	r2, [r3, #0]
 8007468:	f8bd 3000 	ldrh.w	r3, [sp]
 800746c:	ea4f 2303 	mov.w	r3, r3, lsl #8
 8007470:	b29b      	uxth	r3, r3
 8007472:	ea42 0303 	orr.w	r3, r2, r3
 8007476:	600b      	str	r3, [r1, #0]
 8007478:	b003      	add	sp, #12
 800747a:	4770      	bx	lr

0800747c <TIM_UpdateDisableConfig>:
 800747c:	b083      	sub	sp, #12
 800747e:	9002      	str	r0, [sp, #8]
 8007480:	9101      	str	r1, [sp, #4]
 8007482:	9b01      	ldr	r3, [sp, #4]
 8007484:	2b00      	cmp	r3, #0
 8007486:	d008      	beq.n	800749a <TIM_UpdateDisableConfig+0x1e>
 8007488:	9b02      	ldr	r3, [sp, #8]
 800748a:	881b      	ldrh	r3, [r3, #0]
 800748c:	b29b      	uxth	r3, r3
 800748e:	f043 0302 	orr.w	r3, r3, #2	; 0x2
 8007492:	b29b      	uxth	r3, r3
 8007494:	9a02      	ldr	r2, [sp, #8]
 8007496:	8013      	strh	r3, [r2, #0]
 8007498:	e00d      	b.n	80074b6 <TIM_UpdateDisableConfig+0x3a>
 800749a:	9b02      	ldr	r3, [sp, #8]
 800749c:	881b      	ldrh	r3, [r3, #0]
 800749e:	b29b      	uxth	r3, r3
 80074a0:	9300      	str	r3, [sp, #0]
 80074a2:	f240 33fd 	movw	r3, #1021	; 0x3fd
 80074a6:	9900      	ldr	r1, [sp, #0]
 80074a8:	ea01 0303 	and.w	r3, r1, r3
 80074ac:	9300      	str	r3, [sp, #0]
 80074ae:	9a02      	ldr	r2, [sp, #8]
 80074b0:	9900      	ldr	r1, [sp, #0]
 80074b2:	460b      	mov	r3, r1
 80074b4:	8013      	strh	r3, [r2, #0]
 80074b6:	b003      	add	sp, #12
 80074b8:	4770      	bx	lr
 80074ba:	46c0      	nop			(mov r8, r8)

080074bc <TIM_UpdateRequestConfig>:
 80074bc:	b083      	sub	sp, #12
 80074be:	9002      	str	r0, [sp, #8]
 80074c0:	460b      	mov	r3, r1
 80074c2:	f8ad 3004 	strh.w	r3, [sp, #4]
 80074c6:	f8bd 3004 	ldrh.w	r3, [sp, #4]
 80074ca:	2b00      	cmp	r3, #0
 80074cc:	d008      	beq.n	80074e0 <TIM_UpdateRequestConfig+0x24>
 80074ce:	9b02      	ldr	r3, [sp, #8]
 80074d0:	881b      	ldrh	r3, [r3, #0]
 80074d2:	b29b      	uxth	r3, r3
 80074d4:	f043 0304 	orr.w	r3, r3, #4	; 0x4
 80074d8:	b29b      	uxth	r3, r3
 80074da:	9a02      	ldr	r2, [sp, #8]
 80074dc:	8013      	strh	r3, [r2, #0]
 80074de:	e00d      	b.n	80074fc <TIM_UpdateRequestConfig+0x40>
 80074e0:	9b02      	ldr	r3, [sp, #8]
 80074e2:	881b      	ldrh	r3, [r3, #0]
 80074e4:	b29b      	uxth	r3, r3
 80074e6:	9300      	str	r3, [sp, #0]
 80074e8:	f240 33fb 	movw	r3, #1019	; 0x3fb
 80074ec:	9900      	ldr	r1, [sp, #0]
 80074ee:	ea01 0303 	and.w	r3, r1, r3
 80074f2:	9300      	str	r3, [sp, #0]
 80074f4:	9a02      	ldr	r2, [sp, #8]
 80074f6:	9900      	ldr	r1, [sp, #0]
 80074f8:	460b      	mov	r3, r1
 80074fa:	8013      	strh	r3, [r2, #0]
 80074fc:	b003      	add	sp, #12
 80074fe:	4770      	bx	lr

08007500 <TIM_SelectHallSensor>:
 8007500:	b083      	sub	sp, #12
 8007502:	9002      	str	r0, [sp, #8]
 8007504:	9101      	str	r1, [sp, #4]
 8007506:	9b01      	ldr	r3, [sp, #4]
 8007508:	2b00      	cmp	r3, #0
 800750a:	d008      	beq.n	800751e <TIM_SelectHallSensor+0x1e>
 800750c:	9b02      	ldr	r3, [sp, #8]
 800750e:	889b      	ldrh	r3, [r3, #4]
 8007510:	b29b      	uxth	r3, r3
 8007512:	f043 0380 	orr.w	r3, r3, #128	; 0x80
 8007516:	b29b      	uxth	r3, r3
 8007518:	9a02      	ldr	r2, [sp, #8]
 800751a:	8093      	strh	r3, [r2, #4]
 800751c:	e00d      	b.n	800753a <TIM_SelectHallSensor+0x3a>
 800751e:	9b02      	ldr	r3, [sp, #8]
 8007520:	889b      	ldrh	r3, [r3, #4]
 8007522:	b29b      	uxth	r3, r3
 8007524:	9300      	str	r3, [sp, #0]
 8007526:	f64f 737f 	movw	r3, #65407	; 0xff7f
 800752a:	9900      	ldr	r1, [sp, #0]
 800752c:	ea01 0303 	and.w	r3, r1, r3
 8007530:	9300      	str	r3, [sp, #0]
 8007532:	9a02      	ldr	r2, [sp, #8]
 8007534:	9900      	ldr	r1, [sp, #0]
 8007536:	460b      	mov	r3, r1
 8007538:	8093      	strh	r3, [r2, #4]
 800753a:	b003      	add	sp, #12
 800753c:	4770      	bx	lr
 800753e:	46c0      	nop			(mov r8, r8)

08007540 <TIM_SelectOnePulseMode>:
 8007540:	b083      	sub	sp, #12
 8007542:	9002      	str	r0, [sp, #8]
 8007544:	460b      	mov	r3, r1
 8007546:	f8ad 3004 	strh.w	r3, [sp, #4]
 800754a:	9b02      	ldr	r3, [sp, #8]
 800754c:	881b      	ldrh	r3, [r3, #0]
 800754e:	b29b      	uxth	r3, r3
 8007550:	9300      	str	r3, [sp, #0]
 8007552:	f240 33f7 	movw	r3, #1015	; 0x3f7
 8007556:	9900      	ldr	r1, [sp, #0]
 8007558:	ea01 0303 	and.w	r3, r1, r3
 800755c:	9300      	str	r3, [sp, #0]
 800755e:	9a02      	ldr	r2, [sp, #8]
 8007560:	9900      	ldr	r1, [sp, #0]
 8007562:	460b      	mov	r3, r1
 8007564:	8013      	strh	r3, [r2, #0]
 8007566:	9b02      	ldr	r3, [sp, #8]
 8007568:	881b      	ldrh	r3, [r3, #0]
 800756a:	b29a      	uxth	r2, r3
 800756c:	f8bd 3004 	ldrh.w	r3, [sp, #4]
 8007570:	ea42 0303 	orr.w	r3, r2, r3
 8007574:	b29b      	uxth	r3, r3
 8007576:	9a02      	ldr	r2, [sp, #8]
 8007578:	8013      	strh	r3, [r2, #0]
 800757a:	b003      	add	sp, #12
 800757c:	4770      	bx	lr
 800757e:	46c0      	nop			(mov r8, r8)

08007580 <TIM_SelectOutputTrigger>:
 8007580:	b083      	sub	sp, #12
 8007582:	9002      	str	r0, [sp, #8]
 8007584:	460b      	mov	r3, r1
 8007586:	f8ad 3004 	strh.w	r3, [sp, #4]
 800758a:	9b02      	ldr	r3, [sp, #8]
 800758c:	889b      	ldrh	r3, [r3, #4]
 800758e:	b29b      	uxth	r3, r3
 8007590:	9300      	str	r3, [sp, #0]
 8007592:	f64f 738f 	movw	r3, #65423	; 0xff8f
 8007596:	9900      	ldr	r1, [sp, #0]
 8007598:	ea01 0303 	and.w	r3, r1, r3
 800759c:	9300      	str	r3, [sp, #0]
 800759e:	9a02      	ldr	r2, [sp, #8]
 80075a0:	9900      	ldr	r1, [sp, #0]
 80075a2:	460b      	mov	r3, r1
 80075a4:	8093      	strh	r3, [r2, #4]
 80075a6:	9b02      	ldr	r3, [sp, #8]
 80075a8:	889b      	ldrh	r3, [r3, #4]
 80075aa:	b29a      	uxth	r2, r3
 80075ac:	f8bd 3004 	ldrh.w	r3, [sp, #4]
 80075b0:	ea42 0303 	orr.w	r3, r2, r3
 80075b4:	b29b      	uxth	r3, r3
 80075b6:	9a02      	ldr	r2, [sp, #8]
 80075b8:	8093      	strh	r3, [r2, #4]
 80075ba:	b003      	add	sp, #12
 80075bc:	4770      	bx	lr
 80075be:	46c0      	nop			(mov r8, r8)

080075c0 <TIM_SelectSlaveMode>:
 80075c0:	b083      	sub	sp, #12
 80075c2:	9002      	str	r0, [sp, #8]
 80075c4:	460b      	mov	r3, r1
 80075c6:	f8ad 3004 	strh.w	r3, [sp, #4]
 80075ca:	9b02      	ldr	r3, [sp, #8]
 80075cc:	891b      	ldrh	r3, [r3, #8]
 80075ce:	b29b      	uxth	r3, r3
 80075d0:	9300      	str	r3, [sp, #0]
 80075d2:	f64f 73f8 	movw	r3, #65528	; 0xfff8
 80075d6:	9900      	ldr	r1, [sp, #0]
 80075d8:	ea01 0303 	and.w	r3, r1, r3
 80075dc:	9300      	str	r3, [sp, #0]
 80075de:	9a02      	ldr	r2, [sp, #8]
 80075e0:	9900      	ldr	r1, [sp, #0]
 80075e2:	460b      	mov	r3, r1
 80075e4:	8113      	strh	r3, [r2, #8]
 80075e6:	9b02      	ldr	r3, [sp, #8]
 80075e8:	891b      	ldrh	r3, [r3, #8]
 80075ea:	b29a      	uxth	r2, r3
 80075ec:	f8bd 3004 	ldrh.w	r3, [sp, #4]
 80075f0:	ea42 0303 	orr.w	r3, r2, r3
 80075f4:	b29b      	uxth	r3, r3
 80075f6:	9a02      	ldr	r2, [sp, #8]
 80075f8:	8113      	strh	r3, [r2, #8]
 80075fa:	b003      	add	sp, #12
 80075fc:	4770      	bx	lr
 80075fe:	46c0      	nop			(mov r8, r8)

08007600 <TIM_SelectMasterSlaveMode>:
 8007600:	b083      	sub	sp, #12
 8007602:	9002      	str	r0, [sp, #8]
 8007604:	460b      	mov	r3, r1
 8007606:	f8ad 3004 	strh.w	r3, [sp, #4]
 800760a:	9b02      	ldr	r3, [sp, #8]
 800760c:	891b      	ldrh	r3, [r3, #8]
 800760e:	b29b      	uxth	r3, r3
 8007610:	9300      	str	r3, [sp, #0]
 8007612:	f64f 737f 	movw	r3, #65407	; 0xff7f
 8007616:	9900      	ldr	r1, [sp, #0]
 8007618:	ea01 0303 	and.w	r3, r1, r3
 800761c:	9300      	str	r3, [sp, #0]
 800761e:	9a02      	ldr	r2, [sp, #8]
 8007620:	9900      	ldr	r1, [sp, #0]
 8007622:	460b      	mov	r3, r1
 8007624:	8113      	strh	r3, [r2, #8]
 8007626:	9b02      	ldr	r3, [sp, #8]
 8007628:	891b      	ldrh	r3, [r3, #8]
 800762a:	b29a      	uxth	r2, r3
 800762c:	f8bd 3004 	ldrh.w	r3, [sp, #4]
 8007630:	ea42 0303 	orr.w	r3, r2, r3
 8007634:	b29b      	uxth	r3, r3
 8007636:	9a02      	ldr	r2, [sp, #8]
 8007638:	8113      	strh	r3, [r2, #8]
 800763a:	b003      	add	sp, #12
 800763c:	4770      	bx	lr
 800763e:	46c0      	nop			(mov r8, r8)

08007640 <TIM_SetCounter>:
 8007640:	b082      	sub	sp, #8
 8007642:	9001      	str	r0, [sp, #4]
 8007644:	460b      	mov	r3, r1
 8007646:	f8ad 3000 	strh.w	r3, [sp]
 800764a:	9a01      	ldr	r2, [sp, #4]
 800764c:	f8bd 3000 	ldrh.w	r3, [sp]
 8007650:	8493      	strh	r3, [r2, #36]
 8007652:	b002      	add	sp, #8
 8007654:	4770      	bx	lr
 8007656:	46c0      	nop			(mov r8, r8)

08007658 <TIM_SetAutoreload>:
 8007658:	b082      	sub	sp, #8
 800765a:	9001      	str	r0, [sp, #4]
 800765c:	460b      	mov	r3, r1
 800765e:	f8ad 3000 	strh.w	r3, [sp]
 8007662:	9a01      	ldr	r2, [sp, #4]
 8007664:	f8bd 3000 	ldrh.w	r3, [sp]
 8007668:	8593      	strh	r3, [r2, #44]
 800766a:	b002      	add	sp, #8
 800766c:	4770      	bx	lr
 800766e:	46c0      	nop			(mov r8, r8)

08007670 <TIM_SetCompare1>:
 8007670:	b082      	sub	sp, #8
 8007672:	9001      	str	r0, [sp, #4]
 8007674:	460b      	mov	r3, r1
 8007676:	f8ad 3000 	strh.w	r3, [sp]
 800767a:	9a01      	ldr	r2, [sp, #4]
 800767c:	f8bd 3000 	ldrh.w	r3, [sp]
 8007680:	8693      	strh	r3, [r2, #52]
 8007682:	b002      	add	sp, #8
 8007684:	4770      	bx	lr
 8007686:	46c0      	nop			(mov r8, r8)

08007688 <TIM_SetCompare2>:
 8007688:	b082      	sub	sp, #8
 800768a:	9001      	str	r0, [sp, #4]
 800768c:	460b      	mov	r3, r1
 800768e:	f8ad 3000 	strh.w	r3, [sp]
 8007692:	9a01      	ldr	r2, [sp, #4]
 8007694:	f8bd 3000 	ldrh.w	r3, [sp]
 8007698:	8713      	strh	r3, [r2, #56]
 800769a:	b002      	add	sp, #8
 800769c:	4770      	bx	lr
 800769e:	46c0      	nop			(mov r8, r8)

080076a0 <TIM_SetCompare3>:
 80076a0:	b082      	sub	sp, #8
 80076a2:	9001      	str	r0, [sp, #4]
 80076a4:	460b      	mov	r3, r1
 80076a6:	f8ad 3000 	strh.w	r3, [sp]
 80076aa:	9a01      	ldr	r2, [sp, #4]
 80076ac:	f8bd 3000 	ldrh.w	r3, [sp]
 80076b0:	8793      	strh	r3, [r2, #60]
 80076b2:	b002      	add	sp, #8
 80076b4:	4770      	bx	lr
 80076b6:	46c0      	nop			(mov r8, r8)

080076b8 <TIM_SetCompare4>:
 80076b8:	b082      	sub	sp, #8
 80076ba:	9001      	str	r0, [sp, #4]
 80076bc:	460b      	mov	r3, r1
 80076be:	f8ad 3000 	strh.w	r3, [sp]
 80076c2:	9a01      	ldr	r2, [sp, #4]
 80076c4:	f8bd 3000 	ldrh.w	r3, [sp]
 80076c8:	f8a2 3040 	strh.w	r3, [r2, #64]
 80076cc:	b002      	add	sp, #8
 80076ce:	4770      	bx	lr

080076d0 <TIM_SetIC1Prescaler>:
 80076d0:	b083      	sub	sp, #12
 80076d2:	9002      	str	r0, [sp, #8]
 80076d4:	460b      	mov	r3, r1
 80076d6:	f8ad 3004 	strh.w	r3, [sp, #4]
 80076da:	9b02      	ldr	r3, [sp, #8]
 80076dc:	8b1b      	ldrh	r3, [r3, #24]
 80076de:	b29b      	uxth	r3, r3
 80076e0:	9300      	str	r3, [sp, #0]
 80076e2:	f64f 73f3 	movw	r3, #65523	; 0xfff3
 80076e6:	9900      	ldr	r1, [sp, #0]
 80076e8:	ea01 0303 	and.w	r3, r1, r3
 80076ec:	9300      	str	r3, [sp, #0]
 80076ee:	9a02      	ldr	r2, [sp, #8]
 80076f0:	9900      	ldr	r1, [sp, #0]
 80076f2:	460b      	mov	r3, r1
 80076f4:	8313      	strh	r3, [r2, #24]
 80076f6:	9b02      	ldr	r3, [sp, #8]
 80076f8:	8b1b      	ldrh	r3, [r3, #24]
 80076fa:	b29a      	uxth	r2, r3
 80076fc:	f8bd 3004 	ldrh.w	r3, [sp, #4]
 8007700:	ea42 0303 	orr.w	r3, r2, r3
 8007704:	b29b      	uxth	r3, r3
 8007706:	9a02      	ldr	r2, [sp, #8]
 8007708:	8313      	strh	r3, [r2, #24]
 800770a:	b003      	add	sp, #12
 800770c:	4770      	bx	lr
 800770e:	46c0      	nop			(mov r8, r8)

08007710 <TIM_SetIC2Prescaler>:
 8007710:	b083      	sub	sp, #12
 8007712:	9002      	str	r0, [sp, #8]
 8007714:	460b      	mov	r3, r1
 8007716:	f8ad 3004 	strh.w	r3, [sp, #4]
 800771a:	9b02      	ldr	r3, [sp, #8]
 800771c:	8b1b      	ldrh	r3, [r3, #24]
 800771e:	b29b      	uxth	r3, r3
 8007720:	9300      	str	r3, [sp, #0]
 8007722:	f24f 33ff 	movw	r3, #62463	; 0xf3ff
 8007726:	9900      	ldr	r1, [sp, #0]
 8007728:	ea01 0303 	and.w	r3, r1, r3
 800772c:	9300      	str	r3, [sp, #0]
 800772e:	9a02      	ldr	r2, [sp, #8]
 8007730:	9900      	ldr	r1, [sp, #0]
 8007732:	460b      	mov	r3, r1
 8007734:	8313      	strh	r3, [r2, #24]
 8007736:	9b02      	ldr	r3, [sp, #8]
 8007738:	8b1b      	ldrh	r3, [r3, #24]
 800773a:	b29a      	uxth	r2, r3
 800773c:	f8bd 3004 	ldrh.w	r3, [sp, #4]
 8007740:	ea4f 2303 	mov.w	r3, r3, lsl #8
 8007744:	b29b      	uxth	r3, r3
 8007746:	ea42 0303 	orr.w	r3, r2, r3
 800774a:	b29b      	uxth	r3, r3
 800774c:	9a02      	ldr	r2, [sp, #8]
 800774e:	8313      	strh	r3, [r2, #24]
 8007750:	b003      	add	sp, #12
 8007752:	4770      	bx	lr

08007754 <TIM_SetIC3Prescaler>:
 8007754:	b083      	sub	sp, #12
 8007756:	9002      	str	r0, [sp, #8]
 8007758:	460b      	mov	r3, r1
 800775a:	f8ad 3004 	strh.w	r3, [sp, #4]
 800775e:	9b02      	ldr	r3, [sp, #8]
 8007760:	8b9b      	ldrh	r3, [r3, #28]
 8007762:	b29b      	uxth	r3, r3
 8007764:	9300      	str	r3, [sp, #0]
 8007766:	f64f 73f3 	movw	r3, #65523	; 0xfff3
 800776a:	9900      	ldr	r1, [sp, #0]
 800776c:	ea01 0303 	and.w	r3, r1, r3
 8007770:	9300      	str	r3, [sp, #0]
 8007772:	9a02      	ldr	r2, [sp, #8]
 8007774:	9900      	ldr	r1, [sp, #0]
 8007776:	460b      	mov	r3, r1
 8007778:	8393      	strh	r3, [r2, #28]
 800777a:	9b02      	ldr	r3, [sp, #8]
 800777c:	8b9b      	ldrh	r3, [r3, #28]
 800777e:	b29a      	uxth	r2, r3
 8007780:	f8bd 3004 	ldrh.w	r3, [sp, #4]
 8007784:	ea42 0303 	orr.w	r3, r2, r3
 8007788:	b29b      	uxth	r3, r3
 800778a:	9a02      	ldr	r2, [sp, #8]
 800778c:	8393      	strh	r3, [r2, #28]
 800778e:	b003      	add	sp, #12
 8007790:	4770      	bx	lr
 8007792:	46c0      	nop			(mov r8, r8)

08007794 <TIM_SetIC4Prescaler>:
 8007794:	b083      	sub	sp, #12
 8007796:	9002      	str	r0, [sp, #8]
 8007798:	460b      	mov	r3, r1
 800779a:	f8ad 3004 	strh.w	r3, [sp, #4]
 800779e:	9b02      	ldr	r3, [sp, #8]
 80077a0:	8b9b      	ldrh	r3, [r3, #28]
 80077a2:	b29b      	uxth	r3, r3
 80077a4:	9300      	str	r3, [sp, #0]
 80077a6:	f24f 33ff 	movw	r3, #62463	; 0xf3ff
 80077aa:	9900      	ldr	r1, [sp, #0]
 80077ac:	ea01 0303 	and.w	r3, r1, r3
 80077b0:	9300      	str	r3, [sp, #0]
 80077b2:	9a02      	ldr	r2, [sp, #8]
 80077b4:	9900      	ldr	r1, [sp, #0]
 80077b6:	460b      	mov	r3, r1
 80077b8:	8393      	strh	r3, [r2, #28]
 80077ba:	9b02      	ldr	r3, [sp, #8]
 80077bc:	8b9b      	ldrh	r3, [r3, #28]
 80077be:	b29a      	uxth	r2, r3
 80077c0:	f8bd 3004 	ldrh.w	r3, [sp, #4]
 80077c4:	ea4f 2303 	mov.w	r3, r3, lsl #8
 80077c8:	b29b      	uxth	r3, r3
 80077ca:	ea42 0303 	orr.w	r3, r2, r3
 80077ce:	b29b      	uxth	r3, r3
 80077d0:	9a02      	ldr	r2, [sp, #8]
 80077d2:	8393      	strh	r3, [r2, #28]
 80077d4:	b003      	add	sp, #12
 80077d6:	4770      	bx	lr

080077d8 <TIM_SetClockDivision>:
 80077d8:	b082      	sub	sp, #8
 80077da:	9001      	str	r0, [sp, #4]
 80077dc:	460b      	mov	r3, r1
 80077de:	f8ad 3000 	strh.w	r3, [sp]
 80077e2:	9b01      	ldr	r3, [sp, #4]
 80077e4:	881b      	ldrh	r3, [r3, #0]
 80077e6:	b29b      	uxth	r3, r3
 80077e8:	f003 03ff 	and.w	r3, r3, #255	; 0xff
 80077ec:	9a01      	ldr	r2, [sp, #4]
 80077ee:	8013      	strh	r3, [r2, #0]
 80077f0:	9b01      	ldr	r3, [sp, #4]
 80077f2:	881b      	ldrh	r3, [r3, #0]
 80077f4:	b29a      	uxth	r2, r3
 80077f6:	f8bd 3000 	ldrh.w	r3, [sp]
 80077fa:	ea42 0303 	orr.w	r3, r2, r3
 80077fe:	b29b      	uxth	r3, r3
 8007800:	9a01      	ldr	r2, [sp, #4]
 8007802:	8013      	strh	r3, [r2, #0]
 8007804:	b002      	add	sp, #8
 8007806:	4770      	bx	lr

08007808 <TIM_GetCapture1>:
 8007808:	b081      	sub	sp, #4
 800780a:	9000      	str	r0, [sp, #0]
 800780c:	9b00      	ldr	r3, [sp, #0]
 800780e:	8e9b      	ldrh	r3, [r3, #52]
 8007810:	b29b      	uxth	r3, r3
 8007812:	4618      	mov	r0, r3
 8007814:	b001      	add	sp, #4
 8007816:	4770      	bx	lr

08007818 <TIM_GetCapture2>:
 8007818:	b081      	sub	sp, #4
 800781a:	9000      	str	r0, [sp, #0]
 800781c:	9b00      	ldr	r3, [sp, #0]
 800781e:	8f1b      	ldrh	r3, [r3, #56]
 8007820:	b29b      	uxth	r3, r3
 8007822:	4618      	mov	r0, r3
 8007824:	b001      	add	sp, #4
 8007826:	4770      	bx	lr

08007828 <TIM_GetCapture3>:
 8007828:	b081      	sub	sp, #4
 800782a:	9000      	str	r0, [sp, #0]
 800782c:	9b00      	ldr	r3, [sp, #0]
 800782e:	8f9b      	ldrh	r3, [r3, #60]
 8007830:	b29b      	uxth	r3, r3
 8007832:	4618      	mov	r0, r3
 8007834:	b001      	add	sp, #4
 8007836:	4770      	bx	lr

08007838 <TIM_GetCapture4>:
 8007838:	b081      	sub	sp, #4
 800783a:	9000      	str	r0, [sp, #0]
 800783c:	9b00      	ldr	r3, [sp, #0]
 800783e:	f8b3 3040 	ldrh.w	r3, [r3, #64]
 8007842:	b29b      	uxth	r3, r3
 8007844:	4618      	mov	r0, r3
 8007846:	b001      	add	sp, #4
 8007848:	4770      	bx	lr
 800784a:	46c0      	nop			(mov r8, r8)

0800784c <TIM_GetCounter>:
 800784c:	b081      	sub	sp, #4
 800784e:	9000      	str	r0, [sp, #0]
 8007850:	9b00      	ldr	r3, [sp, #0]
 8007852:	8c9b      	ldrh	r3, [r3, #36]
 8007854:	b29b      	uxth	r3, r3
 8007856:	4618      	mov	r0, r3
 8007858:	b001      	add	sp, #4
 800785a:	4770      	bx	lr

0800785c <TIM_GetPrescaler>:
 800785c:	b081      	sub	sp, #4
 800785e:	9000      	str	r0, [sp, #0]
 8007860:	9b00      	ldr	r3, [sp, #0]
 8007862:	8d1b      	ldrh	r3, [r3, #40]
 8007864:	b29b      	uxth	r3, r3
 8007866:	4618      	mov	r0, r3
 8007868:	b001      	add	sp, #4
 800786a:	4770      	bx	lr

0800786c <TIM_GetFlagStatus>:
 800786c:	b083      	sub	sp, #12
 800786e:	9001      	str	r0, [sp, #4]
 8007870:	460b      	mov	r3, r1
 8007872:	f8ad 3000 	strh.w	r3, [sp]
 8007876:	f04f 0300 	mov.w	r3, #0	; 0x0
 800787a:	9302      	str	r3, [sp, #8]
 800787c:	9b01      	ldr	r3, [sp, #4]
 800787e:	8a1b      	ldrh	r3, [r3, #16]
 8007880:	b29a      	uxth	r2, r3
 8007882:	f8bd 3000 	ldrh.w	r3, [sp]
 8007886:	ea02 0303 	and.w	r3, r2, r3
 800788a:	b29b      	uxth	r3, r3
 800788c:	2b00      	cmp	r3, #0
 800788e:	d003      	beq.n	8007898 <TIM_GetFlagStatus+0x2c>
 8007890:	f04f 0301 	mov.w	r3, #1	; 0x1
 8007894:	9302      	str	r3, [sp, #8]
 8007896:	e002      	b.n	800789e <TIM_GetFlagStatus+0x32>
 8007898:	f04f 0300 	mov.w	r3, #0	; 0x0
 800789c:	9302      	str	r3, [sp, #8]
 800789e:	9b02      	ldr	r3, [sp, #8]
 80078a0:	4618      	mov	r0, r3
 80078a2:	b003      	add	sp, #12
 80078a4:	4770      	bx	lr
 80078a6:	46c0      	nop			(mov r8, r8)

080078a8 <TIM_ClearFlag>:
 80078a8:	b082      	sub	sp, #8
 80078aa:	9001      	str	r0, [sp, #4]
 80078ac:	460b      	mov	r3, r1
 80078ae:	f8ad 3000 	strh.w	r3, [sp]
 80078b2:	f8bd 3000 	ldrh.w	r3, [sp]
 80078b6:	ea6f 0303 	mvn.w	r3, r3
 80078ba:	b29b      	uxth	r3, r3
 80078bc:	9a01      	ldr	r2, [sp, #4]
 80078be:	8213      	strh	r3, [r2, #16]
 80078c0:	b002      	add	sp, #8
 80078c2:	4770      	bx	lr

080078c4 <TIM_GetITStatus>:
 80078c4:	b084      	sub	sp, #16
 80078c6:	9001      	str	r0, [sp, #4]
 80078c8:	460b      	mov	r3, r1
 80078ca:	f8ad 3000 	strh.w	r3, [sp]
 80078ce:	f04f 0300 	mov.w	r3, #0	; 0x0
 80078d2:	9302      	str	r3, [sp, #8]
 80078d4:	f04f 0300 	mov.w	r3, #0	; 0x0
 80078d8:	f8ad 300c 	strh.w	r3, [sp, #12]
 80078dc:	f04f 0300 	mov.w	r3, #0	; 0x0
 80078e0:	f8ad 300e 	strh.w	r3, [sp, #14]
 80078e4:	9b01      	ldr	r3, [sp, #4]
 80078e6:	8a1b      	ldrh	r3, [r3, #16]
 80078e8:	b29a      	uxth	r2, r3
 80078ea:	f8bd 3000 	ldrh.w	r3, [sp]
 80078ee:	ea02 0303 	and.w	r3, r2, r3
 80078f2:	f8ad 300c 	strh.w	r3, [sp, #12]
 80078f6:	9b01      	ldr	r3, [sp, #4]
 80078f8:	899b      	ldrh	r3, [r3, #12]
 80078fa:	b29a      	uxth	r2, r3
 80078fc:	f8bd 3000 	ldrh.w	r3, [sp]
 8007900:	ea02 0303 	and.w	r3, r2, r3
 8007904:	f8ad 300e 	strh.w	r3, [sp, #14]
 8007908:	f8bd 300c 	ldrh.w	r3, [sp, #12]
 800790c:	2b00      	cmp	r3, #0
 800790e:	d007      	beq.n	8007920 <TIM_GetITStatus+0x5c>
 8007910:	f8bd 300e 	ldrh.w	r3, [sp, #14]
 8007914:	2b00      	cmp	r3, #0
 8007916:	d003      	beq.n	8007920 <TIM_GetITStatus+0x5c>
 8007918:	f04f 0301 	mov.w	r3, #1	; 0x1
 800791c:	9302      	str	r3, [sp, #8]
 800791e:	e002      	b.n	8007926 <TIM_GetITStatus+0x62>
 8007920:	f04f 0300 	mov.w	r3, #0	; 0x0
 8007924:	9302      	str	r3, [sp, #8]
 8007926:	9b02      	ldr	r3, [sp, #8]
 8007928:	4618      	mov	r0, r3
 800792a:	b004      	add	sp, #16
 800792c:	4770      	bx	lr
 800792e:	46c0      	nop			(mov r8, r8)

08007930 <TIM_ClearITPendingBit>:
 8007930:	b082      	sub	sp, #8
 8007932:	9001      	str	r0, [sp, #4]
 8007934:	460b      	mov	r3, r1
 8007936:	f8ad 3000 	strh.w	r3, [sp]
 800793a:	f8bd 3000 	ldrh.w	r3, [sp]
 800793e:	ea6f 0303 	mvn.w	r3, r3
 8007942:	b29b      	uxth	r3, r3
 8007944:	9a01      	ldr	r2, [sp, #4]
 8007946:	8213      	strh	r3, [r2, #16]
 8007948:	b002      	add	sp, #8
 800794a:	4770      	bx	lr

0800794c <TI1_Config>:
 800794c:	b086      	sub	sp, #24
 800794e:	9004      	str	r0, [sp, #16]
 8007950:	4618      	mov	r0, r3
 8007952:	460b      	mov	r3, r1
 8007954:	f8ad 300c 	strh.w	r3, [sp, #12]
 8007958:	4613      	mov	r3, r2
 800795a:	f8ad 3008 	strh.w	r3, [sp, #8]
 800795e:	4603      	mov	r3, r0
 8007960:	f8ad 3004 	strh.w	r3, [sp, #4]
 8007964:	f04f 0300 	mov.w	r3, #0	; 0x0
 8007968:	f8ad 3014 	strh.w	r3, [sp, #20]
 800796c:	f04f 0300 	mov.w	r3, #0	; 0x0
 8007970:	f8ad 3016 	strh.w	r3, [sp, #22]
 8007974:	9b04      	ldr	r3, [sp, #16]
 8007976:	8c1b      	ldrh	r3, [r3, #32]
 8007978:	b29b      	uxth	r3, r3
 800797a:	9300      	str	r3, [sp, #0]
 800797c:	f64f 73fe 	movw	r3, #65534	; 0xfffe
 8007980:	9900      	ldr	r1, [sp, #0]
 8007982:	ea01 0303 	and.w	r3, r1, r3
 8007986:	9300      	str	r3, [sp, #0]
 8007988:	9a04      	ldr	r2, [sp, #16]
 800798a:	9900      	ldr	r1, [sp, #0]
 800798c:	460b      	mov	r3, r1
 800798e:	8413      	strh	r3, [r2, #32]
 8007990:	9b04      	ldr	r3, [sp, #16]
 8007992:	8b1b      	ldrh	r3, [r3, #24]
 8007994:	f8ad 3014 	strh.w	r3, [sp, #20]
 8007998:	9b04      	ldr	r3, [sp, #16]
 800799a:	8c1b      	ldrh	r3, [r3, #32]
 800799c:	f8ad 3016 	strh.w	r3, [sp, #22]
 80079a0:	f8bd 3014 	ldrh.w	r3, [sp, #20]
 80079a4:	f023 03f3 	bic.w	r3, r3, #243	; 0xf3
 80079a8:	f8ad 3014 	strh.w	r3, [sp, #20]
 80079ac:	f8bd 3004 	ldrh.w	r3, [sp, #4]
 80079b0:	ea4f 1303 	mov.w	r3, r3, lsl #4
 80079b4:	b29a      	uxth	r2, r3
 80079b6:	f8bd 3008 	ldrh.w	r3, [sp, #8]
 80079ba:	ea42 0303 	orr.w	r3, r2, r3
 80079be:	b29a      	uxth	r2, r3
 80079c0:	f8bd 3014 	ldrh.w	r3, [sp, #20]
 80079c4:	ea42 0303 	orr.w	r3, r2, r3
 80079c8:	f8ad 3014 	strh.w	r3, [sp, #20]
 80079cc:	f8bd 3016 	ldrh.w	r3, [sp, #22]
 80079d0:	f023 0302 	bic.w	r3, r3, #2	; 0x2
 80079d4:	f8ad 3016 	strh.w	r3, [sp, #22]
 80079d8:	f8bd 200c 	ldrh.w	r2, [sp, #12]
 80079dc:	f8bd 3016 	ldrh.w	r3, [sp, #22]
 80079e0:	ea42 0303 	orr.w	r3, r2, r3
 80079e4:	b29b      	uxth	r3, r3
 80079e6:	f043 0301 	orr.w	r3, r3, #1	; 0x1
 80079ea:	f8ad 3016 	strh.w	r3, [sp, #22]
 80079ee:	9a04      	ldr	r2, [sp, #16]
 80079f0:	f8bd 3014 	ldrh.w	r3, [sp, #20]
 80079f4:	8313      	strh	r3, [r2, #24]
 80079f6:	9a04      	ldr	r2, [sp, #16]
 80079f8:	f8bd 3016 	ldrh.w	r3, [sp, #22]
 80079fc:	8413      	strh	r3, [r2, #32]
 80079fe:	b006      	add	sp, #24
 8007a00:	4770      	bx	lr
 8007a02:	46c0      	nop			(mov r8, r8)

08007a04 <TI2_Config>:
 8007a04:	b087      	sub	sp, #28
 8007a06:	9004      	str	r0, [sp, #16]
 8007a08:	4618      	mov	r0, r3
 8007a0a:	460b      	mov	r3, r1
 8007a0c:	f8ad 300c 	strh.w	r3, [sp, #12]
 8007a10:	4613      	mov	r3, r2
 8007a12:	f8ad 3008 	strh.w	r3, [sp, #8]
 8007a16:	4603      	mov	r3, r0
 8007a18:	f8ad 3004 	strh.w	r3, [sp, #4]
 8007a1c:	f04f 0300 	mov.w	r3, #0	; 0x0
 8007a20:	f8ad 3016 	strh.w	r3, [sp, #22]
 8007a24:	f04f 0300 	mov.w	r3, #0	; 0x0
 8007a28:	f8ad 3018 	strh.w	r3, [sp, #24]
 8007a2c:	f04f 0300 	mov.w	r3, #0	; 0x0
 8007a30:	f8ad 301a 	strh.w	r3, [sp, #26]
 8007a34:	9b04      	ldr	r3, [sp, #16]
 8007a36:	8c1b      	ldrh	r3, [r3, #32]
 8007a38:	b29b      	uxth	r3, r3
 8007a3a:	9300      	str	r3, [sp, #0]
 8007a3c:	f64f 73ef 	movw	r3, #65519	; 0xffef
 8007a40:	9900      	ldr	r1, [sp, #0]
 8007a42:	ea01 0303 	and.w	r3, r1, r3
 8007a46:	9300      	str	r3, [sp, #0]
 8007a48:	9a04      	ldr	r2, [sp, #16]
 8007a4a:	9900      	ldr	r1, [sp, #0]
 8007a4c:	460b      	mov	r3, r1
 8007a4e:	8413      	strh	r3, [r2, #32]
 8007a50:	9b04      	ldr	r3, [sp, #16]
 8007a52:	8b1b      	ldrh	r3, [r3, #24]
 8007a54:	f8ad 3016 	strh.w	r3, [sp, #22]
 8007a58:	9b04      	ldr	r3, [sp, #16]
 8007a5a:	8c1b      	ldrh	r3, [r3, #32]
 8007a5c:	f8ad 3018 	strh.w	r3, [sp, #24]
 8007a60:	f8bd 300c 	ldrh.w	r3, [sp, #12]
 8007a64:	ea4f 1303 	mov.w	r3, r3, lsl #4
 8007a68:	f8ad 301a 	strh.w	r3, [sp, #26]
 8007a6c:	f8bd 3016 	ldrh.w	r3, [sp, #22]
 8007a70:	f423 7340 	bic.w	r3, r3, #768	; 0x300
 8007a74:	ea4f 5303 	mov.w	r3, r3, lsl #20
 8007a78:	ea4f 5313 	mov.w	r3, r3, lsr #20
 8007a7c:	f8ad 3016 	strh.w	r3, [sp, #22]
 8007a80:	f8bd 3004 	ldrh.w	r3, [sp, #4]
 8007a84:	ea4f 3303 	mov.w	r3, r3, lsl #12
 8007a88:	b29a      	uxth	r2, r3
 8007a8a:	f8bd 3016 	ldrh.w	r3, [sp, #22]
 8007a8e:	ea42 0303 	orr.w	r3, r2, r3
 8007a92:	f8ad 3016 	strh.w	r3, [sp, #22]
 8007a96:	f8bd 3008 	ldrh.w	r3, [sp, #8]
 8007a9a:	ea4f 2303 	mov.w	r3, r3, lsl #8
 8007a9e:	b29a      	uxth	r2, r3
 8007aa0:	f8bd 3016 	ldrh.w	r3, [sp, #22]
 8007aa4:	ea42 0303 	orr.w	r3, r2, r3
 8007aa8:	f8ad 3016 	strh.w	r3, [sp, #22]
 8007aac:	f8bd 3018 	ldrh.w	r3, [sp, #24]
 8007ab0:	f023 0320 	bic.w	r3, r3, #32	; 0x20
 8007ab4:	f8ad 3018 	strh.w	r3, [sp, #24]
 8007ab8:	f8bd 201a 	ldrh.w	r2, [sp, #26]
 8007abc:	f8bd 3018 	ldrh.w	r3, [sp, #24]
 8007ac0:	ea42 0303 	orr.w	r3, r2, r3
 8007ac4:	b29b      	uxth	r3, r3
 8007ac6:	f043 0310 	orr.w	r3, r3, #16	; 0x10
 8007aca:	f8ad 3018 	strh.w	r3, [sp, #24]
 8007ace:	9a04      	ldr	r2, [sp, #16]
 8007ad0:	f8bd 3016 	ldrh.w	r3, [sp, #22]
 8007ad4:	8313      	strh	r3, [r2, #24]
 8007ad6:	9a04      	ldr	r2, [sp, #16]
 8007ad8:	f8bd 3018 	ldrh.w	r3, [sp, #24]
 8007adc:	8413      	strh	r3, [r2, #32]
 8007ade:	b007      	add	sp, #28
 8007ae0:	4770      	bx	lr
 8007ae2:	46c0      	nop			(mov r8, r8)

08007ae4 <TI3_Config>:
 8007ae4:	b087      	sub	sp, #28
 8007ae6:	9004      	str	r0, [sp, #16]
 8007ae8:	4618      	mov	r0, r3
 8007aea:	460b      	mov	r3, r1
 8007aec:	f8ad 300c 	strh.w	r3, [sp, #12]
 8007af0:	4613      	mov	r3, r2
 8007af2:	f8ad 3008 	strh.w	r3, [sp, #8]
 8007af6:	4603      	mov	r3, r0
 8007af8:	f8ad 3004 	strh.w	r3, [sp, #4]
 8007afc:	f04f 0300 	mov.w	r3, #0	; 0x0
 8007b00:	f8ad 3016 	strh.w	r3, [sp, #22]
 8007b04:	f04f 0300 	mov.w	r3, #0	; 0x0
 8007b08:	f8ad 3018 	strh.w	r3, [sp, #24]
 8007b0c:	f04f 0300 	mov.w	r3, #0	; 0x0
 8007b10:	f8ad 301a 	strh.w	r3, [sp, #26]
 8007b14:	9b04      	ldr	r3, [sp, #16]
 8007b16:	8c1b      	ldrh	r3, [r3, #32]
 8007b18:	b29b      	uxth	r3, r3
 8007b1a:	9300      	str	r3, [sp, #0]
 8007b1c:	f64f 63ff 	movw	r3, #65279	; 0xfeff
 8007b20:	9900      	ldr	r1, [sp, #0]
 8007b22:	ea01 0303 	and.w	r3, r1, r3
 8007b26:	9300      	str	r3, [sp, #0]
 8007b28:	9a04      	ldr	r2, [sp, #16]
 8007b2a:	9900      	ldr	r1, [sp, #0]
 8007b2c:	460b      	mov	r3, r1
 8007b2e:	8413      	strh	r3, [r2, #32]
 8007b30:	9b04      	ldr	r3, [sp, #16]
 8007b32:	8b9b      	ldrh	r3, [r3, #28]
 8007b34:	f8ad 3016 	strh.w	r3, [sp, #22]
 8007b38:	9b04      	ldr	r3, [sp, #16]
 8007b3a:	8c1b      	ldrh	r3, [r3, #32]
 8007b3c:	f8ad 3018 	strh.w	r3, [sp, #24]
 8007b40:	f8bd 300c 	ldrh.w	r3, [sp, #12]
 8007b44:	ea4f 2303 	mov.w	r3, r3, lsl #8
 8007b48:	f8ad 301a 	strh.w	r3, [sp, #26]
 8007b4c:	f8bd 3016 	ldrh.w	r3, [sp, #22]
 8007b50:	f023 03f3 	bic.w	r3, r3, #243	; 0xf3
 8007b54:	f8ad 3016 	strh.w	r3, [sp, #22]
 8007b58:	f8bd 3004 	ldrh.w	r3, [sp, #4]
 8007b5c:	ea4f 1303 	mov.w	r3, r3, lsl #4
 8007b60:	b29a      	uxth	r2, r3
 8007b62:	f8bd 3008 	ldrh.w	r3, [sp, #8]
 8007b66:	ea42 0303 	orr.w	r3, r2, r3
 8007b6a:	b29a      	uxth	r2, r3
 8007b6c:	f8bd 3016 	ldrh.w	r3, [sp, #22]
 8007b70:	ea42 0303 	orr.w	r3, r2, r3
 8007b74:	f8ad 3016 	strh.w	r3, [sp, #22]
 8007b78:	f8bd 3018 	ldrh.w	r3, [sp, #24]
 8007b7c:	f423 7300 	bic.w	r3, r3, #512	; 0x200
 8007b80:	f8ad 3018 	strh.w	r3, [sp, #24]
 8007b84:	f8bd 201a 	ldrh.w	r2, [sp, #26]
 8007b88:	f8bd 3018 	ldrh.w	r3, [sp, #24]
 8007b8c:	ea42 0303 	orr.w	r3, r2, r3
 8007b90:	b29b      	uxth	r3, r3
 8007b92:	f443 7380 	orr.w	r3, r3, #256	; 0x100
 8007b96:	f8ad 3018 	strh.w	r3, [sp, #24]
 8007b9a:	9a04      	ldr	r2, [sp, #16]
 8007b9c:	f8bd 3016 	ldrh.w	r3, [sp, #22]
 8007ba0:	8393      	strh	r3, [r2, #28]
 8007ba2:	9a04      	ldr	r2, [sp, #16]
 8007ba4:	f8bd 3018 	ldrh.w	r3, [sp, #24]
 8007ba8:	8413      	strh	r3, [r2, #32]
 8007baa:	b007      	add	sp, #28
 8007bac:	4770      	bx	lr
 8007bae:	46c0      	nop			(mov r8, r8)

08007bb0 <TI4_Config>:
 8007bb0:	b087      	sub	sp, #28
 8007bb2:	9004      	str	r0, [sp, #16]
 8007bb4:	4618      	mov	r0, r3
 8007bb6:	460b      	mov	r3, r1
 8007bb8:	f8ad 300c 	strh.w	r3, [sp, #12]
 8007bbc:	4613      	mov	r3, r2
 8007bbe:	f8ad 3008 	strh.w	r3, [sp, #8]
 8007bc2:	4603      	mov	r3, r0
 8007bc4:	f8ad 3004 	strh.w	r3, [sp, #4]
 8007bc8:	f04f 0300 	mov.w	r3, #0	; 0x0
 8007bcc:	f8ad 3016 	strh.w	r3, [sp, #22]
 8007bd0:	f04f 0300 	mov.w	r3, #0	; 0x0
 8007bd4:	f8ad 3018 	strh.w	r3, [sp, #24]
 8007bd8:	f04f 0300 	mov.w	r3, #0	; 0x0
 8007bdc:	f8ad 301a 	strh.w	r3, [sp, #26]
 8007be0:	9b04      	ldr	r3, [sp, #16]
 8007be2:	8c1b      	ldrh	r3, [r3, #32]
 8007be4:	b29b      	uxth	r3, r3
 8007be6:	9300      	str	r3, [sp, #0]
 8007be8:	f64e 73ff 	movw	r3, #61439	; 0xefff
 8007bec:	9900      	ldr	r1, [sp, #0]
 8007bee:	ea01 0303 	and.w	r3, r1, r3
 8007bf2:	9300      	str	r3, [sp, #0]
 8007bf4:	9a04      	ldr	r2, [sp, #16]
 8007bf6:	9900      	ldr	r1, [sp, #0]
 8007bf8:	460b      	mov	r3, r1
 8007bfa:	8413      	strh	r3, [r2, #32]
 8007bfc:	9b04      	ldr	r3, [sp, #16]
 8007bfe:	8b9b      	ldrh	r3, [r3, #28]
 8007c00:	f8ad 3016 	strh.w	r3, [sp, #22]
 8007c04:	9b04      	ldr	r3, [sp, #16]
 8007c06:	8c1b      	ldrh	r3, [r3, #32]
 8007c08:	f8ad 3018 	strh.w	r3, [sp, #24]
 8007c0c:	f8bd 300c 	ldrh.w	r3, [sp, #12]
 8007c10:	ea4f 3303 	mov.w	r3, r3, lsl #12
 8007c14:	f8ad 301a 	strh.w	r3, [sp, #26]
 8007c18:	f8bd 3016 	ldrh.w	r3, [sp, #22]
 8007c1c:	f423 7340 	bic.w	r3, r3, #768	; 0x300
 8007c20:	ea4f 5303 	mov.w	r3, r3, lsl #20
 8007c24:	ea4f 5313 	mov.w	r3, r3, lsr #20
 8007c28:	f8ad 3016 	strh.w	r3, [sp, #22]
 8007c2c:	f8bd 3008 	ldrh.w	r3, [sp, #8]
 8007c30:	ea4f 2303 	mov.w	r3, r3, lsl #8
 8007c34:	b29a      	uxth	r2, r3
 8007c36:	f8bd 3004 	ldrh.w	r3, [sp, #4]
 8007c3a:	ea4f 3303 	mov.w	r3, r3, lsl #12
 8007c3e:	b29b      	uxth	r3, r3
 8007c40:	ea42 0303 	orr.w	r3, r2, r3
 8007c44:	b29a      	uxth	r2, r3
 8007c46:	f8bd 3016 	ldrh.w	r3, [sp, #22]
 8007c4a:	ea42 0303 	orr.w	r3, r2, r3
 8007c4e:	f8ad 3016 	strh.w	r3, [sp, #22]
 8007c52:	f8bd 3018 	ldrh.w	r3, [sp, #24]
 8007c56:	f423 5300 	bic.w	r3, r3, #8192	; 0x2000
 8007c5a:	f8ad 3018 	strh.w	r3, [sp, #24]
 8007c5e:	f8bd 201a 	ldrh.w	r2, [sp, #26]
 8007c62:	f8bd 3018 	ldrh.w	r3, [sp, #24]
 8007c66:	ea42 0303 	orr.w	r3, r2, r3
 8007c6a:	b29b      	uxth	r3, r3
 8007c6c:	f443 5380 	orr.w	r3, r3, #4096	; 0x1000
 8007c70:	f8ad 3018 	strh.w	r3, [sp, #24]
 8007c74:	9a04      	ldr	r2, [sp, #16]
 8007c76:	f8bd 3016 	ldrh.w	r3, [sp, #22]
 8007c7a:	8393      	strh	r3, [r2, #28]
 8007c7c:	9a04      	ldr	r2, [sp, #16]
 8007c7e:	f8bd 3018 	ldrh.w	r3, [sp, #24]
 8007c82:	8413      	strh	r3, [r2, #32]
 8007c84:	b007      	add	sp, #28
 8007c86:	4770      	bx	lr

08007c88 <DMA_DeInit>:
 8007c88:	b082      	sub	sp, #8
 8007c8a:	9001      	str	r0, [sp, #4]
 8007c8c:	9a01      	ldr	r2, [sp, #4]
 8007c8e:	9b01      	ldr	r3, [sp, #4]
 8007c90:	681b      	ldr	r3, [r3, #0]
 8007c92:	f023 0301 	bic.w	r3, r3, #1	; 0x1
 8007c96:	6013      	str	r3, [r2, #0]
 8007c98:	9a01      	ldr	r2, [sp, #4]
 8007c9a:	f04f 0300 	mov.w	r3, #0	; 0x0
 8007c9e:	6013      	str	r3, [r2, #0]
 8007ca0:	9a01      	ldr	r2, [sp, #4]
 8007ca2:	f04f 0300 	mov.w	r3, #0	; 0x0
 8007ca6:	6053      	str	r3, [r2, #4]
 8007ca8:	9a01      	ldr	r2, [sp, #4]
 8007caa:	f04f 0300 	mov.w	r3, #0	; 0x0
 8007cae:	6093      	str	r3, [r2, #8]
 8007cb0:	9a01      	ldr	r2, [sp, #4]
 8007cb2:	f04f 0300 	mov.w	r3, #0	; 0x0
 8007cb6:	60d3      	str	r3, [r2, #12]
 8007cb8:	ab01      	add	r3, sp, #4
 8007cba:	681b      	ldr	r3, [r3, #0]
 8007cbc:	9300      	str	r3, [sp, #0]
 8007cbe:	4b4a      	ldr	r3, [pc, #296]	(8007de8 <DMA_DeInit+0x160>)
 8007cc0:	9a00      	ldr	r2, [sp, #0]
 8007cc2:	429a      	cmp	r2, r3
 8007cc4:	d05e      	beq.n	8007d84 <DMA_DeInit+0xfc>
 8007cc6:	4b48      	ldr	r3, [pc, #288]	(8007de8 <DMA_DeInit+0x160>)
 8007cc8:	9a00      	ldr	r2, [sp, #0]
 8007cca:	429a      	cmp	r2, r3
 8007ccc:	d819      	bhi.n	8007d02 <DMA_DeInit+0x7a>
 8007cce:	4b47      	ldr	r3, [pc, #284]	(8007dec <DMA_DeInit+0x164>)
 8007cd0:	9a00      	ldr	r2, [sp, #0]
 8007cd2:	429a      	cmp	r2, r3
 8007cd4:	d041      	beq.n	8007d5a <DMA_DeInit+0xd2>
 8007cd6:	4b45      	ldr	r3, [pc, #276]	(8007dec <DMA_DeInit+0x164>)
 8007cd8:	9a00      	ldr	r2, [sp, #0]
 8007cda:	429a      	cmp	r2, r3
 8007cdc:	d808      	bhi.n	8007cf0 <DMA_DeInit+0x68>
 8007cde:	4b44      	ldr	r3, [pc, #272]	(8007df0 <DMA_DeInit+0x168>)
 8007ce0:	9a00      	ldr	r2, [sp, #0]
 8007ce2:	429a      	cmp	r2, r3
 8007ce4:	d02b      	beq.n	8007d3e <DMA_DeInit+0xb6>
 8007ce6:	4b43      	ldr	r3, [pc, #268]	(8007df4 <DMA_DeInit+0x16c>)
 8007ce8:	9a00      	ldr	r2, [sp, #0]
 8007cea:	429a      	cmp	r2, r3
 8007cec:	d02e      	beq.n	8007d4c <DMA_DeInit+0xc4>
 8007cee:	e079      	b.n	8007de4 <DMA_DeInit+0x15c>
 8007cf0:	4b41      	ldr	r3, [pc, #260]	(8007df8 <DMA_DeInit+0x170>)
 8007cf2:	9a00      	ldr	r2, [sp, #0]
 8007cf4:	429a      	cmp	r2, r3
 8007cf6:	d037      	beq.n	8007d68 <DMA_DeInit+0xe0>
 8007cf8:	4b40      	ldr	r3, [pc, #256]	(8007dfc <DMA_DeInit+0x174>)
 8007cfa:	9a00      	ldr	r2, [sp, #0]
 8007cfc:	429a      	cmp	r2, r3
 8007cfe:	d03a      	beq.n	8007d76 <DMA_DeInit+0xee>
 8007d00:	e070      	b.n	8007de4 <DMA_DeInit+0x15c>
 8007d02:	4b3f      	ldr	r3, [pc, #252]	(8007e00 <DMA_DeInit+0x178>)
 8007d04:	9a00      	ldr	r2, [sp, #0]
 8007d06:	429a      	cmp	r2, r3
 8007d08:	d051      	beq.n	8007dae <DMA_DeInit+0x126>
 8007d0a:	4b3d      	ldr	r3, [pc, #244]	(8007e00 <DMA_DeInit+0x178>)
 8007d0c:	9a00      	ldr	r2, [sp, #0]
 8007d0e:	429a      	cmp	r2, r3
 8007d10:	d808      	bhi.n	8007d24 <DMA_DeInit+0x9c>
 8007d12:	4b3c      	ldr	r3, [pc, #240]	(8007e04 <DMA_DeInit+0x17c>)
 8007d14:	9a00      	ldr	r2, [sp, #0]
 8007d16:	429a      	cmp	r2, r3
 8007d18:	d03b      	beq.n	8007d92 <DMA_DeInit+0x10a>
 8007d1a:	4b3b      	ldr	r3, [pc, #236]	(8007e08 <DMA_DeInit+0x180>)
 8007d1c:	9a00      	ldr	r2, [sp, #0]
 8007d1e:	429a      	cmp	r2, r3
 8007d20:	d03e      	beq.n	8007da0 <DMA_DeInit+0x118>
 8007d22:	e05f      	b.n	8007de4 <DMA_DeInit+0x15c>
 8007d24:	4b39      	ldr	r3, [pc, #228]	(8007e0c <DMA_DeInit+0x184>)
 8007d26:	9a00      	ldr	r2, [sp, #0]
 8007d28:	429a      	cmp	r2, r3
 8007d2a:	d04e      	beq.n	8007dca <DMA_DeInit+0x142>
 8007d2c:	4b38      	ldr	r3, [pc, #224]	(8007e10 <DMA_DeInit+0x188>)
 8007d2e:	9a00      	ldr	r2, [sp, #0]
 8007d30:	429a      	cmp	r2, r3
 8007d32:	d051      	beq.n	8007dd8 <DMA_DeInit+0x150>
 8007d34:	4b37      	ldr	r3, [pc, #220]	(8007e14 <DMA_DeInit+0x18c>)
 8007d36:	9a00      	ldr	r2, [sp, #0]
 8007d38:	429a      	cmp	r2, r3
 8007d3a:	d03f      	beq.n	8007dbc <DMA_DeInit+0x134>
 8007d3c:	e052      	b.n	8007de4 <DMA_DeInit+0x15c>
 8007d3e:	4a36      	ldr	r2, [pc, #216]	(8007e18 <DMA_DeInit+0x190>)
 8007d40:	4b35      	ldr	r3, [pc, #212]	(8007e18 <DMA_DeInit+0x190>)
 8007d42:	685b      	ldr	r3, [r3, #4]
 8007d44:	f043 030f 	orr.w	r3, r3, #15	; 0xf
 8007d48:	6053      	str	r3, [r2, #4]
 8007d4a:	e04b      	b.n	8007de4 <DMA_DeInit+0x15c>
 8007d4c:	4a32      	ldr	r2, [pc, #200]	(8007e18 <DMA_DeInit+0x190>)
 8007d4e:	4b32      	ldr	r3, [pc, #200]	(8007e18 <DMA_DeInit+0x190>)
 8007d50:	685b      	ldr	r3, [r3, #4]
 8007d52:	f043 03f0 	orr.w	r3, r3, #240	; 0xf0
 8007d56:	6053      	str	r3, [r2, #4]
 8007d58:	e044      	b.n	8007de4 <DMA_DeInit+0x15c>
 8007d5a:	4a2f      	ldr	r2, [pc, #188]	(8007e18 <DMA_DeInit+0x190>)
 8007d5c:	4b2e      	ldr	r3, [pc, #184]	(8007e18 <DMA_DeInit+0x190>)
 8007d5e:	685b      	ldr	r3, [r3, #4]
 8007d60:	f443 6370 	orr.w	r3, r3, #3840	; 0xf00
 8007d64:	6053      	str	r3, [r2, #4]
 8007d66:	e03d      	b.n	8007de4 <DMA_DeInit+0x15c>
 8007d68:	4a2b      	ldr	r2, [pc, #172]	(8007e18 <DMA_DeInit+0x190>)
 8007d6a:	4b2b      	ldr	r3, [pc, #172]	(8007e18 <DMA_DeInit+0x190>)
 8007d6c:	685b      	ldr	r3, [r3, #4]
 8007d6e:	f443 4370 	orr.w	r3, r3, #61440	; 0xf000
 8007d72:	6053      	str	r3, [r2, #4]
 8007d74:	e036      	b.n	8007de4 <DMA_DeInit+0x15c>
 8007d76:	4a28      	ldr	r2, [pc, #160]	(8007e18 <DMA_DeInit+0x190>)
 8007d78:	4b27      	ldr	r3, [pc, #156]	(8007e18 <DMA_DeInit+0x190>)
 8007d7a:	685b      	ldr	r3, [r3, #4]
 8007d7c:	f443 2370 	orr.w	r3, r3, #983040	; 0xf0000
 8007d80:	6053      	str	r3, [r2, #4]
 8007d82:	e02f      	b.n	8007de4 <DMA_DeInit+0x15c>
 8007d84:	4a24      	ldr	r2, [pc, #144]	(8007e18 <DMA_DeInit+0x190>)
 8007d86:	4b24      	ldr	r3, [pc, #144]	(8007e18 <DMA_DeInit+0x190>)
 8007d88:	685b      	ldr	r3, [r3, #4]
 8007d8a:	f443 0370 	orr.w	r3, r3, #15728640	; 0xf00000
 8007d8e:	6053      	str	r3, [r2, #4]
 8007d90:	e028      	b.n	8007de4 <DMA_DeInit+0x15c>
 8007d92:	4a21      	ldr	r2, [pc, #132]	(8007e18 <DMA_DeInit+0x190>)
 8007d94:	4b20      	ldr	r3, [pc, #128]	(8007e18 <DMA_DeInit+0x190>)
 8007d96:	685b      	ldr	r3, [r3, #4]
 8007d98:	f043 6370 	orr.w	r3, r3, #251658240	; 0xf000000
 8007d9c:	6053      	str	r3, [r2, #4]
 8007d9e:	e021      	b.n	8007de4 <DMA_DeInit+0x15c>
 8007da0:	4a1e      	ldr	r2, [pc, #120]	(8007e1c <DMA_DeInit+0x194>)
 8007da2:	4b1e      	ldr	r3, [pc, #120]	(8007e1c <DMA_DeInit+0x194>)
 8007da4:	685b      	ldr	r3, [r3, #4]
 8007da6:	f043 030f 	orr.w	r3, r3, #15	; 0xf
 8007daa:	6053      	str	r3, [r2, #4]
 8007dac:	e01a      	b.n	8007de4 <DMA_DeInit+0x15c>
 8007dae:	4a1b      	ldr	r2, [pc, #108]	(8007e1c <DMA_DeInit+0x194>)
 8007db0:	4b1a      	ldr	r3, [pc, #104]	(8007e1c <DMA_DeInit+0x194>)
 8007db2:	685b      	ldr	r3, [r3, #4]
 8007db4:	f043 03f0 	orr.w	r3, r3, #240	; 0xf0
 8007db8:	6053      	str	r3, [r2, #4]
 8007dba:	e013      	b.n	8007de4 <DMA_DeInit+0x15c>
 8007dbc:	4a17      	ldr	r2, [pc, #92]	(8007e1c <DMA_DeInit+0x194>)
 8007dbe:	4b17      	ldr	r3, [pc, #92]	(8007e1c <DMA_DeInit+0x194>)
 8007dc0:	685b      	ldr	r3, [r3, #4]
 8007dc2:	f443 6370 	orr.w	r3, r3, #3840	; 0xf00
 8007dc6:	6053      	str	r3, [r2, #4]
 8007dc8:	e00c      	b.n	8007de4 <DMA_DeInit+0x15c>
 8007dca:	4a14      	ldr	r2, [pc, #80]	(8007e1c <DMA_DeInit+0x194>)
 8007dcc:	4b13      	ldr	r3, [pc, #76]	(8007e1c <DMA_DeInit+0x194>)
 8007dce:	685b      	ldr	r3, [r3, #4]
 8007dd0:	f443 4370 	orr.w	r3, r3, #61440	; 0xf000
 8007dd4:	6053      	str	r3, [r2, #4]
 8007dd6:	e005      	b.n	8007de4 <DMA_DeInit+0x15c>
 8007dd8:	4a10      	ldr	r2, [pc, #64]	(8007e1c <DMA_DeInit+0x194>)
 8007dda:	4b10      	ldr	r3, [pc, #64]	(8007e1c <DMA_DeInit+0x194>)
 8007ddc:	685b      	ldr	r3, [r3, #4]
 8007dde:	f443 2370 	orr.w	r3, r3, #983040	; 0xf0000
 8007de2:	6053      	str	r3, [r2, #4]
 8007de4:	b002      	add	sp, #8
 8007de6:	4770      	bx	lr
 8007de8:	4002006c 	.word	0x4002006c
 8007dec:	40020030 	.word	0x40020030
 8007df0:	40020008 	.word	0x40020008
 8007df4:	4002001c 	.word	0x4002001c
 8007df8:	40020044 	.word	0x40020044
 8007dfc:	40020058 	.word	0x40020058
 8007e00:	4002041c 	.word	0x4002041c
 8007e04:	40020080 	.word	0x40020080
 8007e08:	40020408 	.word	0x40020408
 8007e0c:	40020444 	.word	0x40020444
 8007e10:	40020458 	.word	0x40020458
 8007e14:	40020430 	.word	0x40020430
 8007e18:	40020000 	.word	0x40020000
 8007e1c:	40020400 	.word	0x40020400

08007e20 <DMA_Init>:
 8007e20:	b083      	sub	sp, #12
 8007e22:	9001      	str	r0, [sp, #4]
 8007e24:	9100      	str	r1, [sp, #0]
 8007e26:	f04f 0300 	mov.w	r3, #0	; 0x0
 8007e2a:	9302      	str	r3, [sp, #8]
 8007e2c:	9b01      	ldr	r3, [sp, #4]
 8007e2e:	681b      	ldr	r3, [r3, #0]
 8007e30:	9302      	str	r3, [sp, #8]
 8007e32:	9b02      	ldr	r3, [sp, #8]
 8007e34:	f423 43fe 	bic.w	r3, r3, #32512	; 0x7f00
 8007e38:	f023 03f0 	bic.w	r3, r3, #240	; 0xf0
 8007e3c:	9302      	str	r3, [sp, #8]
 8007e3e:	9b00      	ldr	r3, [sp, #0]
 8007e40:	689a      	ldr	r2, [r3, #8]
 8007e42:	9b00      	ldr	r3, [sp, #0]
 8007e44:	6a1b      	ldr	r3, [r3, #32]
 8007e46:	ea42 0203 	orr.w	r2, r2, r3
 8007e4a:	9b00      	ldr	r3, [sp, #0]
 8007e4c:	691b      	ldr	r3, [r3, #16]
 8007e4e:	ea42 0203 	orr.w	r2, r2, r3
 8007e52:	9b00      	ldr	r3, [sp, #0]
 8007e54:	695b      	ldr	r3, [r3, #20]
 8007e56:	ea42 0203 	orr.w	r2, r2, r3
 8007e5a:	9b00      	ldr	r3, [sp, #0]
 8007e5c:	699b      	ldr	r3, [r3, #24]
 8007e5e:	ea42 0203 	orr.w	r2, r2, r3
 8007e62:	9b00      	ldr	r3, [sp, #0]
 8007e64:	69db      	ldr	r3, [r3, #28]
 8007e66:	ea42 0203 	orr.w	r2, r2, r3
 8007e6a:	9b00      	ldr	r3, [sp, #0]
 8007e6c:	6a5b      	ldr	r3, [r3, #36]
 8007e6e:	ea42 0203 	orr.w	r2, r2, r3
 8007e72:	9b00      	ldr	r3, [sp, #0]
 8007e74:	6a9b      	ldr	r3, [r3, #40]
 8007e76:	ea42 0203 	orr.w	r2, r2, r3
 8007e7a:	9b02      	ldr	r3, [sp, #8]
 8007e7c:	ea43 0302 	orr.w	r3, r3, r2
 8007e80:	9302      	str	r3, [sp, #8]
 8007e82:	9a01      	ldr	r2, [sp, #4]
 8007e84:	9b02      	ldr	r3, [sp, #8]
 8007e86:	6013      	str	r3, [r2, #0]
 8007e88:	9b00      	ldr	r3, [sp, #0]
 8007e8a:	68da      	ldr	r2, [r3, #12]
 8007e8c:	9b01      	ldr	r3, [sp, #4]
 8007e8e:	605a      	str	r2, [r3, #4]
 8007e90:	9b00      	ldr	r3, [sp, #0]
 8007e92:	681a      	ldr	r2, [r3, #0]
 8007e94:	9b01      	ldr	r3, [sp, #4]
 8007e96:	609a      	str	r2, [r3, #8]
 8007e98:	9b00      	ldr	r3, [sp, #0]
 8007e9a:	685a      	ldr	r2, [r3, #4]
 8007e9c:	9b01      	ldr	r3, [sp, #4]
 8007e9e:	60da      	str	r2, [r3, #12]
 8007ea0:	b003      	add	sp, #12
 8007ea2:	4770      	bx	lr

08007ea4 <DMA_StructInit>:
 8007ea4:	b081      	sub	sp, #4
 8007ea6:	9000      	str	r0, [sp, #0]
 8007ea8:	9a00      	ldr	r2, [sp, #0]
 8007eaa:	f04f 0300 	mov.w	r3, #0	; 0x0
 8007eae:	6013      	str	r3, [r2, #0]
 8007eb0:	9a00      	ldr	r2, [sp, #0]
 8007eb2:	f04f 0300 	mov.w	r3, #0	; 0x0
 8007eb6:	6053      	str	r3, [r2, #4]
 8007eb8:	9a00      	ldr	r2, [sp, #0]
 8007eba:	f04f 0300 	mov.w	r3, #0	; 0x0
 8007ebe:	6093      	str	r3, [r2, #8]
 8007ec0:	9a00      	ldr	r2, [sp, #0]
 8007ec2:	f04f 0300 	mov.w	r3, #0	; 0x0
 8007ec6:	60d3      	str	r3, [r2, #12]
 8007ec8:	9a00      	ldr	r2, [sp, #0]
 8007eca:	f04f 0300 	mov.w	r3, #0	; 0x0
 8007ece:	6113      	str	r3, [r2, #16]
 8007ed0:	9a00      	ldr	r2, [sp, #0]
 8007ed2:	f04f 0300 	mov.w	r3, #0	; 0x0
 8007ed6:	6153      	str	r3, [r2, #20]
 8007ed8:	9a00      	ldr	r2, [sp, #0]
 8007eda:	f04f 0300 	mov.w	r3, #0	; 0x0
 8007ede:	6193      	str	r3, [r2, #24]
 8007ee0:	9a00      	ldr	r2, [sp, #0]
 8007ee2:	f04f 0300 	mov.w	r3, #0	; 0x0
 8007ee6:	61d3      	str	r3, [r2, #28]
 8007ee8:	9a00      	ldr	r2, [sp, #0]
 8007eea:	f04f 0300 	mov.w	r3, #0	; 0x0
 8007eee:	6213      	str	r3, [r2, #32]
 8007ef0:	9a00      	ldr	r2, [sp, #0]
 8007ef2:	f04f 0300 	mov.w	r3, #0	; 0x0
 8007ef6:	6253      	str	r3, [r2, #36]
 8007ef8:	9a00      	ldr	r2, [sp, #0]
 8007efa:	f04f 0300 	mov.w	r3, #0	; 0x0
 8007efe:	6293      	str	r3, [r2, #40]
 8007f00:	b001      	add	sp, #4
 8007f02:	4770      	bx	lr

08007f04 <DMA_Cmd>:
 8007f04:	b082      	sub	sp, #8
 8007f06:	9001      	str	r0, [sp, #4]
 8007f08:	9100      	str	r1, [sp, #0]
 8007f0a:	9b00      	ldr	r3, [sp, #0]
 8007f0c:	2b00      	cmp	r3, #0
 8007f0e:	d006      	beq.n	8007f1e <DMA_Cmd+0x1a>
 8007f10:	9b01      	ldr	r3, [sp, #4]
 8007f12:	681b      	ldr	r3, [r3, #0]
 8007f14:	f043 0201 	orr.w	r2, r3, #1	; 0x1
 8007f18:	9b01      	ldr	r3, [sp, #4]
 8007f1a:	601a      	str	r2, [r3, #0]
 8007f1c:	e005      	b.n	8007f2a <DMA_Cmd+0x26>
 8007f1e:	9b01      	ldr	r3, [sp, #4]
 8007f20:	681b      	ldr	r3, [r3, #0]
 8007f22:	f023 0201 	bic.w	r2, r3, #1	; 0x1
 8007f26:	9b01      	ldr	r3, [sp, #4]
 8007f28:	601a      	str	r2, [r3, #0]
 8007f2a:	b002      	add	sp, #8
 8007f2c:	4770      	bx	lr
 8007f2e:	46c0      	nop			(mov r8, r8)

08007f30 <DMA_ITConfig>:
 8007f30:	b083      	sub	sp, #12
 8007f32:	9002      	str	r0, [sp, #8]
 8007f34:	9101      	str	r1, [sp, #4]
 8007f36:	9200      	str	r2, [sp, #0]
 8007f38:	9b00      	ldr	r3, [sp, #0]
 8007f3a:	2b00      	cmp	r3, #0
 8007f3c:	d007      	beq.n	8007f4e <DMA_ITConfig+0x1e>
 8007f3e:	9b02      	ldr	r3, [sp, #8]
 8007f40:	681a      	ldr	r2, [r3, #0]
 8007f42:	9b01      	ldr	r3, [sp, #4]
 8007f44:	ea42 0203 	orr.w	r2, r2, r3
 8007f48:	9b02      	ldr	r3, [sp, #8]
 8007f4a:	601a      	str	r2, [r3, #0]
 8007f4c:	e008      	b.n	8007f60 <DMA_ITConfig+0x30>
 8007f4e:	9b02      	ldr	r3, [sp, #8]
 8007f50:	681a      	ldr	r2, [r3, #0]
 8007f52:	9b01      	ldr	r3, [sp, #4]
 8007f54:	ea6f 0303 	mvn.w	r3, r3
 8007f58:	ea02 0203 	and.w	r2, r2, r3
 8007f5c:	9b02      	ldr	r3, [sp, #8]
 8007f5e:	601a      	str	r2, [r3, #0]
 8007f60:	b003      	add	sp, #12
 8007f62:	4770      	bx	lr

08007f64 <DMA_GetCurrDataCounter>:
 8007f64:	b081      	sub	sp, #4
 8007f66:	9000      	str	r0, [sp, #0]
 8007f68:	9b00      	ldr	r3, [sp, #0]
 8007f6a:	685b      	ldr	r3, [r3, #4]
 8007f6c:	b29b      	uxth	r3, r3
 8007f6e:	4618      	mov	r0, r3
 8007f70:	b001      	add	sp, #4
 8007f72:	4770      	bx	lr

08007f74 <DMA_GetFlagStatus>:
 8007f74:	b083      	sub	sp, #12
 8007f76:	9000      	str	r0, [sp, #0]
 8007f78:	f04f 0300 	mov.w	r3, #0	; 0x0
 8007f7c:	9301      	str	r3, [sp, #4]
 8007f7e:	f04f 0300 	mov.w	r3, #0	; 0x0
 8007f82:	9302      	str	r3, [sp, #8]
 8007f84:	9b00      	ldr	r3, [sp, #0]
 8007f86:	f003 5380 	and.w	r3, r3, #268435456	; 0x10000000
 8007f8a:	2b00      	cmp	r3, #0
 8007f8c:	d003      	beq.n	8007f96 <DMA_GetFlagStatus+0x22>
 8007f8e:	4b0c      	ldr	r3, [pc, #48]	(8007fc0 <DMA_GetFlagStatus+0x4c>)
 8007f90:	681b      	ldr	r3, [r3, #0]
 8007f92:	9302      	str	r3, [sp, #8]
 8007f94:	e002      	b.n	8007f9c <DMA_GetFlagStatus+0x28>
 8007f96:	4b0b      	ldr	r3, [pc, #44]	(8007fc4 <DMA_GetFlagStatus+0x50>)
 8007f98:	681b      	ldr	r3, [r3, #0]
 8007f9a:	9302      	str	r3, [sp, #8]
 8007f9c:	9b02      	ldr	r3, [sp, #8]
 8007f9e:	9a00      	ldr	r2, [sp, #0]
 8007fa0:	ea03 0302 	and.w	r3, r3, r2
 8007fa4:	2b00      	cmp	r3, #0
 8007fa6:	d003      	beq.n	8007fb0 <DMA_GetFlagStatus+0x3c>
 8007fa8:	f04f 0301 	mov.w	r3, #1	; 0x1
 8007fac:	9301      	str	r3, [sp, #4]
 8007fae:	e002      	b.n	8007fb6 <DMA_GetFlagStatus+0x42>
 8007fb0:	f04f 0300 	mov.w	r3, #0	; 0x0
 8007fb4:	9301      	str	r3, [sp, #4]
 8007fb6:	9b01      	ldr	r3, [sp, #4]
 8007fb8:	4618      	mov	r0, r3
 8007fba:	b003      	add	sp, #12
 8007fbc:	4770      	bx	lr
 8007fbe:	46c0      	nop			(mov r8, r8)
 8007fc0:	40020400 	.word	0x40020400
 8007fc4:	40020000 	.word	0x40020000

08007fc8 <DMA_ClearFlag>:
 8007fc8:	b081      	sub	sp, #4
 8007fca:	9000      	str	r0, [sp, #0]
 8007fcc:	9b00      	ldr	r3, [sp, #0]
 8007fce:	f003 5380 	and.w	r3, r3, #268435456	; 0x10000000
 8007fd2:	2b00      	cmp	r3, #0
 8007fd4:	d003      	beq.n	8007fde <DMA_ClearFlag+0x16>
 8007fd6:	4a04      	ldr	r2, [pc, #16]	(8007fe8 <DMA_ClearFlag+0x20>)
 8007fd8:	9b00      	ldr	r3, [sp, #0]
 8007fda:	6053      	str	r3, [r2, #4]
 8007fdc:	e002      	b.n	8007fe4 <DMA_ClearFlag+0x1c>
 8007fde:	4a03      	ldr	r2, [pc, #12]	(8007fec <DMA_ClearFlag+0x24>)
 8007fe0:	9b00      	ldr	r3, [sp, #0]
 8007fe2:	6053      	str	r3, [r2, #4]
 8007fe4:	b001      	add	sp, #4
 8007fe6:	4770      	bx	lr
 8007fe8:	40020400 	.word	0x40020400
 8007fec:	40020000 	.word	0x40020000

08007ff0 <DMA_GetITStatus>:
 8007ff0:	b083      	sub	sp, #12
 8007ff2:	9000      	str	r0, [sp, #0]
 8007ff4:	f04f 0300 	mov.w	r3, #0	; 0x0
 8007ff8:	9301      	str	r3, [sp, #4]
 8007ffa:	f04f 0300 	mov.w	r3, #0	; 0x0
 8007ffe:	9302      	str	r3, [sp, #8]
 8008000:	9b00      	ldr	r3, [sp, #0]
 8008002:	f003 5380 	and.w	r3, r3, #268435456	; 0x10000000
 8008006:	2b00      	cmp	r3, #0
 8008008:	d003      	beq.n	8008012 <DMA_GetITStatus+0x22>
 800800a:	4b0c      	ldr	r3, [pc, #48]	(800803c <DMA_GetITStatus+0x4c>)
 800800c:	681b      	ldr	r3, [r3, #0]
 800800e:	9302      	str	r3, [sp, #8]
 8008010:	e002      	b.n	8008018 <DMA_GetITStatus+0x28>
 8008012:	4b0b      	ldr	r3, [pc, #44]	(8008040 <DMA_GetITStatus+0x50>)
 8008014:	681b      	ldr	r3, [r3, #0]
 8008016:	9302      	str	r3, [sp, #8]
 8008018:	9b02      	ldr	r3, [sp, #8]
 800801a:	9a00      	ldr	r2, [sp, #0]
 800801c:	ea03 0302 	and.w	r3, r3, r2
 8008020:	2b00      	cmp	r3, #0
 8008022:	d003      	beq.n	800802c <DMA_GetITStatus+0x3c>
 8008024:	f04f 0301 	mov.w	r3, #1	; 0x1
 8008028:	9301      	str	r3, [sp, #4]
 800802a:	e002      	b.n	8008032 <DMA_GetITStatus+0x42>
 800802c:	f04f 0300 	mov.w	r3, #0	; 0x0
 8008030:	9301      	str	r3, [sp, #4]
 8008032:	9b01      	ldr	r3, [sp, #4]
 8008034:	4618      	mov	r0, r3
 8008036:	b003      	add	sp, #12
 8008038:	4770      	bx	lr
 800803a:	46c0      	nop			(mov r8, r8)
 800803c:	40020400 	.word	0x40020400
 8008040:	40020000 	.word	0x40020000

08008044 <DMA_ClearITPendingBit>:
 8008044:	b081      	sub	sp, #4
 8008046:	9000      	str	r0, [sp, #0]
 8008048:	9b00      	ldr	r3, [sp, #0]
 800804a:	f003 5380 	and.w	r3, r3, #268435456	; 0x10000000
 800804e:	2b00      	cmp	r3, #0
 8008050:	d003      	beq.n	800805a <DMA_ClearITPendingBit+0x16>
 8008052:	4a04      	ldr	r2, [pc, #16]	(8008064 <DMA_ClearITPendingBit+0x20>)
 8008054:	9b00      	ldr	r3, [sp, #0]
 8008056:	6053      	str	r3, [r2, #4]
 8008058:	e002      	b.n	8008060 <DMA_ClearITPendingBit+0x1c>
 800805a:	4a03      	ldr	r2, [pc, #12]	(8008068 <DMA_ClearITPendingBit+0x24>)
 800805c:	9b00      	ldr	r3, [sp, #0]
 800805e:	6053      	str	r3, [r2, #4]
 8008060:	b001      	add	sp, #4
 8008062:	4770      	bx	lr
 8008064:	40020400 	.word	0x40020400
 8008068:	40020000 	.word	0x40020000

0800806c <FLASH_SetLatency>:
 800806c:	b082      	sub	sp, #8
 800806e:	9000      	str	r0, [sp, #0]
 8008070:	f04f 0300 	mov.w	r3, #0	; 0x0
 8008074:	9301      	str	r3, [sp, #4]
 8008076:	4b08      	ldr	r3, [pc, #32]	(8008098 <FLASH_SetLatency+0x2c>)
 8008078:	681b      	ldr	r3, [r3, #0]
 800807a:	9301      	str	r3, [sp, #4]
 800807c:	9b01      	ldr	r3, [sp, #4]
 800807e:	f003 0338 	and.w	r3, r3, #56	; 0x38
 8008082:	9301      	str	r3, [sp, #4]
 8008084:	9a01      	ldr	r2, [sp, #4]
 8008086:	9b00      	ldr	r3, [sp, #0]
 8008088:	ea42 0303 	orr.w	r3, r2, r3
 800808c:	9301      	str	r3, [sp, #4]
 800808e:	4a02      	ldr	r2, [pc, #8]	(8008098 <FLASH_SetLatency+0x2c>)
 8008090:	9b01      	ldr	r3, [sp, #4]
 8008092:	6013      	str	r3, [r2, #0]
 8008094:	b002      	add	sp, #8
 8008096:	4770      	bx	lr
 8008098:	40022000 	.word	0x40022000

0800809c <FLASH_HalfCycleAccessCmd>:
 800809c:	b081      	sub	sp, #4
 800809e:	9000      	str	r0, [sp, #0]
 80080a0:	4a07      	ldr	r2, [pc, #28]	(80080c0 <FLASH_HalfCycleAccessCmd+0x24>)
 80080a2:	4b07      	ldr	r3, [pc, #28]	(80080c0 <FLASH_HalfCycleAccessCmd+0x24>)
 80080a4:	681b      	ldr	r3, [r3, #0]
 80080a6:	f023 0308 	bic.w	r3, r3, #8	; 0x8
 80080aa:	6013      	str	r3, [r2, #0]
 80080ac:	4904      	ldr	r1, [pc, #16]	(80080c0 <FLASH_HalfCycleAccessCmd+0x24>)
 80080ae:	4b04      	ldr	r3, [pc, #16]	(80080c0 <FLASH_HalfCycleAccessCmd+0x24>)
 80080b0:	681a      	ldr	r2, [r3, #0]
 80080b2:	9b00      	ldr	r3, [sp, #0]
 80080b4:	ea42 0303 	orr.w	r3, r2, r3
 80080b8:	600b      	str	r3, [r1, #0]
 80080ba:	b001      	add	sp, #4
 80080bc:	4770      	bx	lr
 80080be:	46c0      	nop			(mov r8, r8)
 80080c0:	40022000 	.word	0x40022000

080080c4 <FLASH_PrefetchBufferCmd>:
 80080c4:	b081      	sub	sp, #4
 80080c6:	9000      	str	r0, [sp, #0]
 80080c8:	4a07      	ldr	r2, [pc, #28]	(80080e8 <FLASH_PrefetchBufferCmd+0x24>)
 80080ca:	4b07      	ldr	r3, [pc, #28]	(80080e8 <FLASH_PrefetchBufferCmd+0x24>)
 80080cc:	681b      	ldr	r3, [r3, #0]
 80080ce:	f023 0310 	bic.w	r3, r3, #16	; 0x10
 80080d2:	6013      	str	r3, [r2, #0]
 80080d4:	4904      	ldr	r1, [pc, #16]	(80080e8 <FLASH_PrefetchBufferCmd+0x24>)
 80080d6:	4b04      	ldr	r3, [pc, #16]	(80080e8 <FLASH_PrefetchBufferCmd+0x24>)
 80080d8:	681a      	ldr	r2, [r3, #0]
 80080da:	9b00      	ldr	r3, [sp, #0]
 80080dc:	ea42 0303 	orr.w	r3, r2, r3
 80080e0:	600b      	str	r3, [r1, #0]
 80080e2:	b001      	add	sp, #4
 80080e4:	4770      	bx	lr
 80080e6:	46c0      	nop			(mov r8, r8)
 80080e8:	40022000 	.word	0x40022000

080080ec <FLASH_Unlock>:
 80080ec:	4a03      	ldr	r2, [pc, #12]	(80080fc <FLASH_Unlock+0x10>)
 80080ee:	4b04      	ldr	r3, [pc, #16]	(8008100 <FLASH_Unlock+0x14>)
 80080f0:	6053      	str	r3, [r2, #4]
 80080f2:	4a02      	ldr	r2, [pc, #8]	(80080fc <FLASH_Unlock+0x10>)
 80080f4:	4b03      	ldr	r3, [pc, #12]	(8008104 <FLASH_Unlock+0x18>)
 80080f6:	6053      	str	r3, [r2, #4]
 80080f8:	4770      	bx	lr
 80080fa:	46c0      	nop			(mov r8, r8)
 80080fc:	40022000 	.word	0x40022000
 8008100:	45670123 	.word	0x45670123
 8008104:	cdef89ab 	.word	0xcdef89ab

08008108 <FLASH_Lock>:
 8008108:	4a03      	ldr	r2, [pc, #12]	(8008118 <FLASH_Lock+0x10>)
 800810a:	4b03      	ldr	r3, [pc, #12]	(8008118 <FLASH_Lock+0x10>)
 800810c:	691b      	ldr	r3, [r3, #16]
 800810e:	f043 0380 	orr.w	r3, r3, #128	; 0x80
 8008112:	6113      	str	r3, [r2, #16]
 8008114:	4770      	bx	lr
 8008116:	46c0      	nop			(mov r8, r8)
 8008118:	40022000 	.word	0x40022000

0800811c <FLASH_ErasePage>:
 800811c:	b500      	push	{lr}
 800811e:	b082      	sub	sp, #8
 8008120:	9000      	str	r0, [sp, #0]
 8008122:	f04f 0304 	mov.w	r3, #4	; 0x4
 8008126:	9301      	str	r3, [sp, #4]
 8008128:	f640 70ff 	movw	r0, #4095	; 0xfff
 800812c:	f000 fbaa 	bl	8008884 <FLASH_WaitForLastOperation>
 8008130:	4603      	mov	r3, r0
 8008132:	9301      	str	r3, [sp, #4]
 8008134:	9b01      	ldr	r3, [sp, #4]
 8008136:	2b04      	cmp	r3, #4
 8008138:	d11f      	bne.n	800817a <FLASH_ErasePage+0x5e>
 800813a:	4a12      	ldr	r2, [pc, #72]	(8008184 <FLASH_ErasePage+0x68>)
 800813c:	4b11      	ldr	r3, [pc, #68]	(8008184 <FLASH_ErasePage+0x68>)
 800813e:	691b      	ldr	r3, [r3, #16]
 8008140:	f043 0302 	orr.w	r3, r3, #2	; 0x2
 8008144:	6113      	str	r3, [r2, #16]
 8008146:	4a0f      	ldr	r2, [pc, #60]	(8008184 <FLASH_ErasePage+0x68>)
 8008148:	9b00      	ldr	r3, [sp, #0]
 800814a:	6153      	str	r3, [r2, #20]
 800814c:	4a0d      	ldr	r2, [pc, #52]	(8008184 <FLASH_ErasePage+0x68>)
 800814e:	4b0d      	ldr	r3, [pc, #52]	(8008184 <FLASH_ErasePage+0x68>)
 8008150:	691b      	ldr	r3, [r3, #16]
 8008152:	f043 0340 	orr.w	r3, r3, #64	; 0x40
 8008156:	6113      	str	r3, [r2, #16]
 8008158:	f640 70ff 	movw	r0, #4095	; 0xfff
 800815c:	f000 fb92 	bl	8008884 <FLASH_WaitForLastOperation>
 8008160:	4603      	mov	r3, r0
 8008162:	9301      	str	r3, [sp, #4]
 8008164:	9b01      	ldr	r3, [sp, #4]
 8008166:	2b01      	cmp	r3, #1
 8008168:	d007      	beq.n	800817a <FLASH_ErasePage+0x5e>
 800816a:	4906      	ldr	r1, [pc, #24]	(8008184 <FLASH_ErasePage+0x68>)
 800816c:	4b05      	ldr	r3, [pc, #20]	(8008184 <FLASH_ErasePage+0x68>)
 800816e:	691a      	ldr	r2, [r3, #16]
 8008170:	f641 73fd 	movw	r3, #8189	; 0x1ffd
 8008174:	ea02 0303 	and.w	r3, r2, r3
 8008178:	610b      	str	r3, [r1, #16]
 800817a:	9b01      	ldr	r3, [sp, #4]
 800817c:	4618      	mov	r0, r3
 800817e:	b002      	add	sp, #8
 8008180:	bd00      	pop	{pc}
 8008182:	46c0      	nop			(mov r8, r8)
 8008184:	40022000 	.word	0x40022000

08008188 <FLASH_EraseAllPages>:
 8008188:	b500      	push	{lr}
 800818a:	b081      	sub	sp, #4
 800818c:	f04f 0304 	mov.w	r3, #4	; 0x4
 8008190:	9300      	str	r3, [sp, #0]
 8008192:	f640 70ff 	movw	r0, #4095	; 0xfff
 8008196:	f000 fb75 	bl	8008884 <FLASH_WaitForLastOperation>
 800819a:	4603      	mov	r3, r0
 800819c:	9300      	str	r3, [sp, #0]
 800819e:	9b00      	ldr	r3, [sp, #0]
 80081a0:	2b04      	cmp	r3, #4
 80081a2:	d11c      	bne.n	80081de <FLASH_EraseAllPages+0x56>
 80081a4:	4a10      	ldr	r2, [pc, #64]	(80081e8 <FLASH_EraseAllPages+0x60>)
 80081a6:	4b10      	ldr	r3, [pc, #64]	(80081e8 <FLASH_EraseAllPages+0x60>)
 80081a8:	691b      	ldr	r3, [r3, #16]
 80081aa:	f043 0304 	orr.w	r3, r3, #4	; 0x4
 80081ae:	6113      	str	r3, [r2, #16]
 80081b0:	4a0d      	ldr	r2, [pc, #52]	(80081e8 <FLASH_EraseAllPages+0x60>)
 80081b2:	4b0d      	ldr	r3, [pc, #52]	(80081e8 <FLASH_EraseAllPages+0x60>)
 80081b4:	691b      	ldr	r3, [r3, #16]
 80081b6:	f043 0340 	orr.w	r3, r3, #64	; 0x40
 80081ba:	6113      	str	r3, [r2, #16]
 80081bc:	f640 70ff 	movw	r0, #4095	; 0xfff
 80081c0:	f000 fb60 	bl	8008884 <FLASH_WaitForLastOperation>
 80081c4:	4603      	mov	r3, r0
 80081c6:	9300      	str	r3, [sp, #0]
 80081c8:	9b00      	ldr	r3, [sp, #0]
 80081ca:	2b01      	cmp	r3, #1
 80081cc:	d007      	beq.n	80081de <FLASH_EraseAllPages+0x56>
 80081ce:	4906      	ldr	r1, [pc, #24]	(80081e8 <FLASH_EraseAllPages+0x60>)
 80081d0:	4b05      	ldr	r3, [pc, #20]	(80081e8 <FLASH_EraseAllPages+0x60>)
 80081d2:	691a      	ldr	r2, [r3, #16]
 80081d4:	f641 73fb 	movw	r3, #8187	; 0x1ffb
 80081d8:	ea02 0303 	and.w	r3, r2, r3
 80081dc:	610b      	str	r3, [r1, #16]
 80081de:	9b00      	ldr	r3, [sp, #0]
 80081e0:	4618      	mov	r0, r3
 80081e2:	b001      	add	sp, #4
 80081e4:	bd00      	pop	{pc}
 80081e6:	46c0      	nop			(mov r8, r8)
 80081e8:	40022000 	.word	0x40022000

080081ec <FLASH_EraseOptionBytes>:
 80081ec:	b500      	push	{lr}
 80081ee:	b081      	sub	sp, #4
 80081f0:	f04f 0304 	mov.w	r3, #4	; 0x4
 80081f4:	9300      	str	r3, [sp, #0]
 80081f6:	f640 70ff 	movw	r0, #4095	; 0xfff
 80081fa:	f000 fb43 	bl	8008884 <FLASH_WaitForLastOperation>
 80081fe:	4603      	mov	r3, r0
 8008200:	9300      	str	r3, [sp, #0]
 8008202:	9b00      	ldr	r3, [sp, #0]
 8008204:	2b04      	cmp	r3, #4
 8008206:	d149      	bne.n	800829c <FLASH_EraseOptionBytes+0xb0>
 8008208:	4a26      	ldr	r2, [pc, #152]	(80082a4 <FLASH_EraseOptionBytes+0xb8>)
 800820a:	4b27      	ldr	r3, [pc, #156]	(80082a8 <FLASH_EraseOptionBytes+0xbc>)
 800820c:	6093      	str	r3, [r2, #8]
 800820e:	4a25      	ldr	r2, [pc, #148]	(80082a4 <FLASH_EraseOptionBytes+0xb8>)
 8008210:	4b26      	ldr	r3, [pc, #152]	(80082ac <FLASH_EraseOptionBytes+0xc0>)
 8008212:	6093      	str	r3, [r2, #8]
 8008214:	4a23      	ldr	r2, [pc, #140]	(80082a4 <FLASH_EraseOptionBytes+0xb8>)
 8008216:	4b23      	ldr	r3, [pc, #140]	(80082a4 <FLASH_EraseOptionBytes+0xb8>)
 8008218:	691b      	ldr	r3, [r3, #16]
 800821a:	f043 0320 	orr.w	r3, r3, #32	; 0x20
 800821e:	6113      	str	r3, [r2, #16]
 8008220:	4a20      	ldr	r2, [pc, #128]	(80082a4 <FLASH_EraseOptionBytes+0xb8>)
 8008222:	4b20      	ldr	r3, [pc, #128]	(80082a4 <FLASH_EraseOptionBytes+0xb8>)
 8008224:	691b      	ldr	r3, [r3, #16]
 8008226:	f043 0340 	orr.w	r3, r3, #64	; 0x40
 800822a:	6113      	str	r3, [r2, #16]
 800822c:	f640 70ff 	movw	r0, #4095	; 0xfff
 8008230:	f000 fb28 	bl	8008884 <FLASH_WaitForLastOperation>
 8008234:	4603      	mov	r3, r0
 8008236:	9300      	str	r3, [sp, #0]
 8008238:	9b00      	ldr	r3, [sp, #0]
 800823a:	2b04      	cmp	r3, #4
 800823c:	d123      	bne.n	8008286 <FLASH_EraseOptionBytes+0x9a>
 800823e:	4919      	ldr	r1, [pc, #100]	(80082a4 <FLASH_EraseOptionBytes+0xb8>)
 8008240:	4b18      	ldr	r3, [pc, #96]	(80082a4 <FLASH_EraseOptionBytes+0xb8>)
 8008242:	691a      	ldr	r2, [r3, #16]
 8008244:	f641 73df 	movw	r3, #8159	; 0x1fdf
 8008248:	ea02 0303 	and.w	r3, r2, r3
 800824c:	610b      	str	r3, [r1, #16]
 800824e:	4a15      	ldr	r2, [pc, #84]	(80082a4 <FLASH_EraseOptionBytes+0xb8>)
 8008250:	4b14      	ldr	r3, [pc, #80]	(80082a4 <FLASH_EraseOptionBytes+0xb8>)
 8008252:	691b      	ldr	r3, [r3, #16]
 8008254:	f043 0310 	orr.w	r3, r3, #16	; 0x10
 8008258:	6113      	str	r3, [r2, #16]
 800825a:	4a15      	ldr	r2, [pc, #84]	(80082b0 <FLASH_EraseOptionBytes+0xc4>)
 800825c:	f04f 03a5 	mov.w	r3, #165	; 0xa5
 8008260:	8013      	strh	r3, [r2, #0]
 8008262:	f04f 000f 	mov.w	r0, #15	; 0xf
 8008266:	f000 fb0d 	bl	8008884 <FLASH_WaitForLastOperation>
 800826a:	4603      	mov	r3, r0
 800826c:	9300      	str	r3, [sp, #0]
 800826e:	9b00      	ldr	r3, [sp, #0]
 8008270:	2b01      	cmp	r3, #1
 8008272:	d013      	beq.n	800829c <FLASH_EraseOptionBytes+0xb0>
 8008274:	490b      	ldr	r1, [pc, #44]	(80082a4 <FLASH_EraseOptionBytes+0xb8>)
 8008276:	4b0b      	ldr	r3, [pc, #44]	(80082a4 <FLASH_EraseOptionBytes+0xb8>)
 8008278:	691a      	ldr	r2, [r3, #16]
 800827a:	f641 73ef 	movw	r3, #8175	; 0x1fef
 800827e:	ea02 0303 	and.w	r3, r2, r3
 8008282:	610b      	str	r3, [r1, #16]
 8008284:	e00a      	b.n	800829c <FLASH_EraseOptionBytes+0xb0>
 8008286:	9b00      	ldr	r3, [sp, #0]
 8008288:	2b01      	cmp	r3, #1
 800828a:	d007      	beq.n	800829c <FLASH_EraseOptionBytes+0xb0>
 800828c:	4905      	ldr	r1, [pc, #20]	(80082a4 <FLASH_EraseOptionBytes+0xb8>)
 800828e:	4b05      	ldr	r3, [pc, #20]	(80082a4 <FLASH_EraseOptionBytes+0xb8>)
 8008290:	691a      	ldr	r2, [r3, #16]
 8008292:	f641 73ef 	movw	r3, #8175	; 0x1fef
 8008296:	ea02 0303 	and.w	r3, r2, r3
 800829a:	610b      	str	r3, [r1, #16]
 800829c:	9b00      	ldr	r3, [sp, #0]
 800829e:	4618      	mov	r0, r3
 80082a0:	b001      	add	sp, #4
 80082a2:	bd00      	pop	{pc}
 80082a4:	40022000 	.word	0x40022000
 80082a8:	45670123 	.word	0x45670123
 80082ac:	cdef89ab 	.word	0xcdef89ab
 80082b0:	1ffff800 	.word	0x1ffff800

080082b4 <FLASH_ProgramWord>:
 80082b4:	b500      	push	{lr}
 80082b6:	b083      	sub	sp, #12
 80082b8:	9001      	str	r0, [sp, #4]
 80082ba:	9100      	str	r1, [sp, #0]
 80082bc:	f04f 0304 	mov.w	r3, #4	; 0x4
 80082c0:	9302      	str	r3, [sp, #8]
 80082c2:	f04f 000f 	mov.w	r0, #15	; 0xf
 80082c6:	f000 fadd 	bl	8008884 <FLASH_WaitForLastOperation>
 80082ca:	4603      	mov	r3, r0
 80082cc:	9302      	str	r3, [sp, #8]
 80082ce:	9b02      	ldr	r3, [sp, #8]
 80082d0:	2b04      	cmp	r3, #4
 80082d2:	d138      	bne.n	8008346 <FLASH_ProgramWord+0x92>
 80082d4:	4a1e      	ldr	r2, [pc, #120]	(8008350 <FLASH_ProgramWord+0x9c>)
 80082d6:	4b1e      	ldr	r3, [pc, #120]	(8008350 <FLASH_ProgramWord+0x9c>)
 80082d8:	691b      	ldr	r3, [r3, #16]
 80082da:	f043 0301 	orr.w	r3, r3, #1	; 0x1
 80082de:	6113      	str	r3, [r2, #16]
 80082e0:	9a01      	ldr	r2, [sp, #4]
 80082e2:	9b00      	ldr	r3, [sp, #0]
 80082e4:	b29b      	uxth	r3, r3
 80082e6:	8013      	strh	r3, [r2, #0]
 80082e8:	f04f 000f 	mov.w	r0, #15	; 0xf
 80082ec:	f000 faca 	bl	8008884 <FLASH_WaitForLastOperation>
 80082f0:	4603      	mov	r3, r0
 80082f2:	9302      	str	r3, [sp, #8]
 80082f4:	9b02      	ldr	r3, [sp, #8]
 80082f6:	2b04      	cmp	r3, #4
 80082f8:	d11a      	bne.n	8008330 <FLASH_ProgramWord+0x7c>
 80082fa:	9b01      	ldr	r3, [sp, #4]
 80082fc:	f103 0302 	add.w	r3, r3, #2	; 0x2
 8008300:	461a      	mov	r2, r3
 8008302:	9b00      	ldr	r3, [sp, #0]
 8008304:	ea4f 4313 	mov.w	r3, r3, lsr #16
 8008308:	b29b      	uxth	r3, r3
 800830a:	8013      	strh	r3, [r2, #0]
 800830c:	f04f 000f 	mov.w	r0, #15	; 0xf
 8008310:	f000 fab8 	bl	8008884 <FLASH_WaitForLastOperation>
 8008314:	4603      	mov	r3, r0
 8008316:	9302      	str	r3, [sp, #8]
 8008318:	9b02      	ldr	r3, [sp, #8]
 800831a:	2b01      	cmp	r3, #1
 800831c:	d013      	beq.n	8008346 <FLASH_ProgramWord+0x92>
 800831e:	490c      	ldr	r1, [pc, #48]	(8008350 <FLASH_ProgramWord+0x9c>)
 8008320:	4b0b      	ldr	r3, [pc, #44]	(8008350 <FLASH_ProgramWord+0x9c>)
 8008322:	691a      	ldr	r2, [r3, #16]
 8008324:	f641 73fe 	movw	r3, #8190	; 0x1ffe
 8008328:	ea02 0303 	and.w	r3, r2, r3
 800832c:	610b      	str	r3, [r1, #16]
 800832e:	e00a      	b.n	8008346 <FLASH_ProgramWord+0x92>
 8008330:	9b02      	ldr	r3, [sp, #8]
 8008332:	2b01      	cmp	r3, #1
 8008334:	d007      	beq.n	8008346 <FLASH_ProgramWord+0x92>
 8008336:	4906      	ldr	r1, [pc, #24]	(8008350 <FLASH_ProgramWord+0x9c>)
 8008338:	4b05      	ldr	r3, [pc, #20]	(8008350 <FLASH_ProgramWord+0x9c>)
 800833a:	691a      	ldr	r2, [r3, #16]
 800833c:	f641 73fe 	movw	r3, #8190	; 0x1ffe
 8008340:	ea02 0303 	and.w	r3, r2, r3
 8008344:	610b      	str	r3, [r1, #16]
 8008346:	9b02      	ldr	r3, [sp, #8]
 8008348:	4618      	mov	r0, r3
 800834a:	b003      	add	sp, #12
 800834c:	bd00      	pop	{pc}
 800834e:	46c0      	nop			(mov r8, r8)
 8008350:	40022000 	.word	0x40022000

08008354 <FLASH_ProgramHalfWord>:
 8008354:	b500      	push	{lr}
 8008356:	b083      	sub	sp, #12
 8008358:	9001      	str	r0, [sp, #4]
 800835a:	460b      	mov	r3, r1
 800835c:	f8ad 3000 	strh.w	r3, [sp]
 8008360:	f04f 0304 	mov.w	r3, #4	; 0x4
 8008364:	9302      	str	r3, [sp, #8]
 8008366:	f04f 000f 	mov.w	r0, #15	; 0xf
 800836a:	f000 fa8b 	bl	8008884 <FLASH_WaitForLastOperation>
 800836e:	4603      	mov	r3, r0
 8008370:	9302      	str	r3, [sp, #8]
 8008372:	9b02      	ldr	r3, [sp, #8]
 8008374:	2b04      	cmp	r3, #4
 8008376:	d11a      	bne.n	80083ae <FLASH_ProgramHalfWord+0x5a>
 8008378:	4a0f      	ldr	r2, [pc, #60]	(80083b8 <FLASH_ProgramHalfWord+0x64>)
 800837a:	4b0f      	ldr	r3, [pc, #60]	(80083b8 <FLASH_ProgramHalfWord+0x64>)
 800837c:	691b      	ldr	r3, [r3, #16]
 800837e:	f043 0301 	orr.w	r3, r3, #1	; 0x1
 8008382:	6113      	str	r3, [r2, #16]
 8008384:	9a01      	ldr	r2, [sp, #4]
 8008386:	f8bd 3000 	ldrh.w	r3, [sp]
 800838a:	8013      	strh	r3, [r2, #0]
 800838c:	f04f 000f 	mov.w	r0, #15	; 0xf
 8008390:	f000 fa78 	bl	8008884 <FLASH_WaitForLastOperation>
 8008394:	4603      	mov	r3, r0
 8008396:	9302      	str	r3, [sp, #8]
 8008398:	9b02      	ldr	r3, [sp, #8]
 800839a:	2b01      	cmp	r3, #1
 800839c:	d007      	beq.n	80083ae <FLASH_ProgramHalfWord+0x5a>
 800839e:	4906      	ldr	r1, [pc, #24]	(80083b8 <FLASH_ProgramHalfWord+0x64>)
 80083a0:	4b05      	ldr	r3, [pc, #20]	(80083b8 <FLASH_ProgramHalfWord+0x64>)
 80083a2:	691a      	ldr	r2, [r3, #16]
 80083a4:	f641 73fe 	movw	r3, #8190	; 0x1ffe
 80083a8:	ea02 0303 	and.w	r3, r2, r3
 80083ac:	610b      	str	r3, [r1, #16]
 80083ae:	9b02      	ldr	r3, [sp, #8]
 80083b0:	4618      	mov	r0, r3
 80083b2:	b003      	add	sp, #12
 80083b4:	bd00      	pop	{pc}
 80083b6:	46c0      	nop			(mov r8, r8)
 80083b8:	40022000 	.word	0x40022000

080083bc <FLASH_ProgramOptionByteData>:
 80083bc:	b500      	push	{lr}
 80083be:	b083      	sub	sp, #12
 80083c0:	9001      	str	r0, [sp, #4]
 80083c2:	460b      	mov	r3, r1
 80083c4:	f88d 3000 	strb.w	r3, [sp]
 80083c8:	f04f 0304 	mov.w	r3, #4	; 0x4
 80083cc:	9302      	str	r3, [sp, #8]
 80083ce:	f04f 000f 	mov.w	r0, #15	; 0xf
 80083d2:	f000 fa57 	bl	8008884 <FLASH_WaitForLastOperation>
 80083d6:	4603      	mov	r3, r0
 80083d8:	9302      	str	r3, [sp, #8]
 80083da:	9b02      	ldr	r3, [sp, #8]
 80083dc:	2b04      	cmp	r3, #4
 80083de:	d120      	bne.n	8008422 <FLASH_ProgramOptionByteData+0x66>
 80083e0:	4a12      	ldr	r2, [pc, #72]	(800842c <FLASH_ProgramOptionByteData+0x70>)
 80083e2:	4b13      	ldr	r3, [pc, #76]	(8008430 <FLASH_ProgramOptionByteData+0x74>)
 80083e4:	6093      	str	r3, [r2, #8]
 80083e6:	4a11      	ldr	r2, [pc, #68]	(800842c <FLASH_ProgramOptionByteData+0x70>)
 80083e8:	4b12      	ldr	r3, [pc, #72]	(8008434 <FLASH_ProgramOptionByteData+0x78>)
 80083ea:	6093      	str	r3, [r2, #8]
 80083ec:	4a0f      	ldr	r2, [pc, #60]	(800842c <FLASH_ProgramOptionByteData+0x70>)
 80083ee:	4b0f      	ldr	r3, [pc, #60]	(800842c <FLASH_ProgramOptionByteData+0x70>)
 80083f0:	691b      	ldr	r3, [r3, #16]
 80083f2:	f043 0310 	orr.w	r3, r3, #16	; 0x10
 80083f6:	6113      	str	r3, [r2, #16]
 80083f8:	9a01      	ldr	r2, [sp, #4]
 80083fa:	f89d 3000 	ldrb.w	r3, [sp]
 80083fe:	8013      	strh	r3, [r2, #0]
 8008400:	f04f 000f 	mov.w	r0, #15	; 0xf
 8008404:	f000 fa3e 	bl	8008884 <FLASH_WaitForLastOperation>
 8008408:	4603      	mov	r3, r0
 800840a:	9302      	str	r3, [sp, #8]
 800840c:	9b02      	ldr	r3, [sp, #8]
 800840e:	2b01      	cmp	r3, #1
 8008410:	d007      	beq.n	8008422 <FLASH_ProgramOptionByteData+0x66>
 8008412:	4906      	ldr	r1, [pc, #24]	(800842c <FLASH_ProgramOptionByteData+0x70>)
 8008414:	4b05      	ldr	r3, [pc, #20]	(800842c <FLASH_ProgramOptionByteData+0x70>)
 8008416:	691a      	ldr	r2, [r3, #16]
 8008418:	f641 73ef 	movw	r3, #8175	; 0x1fef
 800841c:	ea02 0303 	and.w	r3, r2, r3
 8008420:	610b      	str	r3, [r1, #16]
 8008422:	9b02      	ldr	r3, [sp, #8]
 8008424:	4618      	mov	r0, r3
 8008426:	b003      	add	sp, #12
 8008428:	bd00      	pop	{pc}
 800842a:	46c0      	nop			(mov r8, r8)
 800842c:	40022000 	.word	0x40022000
 8008430:	45670123 	.word	0x45670123
 8008434:	cdef89ab 	.word	0xcdef89ab

08008438 <FLASH_EnableWriteProtection>:
 8008438:	b500      	push	{lr}
 800843a:	b084      	sub	sp, #16
 800843c:	9000      	str	r0, [sp, #0]
 800843e:	f04f 0304 	mov.w	r3, #4	; 0x4
 8008442:	9303      	str	r3, [sp, #12]
 8008444:	f64f 73ff 	movw	r3, #65535	; 0xffff
 8008448:	f8ad 3004 	strh.w	r3, [sp, #4]
 800844c:	f64f 73ff 	movw	r3, #65535	; 0xffff
 8008450:	f8ad 3006 	strh.w	r3, [sp, #6]
 8008454:	f64f 73ff 	movw	r3, #65535	; 0xffff
 8008458:	f8ad 3008 	strh.w	r3, [sp, #8]
 800845c:	f64f 73ff 	movw	r3, #65535	; 0xffff
 8008460:	f8ad 300a 	strh.w	r3, [sp, #10]
 8008464:	9b00      	ldr	r3, [sp, #0]
 8008466:	ea6f 0303 	mvn.w	r3, r3
 800846a:	9300      	str	r3, [sp, #0]
 800846c:	9b00      	ldr	r3, [sp, #0]
 800846e:	b29b      	uxth	r3, r3
 8008470:	f003 03ff 	and.w	r3, r3, #255	; 0xff
 8008474:	f8ad 3004 	strh.w	r3, [sp, #4]
 8008478:	9b00      	ldr	r3, [sp, #0]
 800847a:	f403 437f 	and.w	r3, r3, #65280	; 0xff00
 800847e:	ea4f 2313 	mov.w	r3, r3, lsr #8
 8008482:	f8ad 3006 	strh.w	r3, [sp, #6]
 8008486:	9b00      	ldr	r3, [sp, #0]
 8008488:	f403 037f 	and.w	r3, r3, #16711680	; 0xff0000
 800848c:	ea4f 4313 	mov.w	r3, r3, lsr #16
 8008490:	f8ad 3008 	strh.w	r3, [sp, #8]
 8008494:	9b00      	ldr	r3, [sp, #0]
 8008496:	ea4f 6313 	mov.w	r3, r3, lsr #24
 800849a:	f8ad 300a 	strh.w	r3, [sp, #10]
 800849e:	f04f 000f 	mov.w	r0, #15	; 0xf
 80084a2:	f000 f9ef 	bl	8008884 <FLASH_WaitForLastOperation>
 80084a6:	4603      	mov	r3, r0
 80084a8:	9303      	str	r3, [sp, #12]
 80084aa:	9b03      	ldr	r3, [sp, #12]
 80084ac:	2b04      	cmp	r3, #4
 80084ae:	d157      	bne.n	8008560 <FLASH_EnableWriteProtection+0x128>
 80084b0:	4a2d      	ldr	r2, [pc, #180]	(8008568 <FLASH_EnableWriteProtection+0x130>)
 80084b2:	4b2e      	ldr	r3, [pc, #184]	(800856c <FLASH_EnableWriteProtection+0x134>)
 80084b4:	6093      	str	r3, [r2, #8]
 80084b6:	4a2c      	ldr	r2, [pc, #176]	(8008568 <FLASH_EnableWriteProtection+0x130>)
 80084b8:	4b2d      	ldr	r3, [pc, #180]	(8008570 <FLASH_EnableWriteProtection+0x138>)
 80084ba:	6093      	str	r3, [r2, #8]
 80084bc:	4a2a      	ldr	r2, [pc, #168]	(8008568 <FLASH_EnableWriteProtection+0x130>)
 80084be:	4b2a      	ldr	r3, [pc, #168]	(8008568 <FLASH_EnableWriteProtection+0x130>)
 80084c0:	691b      	ldr	r3, [r3, #16]
 80084c2:	f043 0310 	orr.w	r3, r3, #16	; 0x10
 80084c6:	6113      	str	r3, [r2, #16]
 80084c8:	f8bd 3004 	ldrh.w	r3, [sp, #4]
 80084cc:	2bff      	cmp	r3, #255
 80084ce:	d009      	beq.n	80084e4 <FLASH_EnableWriteProtection+0xac>
 80084d0:	4b28      	ldr	r3, [pc, #160]	(8008574 <FLASH_EnableWriteProtection+0x13c>)
 80084d2:	f8bd 2004 	ldrh.w	r2, [sp, #4]
 80084d6:	811a      	strh	r2, [r3, #8]
 80084d8:	f04f 000f 	mov.w	r0, #15	; 0xf
 80084dc:	f000 f9d2 	bl	8008884 <FLASH_WaitForLastOperation>
 80084e0:	4603      	mov	r3, r0
 80084e2:	9303      	str	r3, [sp, #12]
 80084e4:	9b03      	ldr	r3, [sp, #12]
 80084e6:	2b04      	cmp	r3, #4
 80084e8:	d10d      	bne.n	8008506 <FLASH_EnableWriteProtection+0xce>
 80084ea:	f8bd 3006 	ldrh.w	r3, [sp, #6]
 80084ee:	2bff      	cmp	r3, #255
 80084f0:	d009      	beq.n	8008506 <FLASH_EnableWriteProtection+0xce>
 80084f2:	4b20      	ldr	r3, [pc, #128]	(8008574 <FLASH_EnableWriteProtection+0x13c>)
 80084f4:	f8bd 2006 	ldrh.w	r2, [sp, #6]
 80084f8:	815a      	strh	r2, [r3, #10]
 80084fa:	f04f 000f 	mov.w	r0, #15	; 0xf
 80084fe:	f000 f9c1 	bl	8008884 <FLASH_WaitForLastOperation>
 8008502:	4603      	mov	r3, r0
 8008504:	9303      	str	r3, [sp, #12]
 8008506:	9b03      	ldr	r3, [sp, #12]
 8008508:	2b04      	cmp	r3, #4
 800850a:	d10d      	bne.n	8008528 <FLASH_EnableWriteProtection+0xf0>
 800850c:	f8bd 3008 	ldrh.w	r3, [sp, #8]
 8008510:	2bff      	cmp	r3, #255
 8008512:	d009      	beq.n	8008528 <FLASH_EnableWriteProtection+0xf0>
 8008514:	4b17      	ldr	r3, [pc, #92]	(8008574 <FLASH_EnableWriteProtection+0x13c>)
 8008516:	f8bd 2008 	ldrh.w	r2, [sp, #8]
 800851a:	819a      	strh	r2, [r3, #12]
 800851c:	f04f 000f 	mov.w	r0, #15	; 0xf
 8008520:	f000 f9b0 	bl	8008884 <FLASH_WaitForLastOperation>
 8008524:	4603      	mov	r3, r0
 8008526:	9303      	str	r3, [sp, #12]
 8008528:	9b03      	ldr	r3, [sp, #12]
 800852a:	2b04      	cmp	r3, #4
 800852c:	d10d      	bne.n	800854a <FLASH_EnableWriteProtection+0x112>
 800852e:	f8bd 300a 	ldrh.w	r3, [sp, #10]
 8008532:	2bff      	cmp	r3, #255
 8008534:	d009      	beq.n	800854a <FLASH_EnableWriteProtection+0x112>
 8008536:	4b0f      	ldr	r3, [pc, #60]	(8008574 <FLASH_EnableWriteProtection+0x13c>)
 8008538:	f8bd 200a 	ldrh.w	r2, [sp, #10]
 800853c:	81da      	strh	r2, [r3, #14]
 800853e:	f04f 000f 	mov.w	r0, #15	; 0xf
 8008542:	f000 f99f 	bl	8008884 <FLASH_WaitForLastOperation>
 8008546:	4603      	mov	r3, r0
 8008548:	9303      	str	r3, [sp, #12]
 800854a:	9b03      	ldr	r3, [sp, #12]
 800854c:	2b01      	cmp	r3, #1
 800854e:	d007      	beq.n	8008560 <FLASH_EnableWriteProtection+0x128>
 8008550:	4905      	ldr	r1, [pc, #20]	(8008568 <FLASH_EnableWriteProtection+0x130>)
 8008552:	4b05      	ldr	r3, [pc, #20]	(8008568 <FLASH_EnableWriteProtection+0x130>)
 8008554:	691a      	ldr	r2, [r3, #16]
 8008556:	f641 73ef 	movw	r3, #8175	; 0x1fef
 800855a:	ea02 0303 	and.w	r3, r2, r3
 800855e:	610b      	str	r3, [r1, #16]
 8008560:	9b03      	ldr	r3, [sp, #12]
 8008562:	4618      	mov	r0, r3
 8008564:	b004      	add	sp, #16
 8008566:	bd00      	pop	{pc}
 8008568:	40022000 	.word	0x40022000
 800856c:	45670123 	.word	0x45670123
 8008570:	cdef89ab 	.word	0xcdef89ab
 8008574:	1ffff800 	.word	0x1ffff800

08008578 <FLASH_ReadOutProtection>:
 8008578:	b500      	push	{lr}
 800857a:	b082      	sub	sp, #8
 800857c:	9000      	str	r0, [sp, #0]
 800857e:	f04f 0304 	mov.w	r3, #4	; 0x4
 8008582:	9301      	str	r3, [sp, #4]
 8008584:	f640 70ff 	movw	r0, #4095	; 0xfff
 8008588:	f000 f97c 	bl	8008884 <FLASH_WaitForLastOperation>
 800858c:	4603      	mov	r3, r0
 800858e:	9301      	str	r3, [sp, #4]
 8008590:	9b01      	ldr	r3, [sp, #4]
 8008592:	2b04      	cmp	r3, #4
 8008594:	d151      	bne.n	800863a <FLASH_ReadOutProtection+0xc2>
 8008596:	4a2b      	ldr	r2, [pc, #172]	(8008644 <FLASH_ReadOutProtection+0xcc>)
 8008598:	4b2b      	ldr	r3, [pc, #172]	(8008648 <FLASH_ReadOutProtection+0xd0>)
 800859a:	6093      	str	r3, [r2, #8]
 800859c:	4a29      	ldr	r2, [pc, #164]	(8008644 <FLASH_ReadOutProtection+0xcc>)
 800859e:	4b2b      	ldr	r3, [pc, #172]	(800864c <FLASH_ReadOutProtection+0xd4>)
 80085a0:	6093      	str	r3, [r2, #8]
 80085a2:	4a28      	ldr	r2, [pc, #160]	(8008644 <FLASH_ReadOutProtection+0xcc>)
 80085a4:	4b27      	ldr	r3, [pc, #156]	(8008644 <FLASH_ReadOutProtection+0xcc>)
 80085a6:	691b      	ldr	r3, [r3, #16]
 80085a8:	f043 0320 	orr.w	r3, r3, #32	; 0x20
 80085ac:	6113      	str	r3, [r2, #16]
 80085ae:	4a25      	ldr	r2, [pc, #148]	(8008644 <FLASH_ReadOutProtection+0xcc>)
 80085b0:	4b24      	ldr	r3, [pc, #144]	(8008644 <FLASH_ReadOutProtection+0xcc>)
 80085b2:	691b      	ldr	r3, [r3, #16]
 80085b4:	f043 0340 	orr.w	r3, r3, #64	; 0x40
 80085b8:	6113      	str	r3, [r2, #16]
 80085ba:	f640 70ff 	movw	r0, #4095	; 0xfff
 80085be:	f000 f961 	bl	8008884 <FLASH_WaitForLastOperation>
 80085c2:	4603      	mov	r3, r0
 80085c4:	9301      	str	r3, [sp, #4]
 80085c6:	9b01      	ldr	r3, [sp, #4]
 80085c8:	2b04      	cmp	r3, #4
 80085ca:	d12b      	bne.n	8008624 <FLASH_ReadOutProtection+0xac>
 80085cc:	491d      	ldr	r1, [pc, #116]	(8008644 <FLASH_ReadOutProtection+0xcc>)
 80085ce:	4b1d      	ldr	r3, [pc, #116]	(8008644 <FLASH_ReadOutProtection+0xcc>)
 80085d0:	691a      	ldr	r2, [r3, #16]
 80085d2:	f641 73df 	movw	r3, #8159	; 0x1fdf
 80085d6:	ea02 0303 	and.w	r3, r2, r3
 80085da:	610b      	str	r3, [r1, #16]
 80085dc:	4a19      	ldr	r2, [pc, #100]	(8008644 <FLASH_ReadOutProtection+0xcc>)
 80085de:	4b19      	ldr	r3, [pc, #100]	(8008644 <FLASH_ReadOutProtection+0xcc>)
 80085e0:	691b      	ldr	r3, [r3, #16]
 80085e2:	f043 0310 	orr.w	r3, r3, #16	; 0x10
 80085e6:	6113      	str	r3, [r2, #16]
 80085e8:	9b00      	ldr	r3, [sp, #0]
 80085ea:	2b00      	cmp	r3, #0
 80085ec:	d004      	beq.n	80085f8 <FLASH_ReadOutProtection+0x80>
 80085ee:	4b18      	ldr	r3, [pc, #96]	(8008650 <FLASH_ReadOutProtection+0xd8>)
 80085f0:	f04f 0200 	mov.w	r2, #0	; 0x0
 80085f4:	801a      	strh	r2, [r3, #0]
 80085f6:	e003      	b.n	8008600 <FLASH_ReadOutProtection+0x88>
 80085f8:	4b15      	ldr	r3, [pc, #84]	(8008650 <FLASH_ReadOutProtection+0xd8>)
 80085fa:	f04f 02a5 	mov.w	r2, #165	; 0xa5
 80085fe:	801a      	strh	r2, [r3, #0]
 8008600:	f640 70ff 	movw	r0, #4095	; 0xfff
 8008604:	f000 f93e 	bl	8008884 <FLASH_WaitForLastOperation>
 8008608:	4603      	mov	r3, r0
 800860a:	9301      	str	r3, [sp, #4]
 800860c:	9b01      	ldr	r3, [sp, #4]
 800860e:	2b01      	cmp	r3, #1
 8008610:	d013      	beq.n	800863a <FLASH_ReadOutProtection+0xc2>
 8008612:	490c      	ldr	r1, [pc, #48]	(8008644 <FLASH_ReadOutProtection+0xcc>)
 8008614:	4b0b      	ldr	r3, [pc, #44]	(8008644 <FLASH_ReadOutProtection+0xcc>)
 8008616:	691a      	ldr	r2, [r3, #16]
 8008618:	f641 73ef 	movw	r3, #8175	; 0x1fef
 800861c:	ea02 0303 	and.w	r3, r2, r3
 8008620:	610b      	str	r3, [r1, #16]
 8008622:	e00a      	b.n	800863a <FLASH_ReadOutProtection+0xc2>
 8008624:	9b01      	ldr	r3, [sp, #4]
 8008626:	2b01      	cmp	r3, #1
 8008628:	d007      	beq.n	800863a <FLASH_ReadOutProtection+0xc2>
 800862a:	4906      	ldr	r1, [pc, #24]	(8008644 <FLASH_ReadOutProtection+0xcc>)
 800862c:	4b05      	ldr	r3, [pc, #20]	(8008644 <FLASH_ReadOutProtection+0xcc>)
 800862e:	691a      	ldr	r2, [r3, #16]
 8008630:	f641 73df 	movw	r3, #8159	; 0x1fdf
 8008634:	ea02 0303 	and.w	r3, r2, r3
 8008638:	610b      	str	r3, [r1, #16]
 800863a:	9b01      	ldr	r3, [sp, #4]
 800863c:	4618      	mov	r0, r3
 800863e:	b002      	add	sp, #8
 8008640:	bd00      	pop	{pc}
 8008642:	46c0      	nop			(mov r8, r8)
 8008644:	40022000 	.word	0x40022000
 8008648:	45670123 	.word	0x45670123
 800864c:	cdef89ab 	.word	0xcdef89ab
 8008650:	1ffff800 	.word	0x1ffff800

08008654 <FLASH_UserOptionByteConfig>:
 8008654:	b500      	push	{lr}
 8008656:	b084      	sub	sp, #16
 8008658:	4603      	mov	r3, r0
 800865a:	f8ad 3008 	strh.w	r3, [sp, #8]
 800865e:	460b      	mov	r3, r1
 8008660:	f8ad 3004 	strh.w	r3, [sp, #4]
 8008664:	4613      	mov	r3, r2
 8008666:	f8ad 3000 	strh.w	r3, [sp]
 800866a:	f04f 0304 	mov.w	r3, #4	; 0x4
 800866e:	9303      	str	r3, [sp, #12]
 8008670:	4a1d      	ldr	r2, [pc, #116]	(80086e8 <FLASH_UserOptionByteConfig+0x94>)
 8008672:	4b1e      	ldr	r3, [pc, #120]	(80086ec <FLASH_UserOptionByteConfig+0x98>)
 8008674:	6093      	str	r3, [r2, #8]
 8008676:	4a1c      	ldr	r2, [pc, #112]	(80086e8 <FLASH_UserOptionByteConfig+0x94>)
 8008678:	4b1d      	ldr	r3, [pc, #116]	(80086f0 <FLASH_UserOptionByteConfig+0x9c>)
 800867a:	6093      	str	r3, [r2, #8]
 800867c:	f04f 000f 	mov.w	r0, #15	; 0xf
 8008680:	f000 f900 	bl	8008884 <FLASH_WaitForLastOperation>
 8008684:	4603      	mov	r3, r0
 8008686:	9303      	str	r3, [sp, #12]
 8008688:	9b03      	ldr	r3, [sp, #12]
 800868a:	2b04      	cmp	r3, #4
 800868c:	d127      	bne.n	80086de <FLASH_UserOptionByteConfig+0x8a>
 800868e:	4a16      	ldr	r2, [pc, #88]	(80086e8 <FLASH_UserOptionByteConfig+0x94>)
 8008690:	4b15      	ldr	r3, [pc, #84]	(80086e8 <FLASH_UserOptionByteConfig+0x94>)
 8008692:	691b      	ldr	r3, [r3, #16]
 8008694:	f043 0310 	orr.w	r3, r3, #16	; 0x10
 8008698:	6113      	str	r3, [r2, #16]
 800869a:	4916      	ldr	r1, [pc, #88]	(80086f4 <FLASH_UserOptionByteConfig+0xa0>)
 800869c:	f8bd 2008 	ldrh.w	r2, [sp, #8]
 80086a0:	f8bd 3004 	ldrh.w	r3, [sp, #4]
 80086a4:	ea42 0303 	orr.w	r3, r2, r3
 80086a8:	b29a      	uxth	r2, r3
 80086aa:	f8bd 3000 	ldrh.w	r3, [sp]
 80086ae:	ea42 0303 	orr.w	r3, r2, r3
 80086b2:	b29b      	uxth	r3, r3
 80086b4:	f043 03f8 	orr.w	r3, r3, #248	; 0xf8
 80086b8:	b29b      	uxth	r3, r3
 80086ba:	804b      	strh	r3, [r1, #2]
 80086bc:	f04f 000f 	mov.w	r0, #15	; 0xf
 80086c0:	f000 f8e0 	bl	8008884 <FLASH_WaitForLastOperation>
 80086c4:	4603      	mov	r3, r0
 80086c6:	9303      	str	r3, [sp, #12]
 80086c8:	9b03      	ldr	r3, [sp, #12]
 80086ca:	2b01      	cmp	r3, #1
 80086cc:	d007      	beq.n	80086de <FLASH_UserOptionByteConfig+0x8a>
 80086ce:	4906      	ldr	r1, [pc, #24]	(80086e8 <FLASH_UserOptionByteConfig+0x94>)
 80086d0:	4b05      	ldr	r3, [pc, #20]	(80086e8 <FLASH_UserOptionByteConfig+0x94>)
 80086d2:	691a      	ldr	r2, [r3, #16]
 80086d4:	f641 73ef 	movw	r3, #8175	; 0x1fef
 80086d8:	ea02 0303 	and.w	r3, r2, r3
 80086dc:	610b      	str	r3, [r1, #16]
 80086de:	9b03      	ldr	r3, [sp, #12]
 80086e0:	4618      	mov	r0, r3
 80086e2:	b004      	add	sp, #16
 80086e4:	bd00      	pop	{pc}
 80086e6:	46c0      	nop			(mov r8, r8)
 80086e8:	40022000 	.word	0x40022000
 80086ec:	45670123 	.word	0x45670123
 80086f0:	cdef89ab 	.word	0xcdef89ab
 80086f4:	1ffff800 	.word	0x1ffff800

080086f8 <FLASH_GetUserOptionByte>:
 80086f8:	4b02      	ldr	r3, [pc, #8]	(8008704 <FLASH_GetUserOptionByte+0xc>)
 80086fa:	69db      	ldr	r3, [r3, #28]
 80086fc:	ea4f 0393 	mov.w	r3, r3, lsr #2
 8008700:	4618      	mov	r0, r3
 8008702:	4770      	bx	lr
 8008704:	40022000 	.word	0x40022000

08008708 <FLASH_GetWriteProtectionOptionByte>:
 8008708:	4b01      	ldr	r3, [pc, #4]	(8008710 <FLASH_GetWriteProtectionOptionByte+0x8>)
 800870a:	6a1b      	ldr	r3, [r3, #32]
 800870c:	4618      	mov	r0, r3
 800870e:	4770      	bx	lr
 8008710:	40022000 	.word	0x40022000

08008714 <FLASH_GetReadOutProtectionStatus>:
 8008714:	b081      	sub	sp, #4
 8008716:	f04f 0300 	mov.w	r3, #0	; 0x0
 800871a:	9300      	str	r3, [sp, #0]
 800871c:	4b08      	ldr	r3, [pc, #32]	(8008740 <FLASH_GetReadOutProtectionStatus+0x2c>)
 800871e:	69db      	ldr	r3, [r3, #28]
 8008720:	f003 0302 	and.w	r3, r3, #2	; 0x2
 8008724:	2b00      	cmp	r3, #0
 8008726:	d003      	beq.n	8008730 <FLASH_GetReadOutProtectionStatus+0x1c>
 8008728:	f04f 0301 	mov.w	r3, #1	; 0x1
 800872c:	9300      	str	r3, [sp, #0]
 800872e:	e002      	b.n	8008736 <FLASH_GetReadOutProtectionStatus+0x22>
 8008730:	f04f 0300 	mov.w	r3, #0	; 0x0
 8008734:	9300      	str	r3, [sp, #0]
 8008736:	9b00      	ldr	r3, [sp, #0]
 8008738:	4618      	mov	r0, r3
 800873a:	b001      	add	sp, #4
 800873c:	4770      	bx	lr
 800873e:	46c0      	nop			(mov r8, r8)
 8008740:	40022000 	.word	0x40022000

08008744 <FLASH_GetPrefetchBufferStatus>:
 8008744:	b081      	sub	sp, #4
 8008746:	f04f 0300 	mov.w	r3, #0	; 0x0
 800874a:	9300      	str	r3, [sp, #0]
 800874c:	4b08      	ldr	r3, [pc, #32]	(8008770 <FLASH_GetPrefetchBufferStatus+0x2c>)
 800874e:	681b      	ldr	r3, [r3, #0]
 8008750:	f003 0320 	and.w	r3, r3, #32	; 0x20
 8008754:	2b00      	cmp	r3, #0
 8008756:	d003      	beq.n	8008760 <FLASH_GetPrefetchBufferStatus+0x1c>
 8008758:	f04f 0301 	mov.w	r3, #1	; 0x1
 800875c:	9300      	str	r3, [sp, #0]
 800875e:	e002      	b.n	8008766 <FLASH_GetPrefetchBufferStatus+0x22>
 8008760:	f04f 0300 	mov.w	r3, #0	; 0x0
 8008764:	9300      	str	r3, [sp, #0]
 8008766:	9b00      	ldr	r3, [sp, #0]
 8008768:	4618      	mov	r0, r3
 800876a:	b001      	add	sp, #4
 800876c:	4770      	bx	lr
 800876e:	46c0      	nop			(mov r8, r8)
 8008770:	40022000 	.word	0x40022000

08008774 <FLASH_ITConfig>:
 8008774:	b082      	sub	sp, #8
 8008776:	4603      	mov	r3, r0
 8008778:	9100      	str	r1, [sp, #0]
 800877a:	f8ad 3004 	strh.w	r3, [sp, #4]
 800877e:	9b00      	ldr	r3, [sp, #0]
 8008780:	2b00      	cmp	r3, #0
 8008782:	d008      	beq.n	8008796 <FLASH_ITConfig+0x22>
 8008784:	490a      	ldr	r1, [pc, #40]	(80087b0 <FLASH_ITConfig+0x3c>)
 8008786:	4b0a      	ldr	r3, [pc, #40]	(80087b0 <FLASH_ITConfig+0x3c>)
 8008788:	691a      	ldr	r2, [r3, #16]
 800878a:	f8bd 3004 	ldrh.w	r3, [sp, #4]
 800878e:	ea42 0303 	orr.w	r3, r2, r3
 8008792:	610b      	str	r3, [r1, #16]
 8008794:	e009      	b.n	80087aa <FLASH_ITConfig+0x36>
 8008796:	4906      	ldr	r1, [pc, #24]	(80087b0 <FLASH_ITConfig+0x3c>)
 8008798:	4b05      	ldr	r3, [pc, #20]	(80087b0 <FLASH_ITConfig+0x3c>)
 800879a:	691a      	ldr	r2, [r3, #16]
 800879c:	f8bd 3004 	ldrh.w	r3, [sp, #4]
 80087a0:	ea6f 0303 	mvn.w	r3, r3
 80087a4:	ea02 0303 	and.w	r3, r2, r3
 80087a8:	610b      	str	r3, [r1, #16]
 80087aa:	b002      	add	sp, #8
 80087ac:	4770      	bx	lr
 80087ae:	46c0      	nop			(mov r8, r8)
 80087b0:	40022000 	.word	0x40022000

080087b4 <FLASH_GetFlagStatus>:
 80087b4:	b082      	sub	sp, #8
 80087b6:	4603      	mov	r3, r0
 80087b8:	f8ad 3000 	strh.w	r3, [sp]
 80087bc:	f04f 0300 	mov.w	r3, #0	; 0x0
 80087c0:	9301      	str	r3, [sp, #4]
 80087c2:	f8bd 3000 	ldrh.w	r3, [sp]
 80087c6:	2b01      	cmp	r3, #1
 80087c8:	d10e      	bne.n	80087e8 <FLASH_GetFlagStatus+0x34>
 80087ca:	4b11      	ldr	r3, [pc, #68]	(8008810 <FLASH_GetFlagStatus+0x5c>)
 80087cc:	69db      	ldr	r3, [r3, #28]
 80087ce:	f003 0301 	and.w	r3, r3, #1	; 0x1
 80087d2:	b2db      	uxtb	r3, r3
 80087d4:	2b00      	cmp	r3, #0
 80087d6:	d003      	beq.n	80087e0 <FLASH_GetFlagStatus+0x2c>
 80087d8:	f04f 0301 	mov.w	r3, #1	; 0x1
 80087dc:	9301      	str	r3, [sp, #4]
 80087de:	e012      	b.n	8008806 <FLASH_GetFlagStatus+0x52>
 80087e0:	f04f 0300 	mov.w	r3, #0	; 0x0
 80087e4:	9301      	str	r3, [sp, #4]
 80087e6:	e00e      	b.n	8008806 <FLASH_GetFlagStatus+0x52>
 80087e8:	4b09      	ldr	r3, [pc, #36]	(8008810 <FLASH_GetFlagStatus+0x5c>)
 80087ea:	68da      	ldr	r2, [r3, #12]
 80087ec:	f8bd 3000 	ldrh.w	r3, [sp]
 80087f0:	ea02 0303 	and.w	r3, r2, r3
 80087f4:	2b00      	cmp	r3, #0
 80087f6:	d003      	beq.n	8008800 <FLASH_GetFlagStatus+0x4c>
 80087f8:	f04f 0301 	mov.w	r3, #1	; 0x1
 80087fc:	9301      	str	r3, [sp, #4]
 80087fe:	e002      	b.n	8008806 <FLASH_GetFlagStatus+0x52>
 8008800:	f04f 0300 	mov.w	r3, #0	; 0x0
 8008804:	9301      	str	r3, [sp, #4]
 8008806:	9b01      	ldr	r3, [sp, #4]
 8008808:	4618      	mov	r0, r3
 800880a:	b002      	add	sp, #8
 800880c:	4770      	bx	lr
 800880e:	46c0      	nop			(mov r8, r8)
 8008810:	40022000 	.word	0x40022000

08008814 <FLASH_ClearFlag>:
 8008814:	b081      	sub	sp, #4
 8008816:	4603      	mov	r3, r0
 8008818:	f8ad 3000 	strh.w	r3, [sp]
 800881c:	4a02      	ldr	r2, [pc, #8]	(8008828 <FLASH_ClearFlag+0x14>)
 800881e:	f8bd 3000 	ldrh.w	r3, [sp]
 8008822:	60d3      	str	r3, [r2, #12]
 8008824:	b001      	add	sp, #4
 8008826:	4770      	bx	lr
 8008828:	40022000 	.word	0x40022000

0800882c <FLASH_GetStatus>:
 800882c:	b081      	sub	sp, #4
 800882e:	f04f 0304 	mov.w	r3, #4	; 0x4
 8008832:	9300      	str	r3, [sp, #0]
 8008834:	4b12      	ldr	r3, [pc, #72]	(8008880 <FLASH_GetStatus+0x54>)
 8008836:	68db      	ldr	r3, [r3, #12]
 8008838:	f003 0301 	and.w	r3, r3, #1	; 0x1
 800883c:	b2db      	uxtb	r3, r3
 800883e:	2b00      	cmp	r3, #0
 8008840:	d003      	beq.n	800884a <FLASH_GetStatus+0x1e>
 8008842:	f04f 0301 	mov.w	r3, #1	; 0x1
 8008846:	9300      	str	r3, [sp, #0]
 8008848:	e016      	b.n	8008878 <FLASH_GetStatus+0x4c>
 800884a:	4b0d      	ldr	r3, [pc, #52]	(8008880 <FLASH_GetStatus+0x54>)
 800884c:	68db      	ldr	r3, [r3, #12]
 800884e:	f003 0304 	and.w	r3, r3, #4	; 0x4
 8008852:	2b00      	cmp	r3, #0
 8008854:	d003      	beq.n	800885e <FLASH_GetStatus+0x32>
 8008856:	f04f 0302 	mov.w	r3, #2	; 0x2
 800885a:	9300      	str	r3, [sp, #0]
 800885c:	e00c      	b.n	8008878 <FLASH_GetStatus+0x4c>
 800885e:	4b08      	ldr	r3, [pc, #32]	(8008880 <FLASH_GetStatus+0x54>)
 8008860:	68db      	ldr	r3, [r3, #12]
 8008862:	f003 0310 	and.w	r3, r3, #16	; 0x10
 8008866:	2b00      	cmp	r3, #0
 8008868:	d003      	beq.n	8008872 <FLASH_GetStatus+0x46>
 800886a:	f04f 0303 	mov.w	r3, #3	; 0x3
 800886e:	9300      	str	r3, [sp, #0]
 8008870:	e002      	b.n	8008878 <FLASH_GetStatus+0x4c>
 8008872:	f04f 0304 	mov.w	r3, #4	; 0x4
 8008876:	9300      	str	r3, [sp, #0]
 8008878:	9b00      	ldr	r3, [sp, #0]
 800887a:	4618      	mov	r0, r3
 800887c:	b001      	add	sp, #4
 800887e:	4770      	bx	lr
 8008880:	40022000 	.word	0x40022000

08008884 <FLASH_WaitForLastOperation>:
 8008884:	b500      	push	{lr}
 8008886:	b082      	sub	sp, #8
 8008888:	9000      	str	r0, [sp, #0]
 800888a:	f04f 0304 	mov.w	r3, #4	; 0x4
 800888e:	9301      	str	r3, [sp, #4]
 8008890:	f7ff ffcc 	bl	800882c <FLASH_GetStatus>
 8008894:	4603      	mov	r3, r0
 8008896:	9301      	str	r3, [sp, #4]
 8008898:	e009      	b.n	80088ae <FLASH_WaitForLastOperation+0x2a>
 800889a:	f000 f819 	bl	80088d0 <delay>
 800889e:	f7ff ffc5 	bl	800882c <FLASH_GetStatus>
 80088a2:	4603      	mov	r3, r0
 80088a4:	9301      	str	r3, [sp, #4]
 80088a6:	9b00      	ldr	r3, [sp, #0]
 80088a8:	f103 33ff 	add.w	r3, r3, #4294967295	; 0xffffffff
 80088ac:	9300      	str	r3, [sp, #0]
 80088ae:	9b01      	ldr	r3, [sp, #4]
 80088b0:	2b01      	cmp	r3, #1
 80088b2:	d102      	bne.n	80088ba <FLASH_WaitForLastOperation+0x36>
 80088b4:	9b00      	ldr	r3, [sp, #0]
 80088b6:	2b00      	cmp	r3, #0
 80088b8:	d1ef      	bne.n	800889a <FLASH_WaitForLastOperation+0x16>
 80088ba:	9b00      	ldr	r3, [sp, #0]
 80088bc:	2b00      	cmp	r3, #0
 80088be:	d102      	bne.n	80088c6 <FLASH_WaitForLastOperation+0x42>
 80088c0:	f04f 0305 	mov.w	r3, #5	; 0x5
 80088c4:	9301      	str	r3, [sp, #4]
 80088c6:	9b01      	ldr	r3, [sp, #4]
 80088c8:	4618      	mov	r0, r3
 80088ca:	b002      	add	sp, #8
 80088cc:	bd00      	pop	{pc}
 80088ce:	46c0      	nop			(mov r8, r8)

080088d0 <delay>:
 80088d0:	b081      	sub	sp, #4
 80088d2:	f04f 0300 	mov.w	r3, #0	; 0x0
 80088d6:	9300      	str	r3, [sp, #0]
 80088d8:	f04f 03ff 	mov.w	r3, #255	; 0xff
 80088dc:	9300      	str	r3, [sp, #0]
 80088de:	e003      	b.n	80088e8 <delay+0x18>
 80088e0:	9b00      	ldr	r3, [sp, #0]
 80088e2:	f103 33ff 	add.w	r3, r3, #4294967295	; 0xffffffff
 80088e6:	9300      	str	r3, [sp, #0]
 80088e8:	9b00      	ldr	r3, [sp, #0]
 80088ea:	2b00      	cmp	r3, #0
 80088ec:	d1f8      	bne.n	80088e0 <delay+0x10>
 80088ee:	b001      	add	sp, #4
 80088f0:	4770      	bx	lr
 80088f2:	46c0      	nop			(mov r8, r8)

080088f4 <WWDG_DeInit>:
 80088f4:	b500      	push	{lr}
 80088f6:	f44f 6000 	mov.w	r0, #2048	; 0x800
 80088fa:	f04f 0101 	mov.w	r1, #1	; 0x1
 80088fe:	f7fa fde1 	bl	80034c4 <RCC_APB1PeriphResetCmd>
 8008902:	f44f 6000 	mov.w	r0, #2048	; 0x800
 8008906:	f04f 0100 	mov.w	r1, #0	; 0x0
 800890a:	f7fa fddb 	bl	80034c4 <RCC_APB1PeriphResetCmd>
 800890e:	bd00      	pop	{pc}

08008910 <WWDG_SetPrescaler>:
 8008910:	b082      	sub	sp, #8
 8008912:	9000      	str	r0, [sp, #0]
 8008914:	f04f 0300 	mov.w	r3, #0	; 0x0
 8008918:	9301      	str	r3, [sp, #4]
 800891a:	4b07      	ldr	r3, [pc, #28]	(8008938 <WWDG_SetPrescaler+0x28>)
 800891c:	685b      	ldr	r3, [r3, #4]
 800891e:	f423 73c0 	bic.w	r3, r3, #384	; 0x180
 8008922:	9301      	str	r3, [sp, #4]
 8008924:	9a01      	ldr	r2, [sp, #4]
 8008926:	9b00      	ldr	r3, [sp, #0]
 8008928:	ea42 0303 	orr.w	r3, r2, r3
 800892c:	9301      	str	r3, [sp, #4]
 800892e:	4a02      	ldr	r2, [pc, #8]	(8008938 <WWDG_SetPrescaler+0x28>)
 8008930:	9b01      	ldr	r3, [sp, #4]
 8008932:	6053      	str	r3, [r2, #4]
 8008934:	b002      	add	sp, #8
 8008936:	4770      	bx	lr
 8008938:	40002c00 	.word	0x40002c00

0800893c <WWDG_SetWindowValue>:
 800893c:	b082      	sub	sp, #8
 800893e:	4603      	mov	r3, r0
 8008940:	f88d 3000 	strb.w	r3, [sp]
 8008944:	f04f 0300 	mov.w	r3, #0	; 0x0
 8008948:	9301      	str	r3, [sp, #4]
 800894a:	4b09      	ldr	r3, [pc, #36]	(8008970 <WWDG_SetWindowValue+0x34>)
 800894c:	685b      	ldr	r3, [r3, #4]
 800894e:	f023 037f 	bic.w	r3, r3, #127	; 0x7f
 8008952:	9301      	str	r3, [sp, #4]
 8008954:	f89d 3000 	ldrb.w	r3, [sp]
 8008958:	f003 027f 	and.w	r2, r3, #127	; 0x7f
 800895c:	9b01      	ldr	r3, [sp, #4]
 800895e:	ea43 0302 	orr.w	r3, r3, r2
 8008962:	9301      	str	r3, [sp, #4]
 8008964:	4a02      	ldr	r2, [pc, #8]	(8008970 <WWDG_SetWindowValue+0x34>)
 8008966:	9b01      	ldr	r3, [sp, #4]
 8008968:	6053      	str	r3, [r2, #4]
 800896a:	b002      	add	sp, #8
 800896c:	4770      	bx	lr
 800896e:	46c0      	nop			(mov r8, r8)
 8008970:	40002c00 	.word	0x40002c00

08008974 <WWDG_EnableIT>:
 8008974:	4a02      	ldr	r2, [pc, #8]	(8008980 <WWDG_EnableIT+0xc>)
 8008976:	f04f 0301 	mov.w	r3, #1	; 0x1
 800897a:	6013      	str	r3, [r2, #0]
 800897c:	4770      	bx	lr
 800897e:	46c0      	nop			(mov r8, r8)
 8008980:	420580a4 	.word	0x420580a4

08008984 <WWDG_SetCounter>:
 8008984:	b081      	sub	sp, #4
 8008986:	4603      	mov	r3, r0
 8008988:	f88d 3000 	strb.w	r3, [sp]
 800898c:	4a03      	ldr	r2, [pc, #12]	(800899c <WWDG_SetCounter+0x18>)
 800898e:	f89d 3000 	ldrb.w	r3, [sp]
 8008992:	f003 037f 	and.w	r3, r3, #127	; 0x7f
 8008996:	6013      	str	r3, [r2, #0]
 8008998:	b001      	add	sp, #4
 800899a:	4770      	bx	lr
 800899c:	40002c00 	.word	0x40002c00

080089a0 <WWDG_Enable>:
 80089a0:	b081      	sub	sp, #4
 80089a2:	4603      	mov	r3, r0
 80089a4:	f88d 3000 	strb.w	r3, [sp]
 80089a8:	4a05      	ldr	r2, [pc, #20]	(80089c0 <WWDG_Enable+0x20>)
 80089aa:	f89d 3000 	ldrb.w	r3, [sp]
 80089ae:	ea6f 6343 	mvn.w	r3, r3, lsl #25
 80089b2:	ea6f 6353 	mvn.w	r3, r3, lsr #25
 80089b6:	b2db      	uxtb	r3, r3
 80089b8:	6013      	str	r3, [r2, #0]
 80089ba:	b001      	add	sp, #4
 80089bc:	4770      	bx	lr
 80089be:	46c0      	nop			(mov r8, r8)
 80089c0:	40002c00 	.word	0x40002c00

080089c4 <WWDG_GetFlagStatus>:
 80089c4:	4b01      	ldr	r3, [pc, #4]	(80089cc <WWDG_GetFlagStatus+0x8>)
 80089c6:	689b      	ldr	r3, [r3, #8]
 80089c8:	4618      	mov	r0, r3
 80089ca:	4770      	bx	lr
 80089cc:	40002c00 	.word	0x40002c00

080089d0 <WWDG_ClearFlag>:
 80089d0:	4a02      	ldr	r2, [pc, #8]	(80089dc <WWDG_ClearFlag+0xc>)
 80089d2:	f04f 0300 	mov.w	r3, #0	; 0x0
 80089d6:	6093      	str	r3, [r2, #8]
 80089d8:	4770      	bx	lr
 80089da:	46c0      	nop			(mov r8, r8)
 80089dc:	40002c00 	.word	0x40002c00

080089e0 <RTC_ITConfig>:
 80089e0:	b082      	sub	sp, #8
 80089e2:	4603      	mov	r3, r0
 80089e4:	9100      	str	r1, [sp, #0]
 80089e6:	f8ad 3004 	strh.w	r3, [sp, #4]
 80089ea:	9b00      	ldr	r3, [sp, #0]
 80089ec:	2b00      	cmp	r3, #0
 80089ee:	d00a      	beq.n	8008a06 <RTC_ITConfig+0x26>
 80089f0:	490c      	ldr	r1, [pc, #48]	(8008a24 <RTC_ITConfig+0x44>)
 80089f2:	4b0c      	ldr	r3, [pc, #48]	(8008a24 <RTC_ITConfig+0x44>)
 80089f4:	881b      	ldrh	r3, [r3, #0]
 80089f6:	b29a      	uxth	r2, r3
 80089f8:	f8bd 3004 	ldrh.w	r3, [sp, #4]
 80089fc:	ea42 0303 	orr.w	r3, r2, r3
 8008a00:	b29b      	uxth	r3, r3
 8008a02:	800b      	strh	r3, [r1, #0]
 8008a04:	e00c      	b.n	8008a20 <RTC_ITConfig+0x40>
 8008a06:	4907      	ldr	r1, [pc, #28]	(8008a24 <RTC_ITConfig+0x44>)
 8008a08:	4b06      	ldr	r3, [pc, #24]	(8008a24 <RTC_ITConfig+0x44>)
 8008a0a:	881b      	ldrh	r3, [r3, #0]
 8008a0c:	b29a      	uxth	r2, r3
 8008a0e:	f8bd 3004 	ldrh.w	r3, [sp, #4]
 8008a12:	ea6f 0303 	mvn.w	r3, r3
 8008a16:	b29b      	uxth	r3, r3
 8008a18:	ea02 0303 	and.w	r3, r2, r3
 8008a1c:	b29b      	uxth	r3, r3
 8008a1e:	800b      	strh	r3, [r1, #0]
 8008a20:	b002      	add	sp, #8
 8008a22:	4770      	bx	lr
 8008a24:	40002800 	.word	0x40002800

08008a28 <RTC_EnterConfigMode>:
 8008a28:	4a04      	ldr	r2, [pc, #16]	(8008a3c <RTC_EnterConfigMode+0x14>)
 8008a2a:	4b04      	ldr	r3, [pc, #16]	(8008a3c <RTC_EnterConfigMode+0x14>)
 8008a2c:	889b      	ldrh	r3, [r3, #4]
 8008a2e:	b29b      	uxth	r3, r3
 8008a30:	f043 0310 	orr.w	r3, r3, #16	; 0x10
 8008a34:	b29b      	uxth	r3, r3
 8008a36:	8093      	strh	r3, [r2, #4]
 8008a38:	4770      	bx	lr
 8008a3a:	46c0      	nop			(mov r8, r8)
 8008a3c:	40002800 	.word	0x40002800

08008a40 <RTC_ExitConfigMode>:
 8008a40:	b081      	sub	sp, #4
 8008a42:	4a08      	ldr	r2, [pc, #32]	(8008a64 <RTC_ExitConfigMode+0x24>)
 8008a44:	4b07      	ldr	r3, [pc, #28]	(8008a64 <RTC_ExitConfigMode+0x24>)
 8008a46:	889b      	ldrh	r3, [r3, #4]
 8008a48:	b29b      	uxth	r3, r3
 8008a4a:	9300      	str	r3, [sp, #0]
 8008a4c:	f64f 73ef 	movw	r3, #65519	; 0xffef
 8008a50:	9900      	ldr	r1, [sp, #0]
 8008a52:	ea01 0303 	and.w	r3, r1, r3
 8008a56:	9300      	str	r3, [sp, #0]
 8008a58:	9900      	ldr	r1, [sp, #0]
 8008a5a:	460b      	mov	r3, r1
 8008a5c:	8093      	strh	r3, [r2, #4]
 8008a5e:	b001      	add	sp, #4
 8008a60:	4770      	bx	lr
 8008a62:	46c0      	nop			(mov r8, r8)
 8008a64:	40002800 	.word	0x40002800

08008a68 <RTC_GetCounter>:
 8008a68:	b081      	sub	sp, #4
 8008a6a:	f04f 0300 	mov.w	r3, #0	; 0x0
 8008a6e:	f8ad 3002 	strh.w	r3, [sp, #2]
 8008a72:	4b08      	ldr	r3, [pc, #32]	(8008a94 <RTC_GetCounter+0x2c>)
 8008a74:	8b9b      	ldrh	r3, [r3, #28]
 8008a76:	f8ad 3002 	strh.w	r3, [sp, #2]
 8008a7a:	4b06      	ldr	r3, [pc, #24]	(8008a94 <RTC_GetCounter+0x2c>)
 8008a7c:	8b1b      	ldrh	r3, [r3, #24]
 8008a7e:	b29b      	uxth	r3, r3
 8008a80:	ea4f 4203 	mov.w	r2, r3, lsl #16
 8008a84:	f8bd 3002 	ldrh.w	r3, [sp, #2]
 8008a88:	ea42 0303 	orr.w	r3, r2, r3
 8008a8c:	4618      	mov	r0, r3
 8008a8e:	b001      	add	sp, #4
 8008a90:	4770      	bx	lr
 8008a92:	46c0      	nop			(mov r8, r8)
 8008a94:	40002800 	.word	0x40002800

08008a98 <RTC_SetCounter>:
 8008a98:	b500      	push	{lr}
 8008a9a:	b081      	sub	sp, #4
 8008a9c:	9000      	str	r0, [sp, #0]
 8008a9e:	f7ff ffc3 	bl	8008a28 <RTC_EnterConfigMode>
 8008aa2:	4a07      	ldr	r2, [pc, #28]	(8008ac0 <RTC_SetCounter+0x28>)
 8008aa4:	9b00      	ldr	r3, [sp, #0]
 8008aa6:	ea4f 4313 	mov.w	r3, r3, lsr #16
 8008aaa:	b29b      	uxth	r3, r3
 8008aac:	8313      	strh	r3, [r2, #24]
 8008aae:	4a04      	ldr	r2, [pc, #16]	(8008ac0 <RTC_SetCounter+0x28>)
 8008ab0:	9b00      	ldr	r3, [sp, #0]
 8008ab2:	b29b      	uxth	r3, r3
 8008ab4:	8393      	strh	r3, [r2, #28]
 8008ab6:	f7ff ffc3 	bl	8008a40 <RTC_ExitConfigMode>
 8008aba:	b001      	add	sp, #4
 8008abc:	bd00      	pop	{pc}
 8008abe:	46c0      	nop			(mov r8, r8)
 8008ac0:	40002800 	.word	0x40002800

08008ac4 <RTC_SetPrescaler>:
 8008ac4:	b500      	push	{lr}
 8008ac6:	b081      	sub	sp, #4
 8008ac8:	9000      	str	r0, [sp, #0]
 8008aca:	f7ff ffad 	bl	8008a28 <RTC_EnterConfigMode>
 8008ace:	4a08      	ldr	r2, [pc, #32]	(8008af0 <RTC_SetPrescaler+0x2c>)
 8008ad0:	9b00      	ldr	r3, [sp, #0]
 8008ad2:	f403 2370 	and.w	r3, r3, #983040	; 0xf0000
 8008ad6:	ea4f 4313 	mov.w	r3, r3, lsr #16
 8008ada:	b29b      	uxth	r3, r3
 8008adc:	8113      	strh	r3, [r2, #8]
 8008ade:	4a04      	ldr	r2, [pc, #16]	(8008af0 <RTC_SetPrescaler+0x2c>)
 8008ae0:	9b00      	ldr	r3, [sp, #0]
 8008ae2:	b29b      	uxth	r3, r3
 8008ae4:	8193      	strh	r3, [r2, #12]
 8008ae6:	f7ff ffab 	bl	8008a40 <RTC_ExitConfigMode>
 8008aea:	b001      	add	sp, #4
 8008aec:	bd00      	pop	{pc}
 8008aee:	46c0      	nop			(mov r8, r8)
 8008af0:	40002800 	.word	0x40002800

08008af4 <RTC_SetAlarm>:
 8008af4:	b500      	push	{lr}
 8008af6:	b081      	sub	sp, #4
 8008af8:	9000      	str	r0, [sp, #0]
 8008afa:	f7ff ff95 	bl	8008a28 <RTC_EnterConfigMode>
 8008afe:	4a07      	ldr	r2, [pc, #28]	(8008b1c <RTC_SetAlarm+0x28>)
 8008b00:	9b00      	ldr	r3, [sp, #0]
 8008b02:	ea4f 4313 	mov.w	r3, r3, lsr #16
 8008b06:	b29b      	uxth	r3, r3
 8008b08:	8413      	strh	r3, [r2, #32]
 8008b0a:	4a04      	ldr	r2, [pc, #16]	(8008b1c <RTC_SetAlarm+0x28>)
 8008b0c:	9b00      	ldr	r3, [sp, #0]
 8008b0e:	b29b      	uxth	r3, r3
 8008b10:	8493      	strh	r3, [r2, #36]
 8008b12:	f7ff ff95 	bl	8008a40 <RTC_ExitConfigMode>
 8008b16:	b001      	add	sp, #4
 8008b18:	bd00      	pop	{pc}
 8008b1a:	46c0      	nop			(mov r8, r8)
 8008b1c:	40002800 	.word	0x40002800

08008b20 <RTC_GetDivider>:
 8008b20:	b081      	sub	sp, #4
 8008b22:	f04f 0300 	mov.w	r3, #0	; 0x0
 8008b26:	9300      	str	r3, [sp, #0]
 8008b28:	4b09      	ldr	r3, [pc, #36]	(8008b50 <RTC_GetDivider+0x30>)
 8008b2a:	8a1b      	ldrh	r3, [r3, #16]
 8008b2c:	b29b      	uxth	r3, r3
 8008b2e:	f003 030f 	and.w	r3, r3, #15	; 0xf
 8008b32:	ea4f 4303 	mov.w	r3, r3, lsl #16
 8008b36:	9300      	str	r3, [sp, #0]
 8008b38:	4b05      	ldr	r3, [pc, #20]	(8008b50 <RTC_GetDivider+0x30>)
 8008b3a:	8a9b      	ldrh	r3, [r3, #20]
 8008b3c:	b29b      	uxth	r3, r3
 8008b3e:	461a      	mov	r2, r3
 8008b40:	9b00      	ldr	r3, [sp, #0]
 8008b42:	ea43 0302 	orr.w	r3, r3, r2
 8008b46:	9300      	str	r3, [sp, #0]
 8008b48:	9b00      	ldr	r3, [sp, #0]
 8008b4a:	4618      	mov	r0, r3
 8008b4c:	b001      	add	sp, #4
 8008b4e:	4770      	bx	lr
 8008b50:	40002800 	.word	0x40002800

08008b54 <RTC_WaitForLastTask>:
 8008b54:	4b03      	ldr	r3, [pc, #12]	(8008b64 <RTC_WaitForLastTask+0x10>)
 8008b56:	889b      	ldrh	r3, [r3, #4]
 8008b58:	b29b      	uxth	r3, r3
 8008b5a:	f003 0320 	and.w	r3, r3, #32	; 0x20
 8008b5e:	2b00      	cmp	r3, #0
 8008b60:	d0f8      	beq.n	8008b54 <RTC_WaitForLastTask>
 8008b62:	4770      	bx	lr
 8008b64:	40002800 	.word	0x40002800

08008b68 <RTC_WaitForSynchro>:
 8008b68:	b081      	sub	sp, #4
 8008b6a:	4a0b      	ldr	r2, [pc, #44]	(8008b98 <RTC_WaitForSynchro+0x30>)
 8008b6c:	4b0a      	ldr	r3, [pc, #40]	(8008b98 <RTC_WaitForSynchro+0x30>)
 8008b6e:	889b      	ldrh	r3, [r3, #4]
 8008b70:	b29b      	uxth	r3, r3
 8008b72:	9300      	str	r3, [sp, #0]
 8008b74:	f64f 73f7 	movw	r3, #65527	; 0xfff7
 8008b78:	9900      	ldr	r1, [sp, #0]
 8008b7a:	ea01 0303 	and.w	r3, r1, r3
 8008b7e:	9300      	str	r3, [sp, #0]
 8008b80:	9900      	ldr	r1, [sp, #0]
 8008b82:	460b      	mov	r3, r1
 8008b84:	8093      	strh	r3, [r2, #4]
 8008b86:	4b04      	ldr	r3, [pc, #16]	(8008b98 <RTC_WaitForSynchro+0x30>)
 8008b88:	889b      	ldrh	r3, [r3, #4]
 8008b8a:	b29b      	uxth	r3, r3
 8008b8c:	f003 0308 	and.w	r3, r3, #8	; 0x8
 8008b90:	2b00      	cmp	r3, #0
 8008b92:	d0f8      	beq.n	8008b86 <RTC_WaitForSynchro+0x1e>
 8008b94:	b001      	add	sp, #4
 8008b96:	4770      	bx	lr
 8008b98:	40002800 	.word	0x40002800

08008b9c <RTC_GetFlagStatus>:
 8008b9c:	b082      	sub	sp, #8
 8008b9e:	4603      	mov	r3, r0
 8008ba0:	f8ad 3000 	strh.w	r3, [sp]
 8008ba4:	f04f 0300 	mov.w	r3, #0	; 0x0
 8008ba8:	9301      	str	r3, [sp, #4]
 8008baa:	4b0a      	ldr	r3, [pc, #40]	(8008bd4 <RTC_GetFlagStatus+0x38>)
 8008bac:	889b      	ldrh	r3, [r3, #4]
 8008bae:	b29a      	uxth	r2, r3
 8008bb0:	f8bd 3000 	ldrh.w	r3, [sp]
 8008bb4:	ea02 0303 	and.w	r3, r2, r3
 8008bb8:	b29b      	uxth	r3, r3
 8008bba:	2b00      	cmp	r3, #0
 8008bbc:	d003      	beq.n	8008bc6 <RTC_GetFlagStatus+0x2a>
 8008bbe:	f04f 0301 	mov.w	r3, #1	; 0x1
 8008bc2:	9301      	str	r3, [sp, #4]
 8008bc4:	e002      	b.n	8008bcc <RTC_GetFlagStatus+0x30>
 8008bc6:	f04f 0300 	mov.w	r3, #0	; 0x0
 8008bca:	9301      	str	r3, [sp, #4]
 8008bcc:	9b01      	ldr	r3, [sp, #4]
 8008bce:	4618      	mov	r0, r3
 8008bd0:	b002      	add	sp, #8
 8008bd2:	4770      	bx	lr
 8008bd4:	40002800 	.word	0x40002800

08008bd8 <RTC_ClearFlag>:
 8008bd8:	b081      	sub	sp, #4
 8008bda:	4603      	mov	r3, r0
 8008bdc:	f8ad 3000 	strh.w	r3, [sp]
 8008be0:	4907      	ldr	r1, [pc, #28]	(8008c00 <RTC_ClearFlag+0x28>)
 8008be2:	4b07      	ldr	r3, [pc, #28]	(8008c00 <RTC_ClearFlag+0x28>)
 8008be4:	889b      	ldrh	r3, [r3, #4]
 8008be6:	b29a      	uxth	r2, r3
 8008be8:	f8bd 3000 	ldrh.w	r3, [sp]
 8008bec:	ea6f 0303 	mvn.w	r3, r3
 8008bf0:	b29b      	uxth	r3, r3
 8008bf2:	ea02 0303 	and.w	r3, r2, r3
 8008bf6:	b29b      	uxth	r3, r3
 8008bf8:	808b      	strh	r3, [r1, #4]
 8008bfa:	b001      	add	sp, #4
 8008bfc:	4770      	bx	lr
 8008bfe:	46c0      	nop			(mov r8, r8)
 8008c00:	40002800 	.word	0x40002800

08008c04 <RTC_GetITStatus>:
 8008c04:	b082      	sub	sp, #8
 8008c06:	4603      	mov	r3, r0
 8008c08:	f8ad 3000 	strh.w	r3, [sp]
 8008c0c:	f04f 0300 	mov.w	r3, #0	; 0x0
 8008c10:	9301      	str	r3, [sp, #4]
 8008c12:	4b10      	ldr	r3, [pc, #64]	(8008c54 <RTC_GetITStatus+0x50>)
 8008c14:	889b      	ldrh	r3, [r3, #4]
 8008c16:	b29a      	uxth	r2, r3
 8008c18:	f8bd 3000 	ldrh.w	r3, [sp]
 8008c1c:	ea02 0303 	and.w	r3, r2, r3
 8008c20:	b29b      	uxth	r3, r3
 8008c22:	9301      	str	r3, [sp, #4]
 8008c24:	4b0b      	ldr	r3, [pc, #44]	(8008c54 <RTC_GetITStatus+0x50>)
 8008c26:	881b      	ldrh	r3, [r3, #0]
 8008c28:	b29a      	uxth	r2, r3
 8008c2a:	f8bd 3000 	ldrh.w	r3, [sp]
 8008c2e:	ea02 0303 	and.w	r3, r2, r3
 8008c32:	b29b      	uxth	r3, r3
 8008c34:	2b00      	cmp	r3, #0
 8008c36:	d006      	beq.n	8008c46 <RTC_GetITStatus+0x42>
 8008c38:	9b01      	ldr	r3, [sp, #4]
 8008c3a:	2b00      	cmp	r3, #0
 8008c3c:	d003      	beq.n	8008c46 <RTC_GetITStatus+0x42>
 8008c3e:	f04f 0301 	mov.w	r3, #1	; 0x1
 8008c42:	9301      	str	r3, [sp, #4]
 8008c44:	e002      	b.n	8008c4c <RTC_GetITStatus+0x48>
 8008c46:	f04f 0300 	mov.w	r3, #0	; 0x0
 8008c4a:	9301      	str	r3, [sp, #4]
 8008c4c:	9b01      	ldr	r3, [sp, #4]
 8008c4e:	4618      	mov	r0, r3
 8008c50:	b002      	add	sp, #8
 8008c52:	4770      	bx	lr
 8008c54:	40002800 	.word	0x40002800

08008c58 <RTC_ClearITPendingBit>:
 8008c58:	b081      	sub	sp, #4
 8008c5a:	4603      	mov	r3, r0
 8008c5c:	f8ad 3000 	strh.w	r3, [sp]
 8008c60:	4907      	ldr	r1, [pc, #28]	(8008c80 <RTC_ClearITPendingBit+0x28>)
 8008c62:	4b07      	ldr	r3, [pc, #28]	(8008c80 <RTC_ClearITPendingBit+0x28>)
 8008c64:	889b      	ldrh	r3, [r3, #4]
 8008c66:	b29a      	uxth	r2, r3
 8008c68:	f8bd 3000 	ldrh.w	r3, [sp]
 8008c6c:	ea6f 0303 	mvn.w	r3, r3
 8008c70:	b29b      	uxth	r3, r3
 8008c72:	ea02 0303 	and.w	r3, r2, r3
 8008c76:	b29b      	uxth	r3, r3
 8008c78:	808b      	strh	r3, [r1, #4]
 8008c7a:	b001      	add	sp, #4
 8008c7c:	4770      	bx	lr
 8008c7e:	46c0      	nop			(mov r8, r8)
 8008c80:	40002800 	.word	0x40002800

08008c84 <NMI_Handler>:
 8008c84:	4770      	bx	lr
 8008c86:	46c0      	nop			(mov r8, r8)

08008c88 <HardFault_Handler>:
 8008c88:	b083      	sub	sp, #12
 8008c8a:	4981      	ldr	r1, [pc, #516]	(8008e90 <HardFault_Handler+0x208>)
 8008c8c:	9100      	str	r1, [sp, #0]
 8008c8e:	9a00      	ldr	r2, [sp, #0]
 8008c90:	f102 0215 	add.w	r2, r2, #21	; 0x15
 8008c94:	9201      	str	r2, [sp, #4]
 8008c96:	e00e      	b.n	8008cb6 <HardFault_Handler+0x2e>
 8008c98:	4a7e      	ldr	r2, [pc, #504]	(8008e94 <HardFault_Handler+0x20c>)
 8008c9a:	9900      	ldr	r1, [sp, #0]
 8008c9c:	780b      	ldrb	r3, [r1, #0]
 8008c9e:	8093      	strh	r3, [r2, #4]
 8008ca0:	4b7c      	ldr	r3, [pc, #496]	(8008e94 <HardFault_Handler+0x20c>)
 8008ca2:	881b      	ldrh	r3, [r3, #0]
 8008ca4:	b29b      	uxth	r3, r3
 8008ca6:	f003 0380 	and.w	r3, r3, #128	; 0x80
 8008caa:	2b00      	cmp	r3, #0
 8008cac:	d0f8      	beq.n	8008ca0 <HardFault_Handler+0x18>
 8008cae:	9a00      	ldr	r2, [sp, #0]
 8008cb0:	f102 0201 	add.w	r2, r2, #1	; 0x1
 8008cb4:	9200      	str	r2, [sp, #0]
 8008cb6:	9b00      	ldr	r3, [sp, #0]
 8008cb8:	9901      	ldr	r1, [sp, #4]
 8008cba:	428b      	cmp	r3, r1
 8008cbc:	d3ec      	bcc.n	8008c98 <HardFault_Handler+0x10>
 8008cbe:	f10d 020b 	add.w	r2, sp, #11	; 0xb
 8008cc2:	9200      	str	r2, [sp, #0]
 8008cc4:	4973      	ldr	r1, [pc, #460]	(8008e94 <HardFault_Handler+0x20c>)
 8008cc6:	9b00      	ldr	r3, [sp, #0]
 8008cc8:	ea4f 7213 	mov.w	r2, r3, lsr #28
 8008ccc:	4b72      	ldr	r3, [pc, #456]	(8008e98 <HardFault_Handler+0x210>)
 8008cce:	5c9b      	ldrb	r3, [r3, r2]
 8008cd0:	808b      	strh	r3, [r1, #4]
 8008cd2:	4b70      	ldr	r3, [pc, #448]	(8008e94 <HardFault_Handler+0x20c>)
 8008cd4:	881b      	ldrh	r3, [r3, #0]
 8008cd6:	b29b      	uxth	r3, r3
 8008cd8:	f003 0380 	and.w	r3, r3, #128	; 0x80
 8008cdc:	2b00      	cmp	r3, #0
 8008cde:	d0f8      	beq.n	8008cd2 <HardFault_Handler+0x4a>
 8008ce0:	496c      	ldr	r1, [pc, #432]	(8008e94 <HardFault_Handler+0x20c>)
 8008ce2:	9b00      	ldr	r3, [sp, #0]
 8008ce4:	f003 6370 	and.w	r3, r3, #251658240	; 0xf000000
 8008ce8:	ea4f 6213 	mov.w	r2, r3, lsr #24
 8008cec:	4b6a      	ldr	r3, [pc, #424]	(8008e98 <HardFault_Handler+0x210>)
 8008cee:	5c9b      	ldrb	r3, [r3, r2]
 8008cf0:	808b      	strh	r3, [r1, #4]
 8008cf2:	4b68      	ldr	r3, [pc, #416]	(8008e94 <HardFault_Handler+0x20c>)
 8008cf4:	881b      	ldrh	r3, [r3, #0]
 8008cf6:	b29b      	uxth	r3, r3
 8008cf8:	f003 0380 	and.w	r3, r3, #128	; 0x80
 8008cfc:	2b00      	cmp	r3, #0
 8008cfe:	d0f8      	beq.n	8008cf2 <HardFault_Handler+0x6a>
 8008d00:	4964      	ldr	r1, [pc, #400]	(8008e94 <HardFault_Handler+0x20c>)
 8008d02:	9b00      	ldr	r3, [sp, #0]
 8008d04:	f403 0370 	and.w	r3, r3, #15728640	; 0xf00000
 8008d08:	ea4f 5213 	mov.w	r2, r3, lsr #20
 8008d0c:	4b62      	ldr	r3, [pc, #392]	(8008e98 <HardFault_Handler+0x210>)
 8008d0e:	5c9b      	ldrb	r3, [r3, r2]
 8008d10:	808b      	strh	r3, [r1, #4]
 8008d12:	4b60      	ldr	r3, [pc, #384]	(8008e94 <HardFault_Handler+0x20c>)
 8008d14:	881b      	ldrh	r3, [r3, #0]
 8008d16:	b29b      	uxth	r3, r3
 8008d18:	f003 0380 	and.w	r3, r3, #128	; 0x80
 8008d1c:	2b00      	cmp	r3, #0
 8008d1e:	d0f8      	beq.n	8008d12 <HardFault_Handler+0x8a>
 8008d20:	495c      	ldr	r1, [pc, #368]	(8008e94 <HardFault_Handler+0x20c>)
 8008d22:	9b00      	ldr	r3, [sp, #0]
 8008d24:	f403 2370 	and.w	r3, r3, #983040	; 0xf0000
 8008d28:	ea4f 4213 	mov.w	r2, r3, lsr #16
 8008d2c:	4b5a      	ldr	r3, [pc, #360]	(8008e98 <HardFault_Handler+0x210>)
 8008d2e:	5c9b      	ldrb	r3, [r3, r2]
 8008d30:	808b      	strh	r3, [r1, #4]
 8008d32:	4b58      	ldr	r3, [pc, #352]	(8008e94 <HardFault_Handler+0x20c>)
 8008d34:	881b      	ldrh	r3, [r3, #0]
 8008d36:	b29b      	uxth	r3, r3
 8008d38:	f003 0380 	and.w	r3, r3, #128	; 0x80
 8008d3c:	2b00      	cmp	r3, #0
 8008d3e:	d0f8      	beq.n	8008d32 <HardFault_Handler+0xaa>
 8008d40:	4954      	ldr	r1, [pc, #336]	(8008e94 <HardFault_Handler+0x20c>)
 8008d42:	9b00      	ldr	r3, [sp, #0]
 8008d44:	f403 4370 	and.w	r3, r3, #61440	; 0xf000
 8008d48:	ea4f 3213 	mov.w	r2, r3, lsr #12
 8008d4c:	4b52      	ldr	r3, [pc, #328]	(8008e98 <HardFault_Handler+0x210>)
 8008d4e:	5c9b      	ldrb	r3, [r3, r2]
 8008d50:	808b      	strh	r3, [r1, #4]
 8008d52:	4b50      	ldr	r3, [pc, #320]	(8008e94 <HardFault_Handler+0x20c>)
 8008d54:	881b      	ldrh	r3, [r3, #0]
 8008d56:	b29b      	uxth	r3, r3
 8008d58:	f003 0380 	and.w	r3, r3, #128	; 0x80
 8008d5c:	2b00      	cmp	r3, #0
 8008d5e:	d0f8      	beq.n	8008d52 <HardFault_Handler+0xca>
 8008d60:	494c      	ldr	r1, [pc, #304]	(8008e94 <HardFault_Handler+0x20c>)
 8008d62:	9b00      	ldr	r3, [sp, #0]
 8008d64:	f403 6370 	and.w	r3, r3, #3840	; 0xf00
 8008d68:	ea4f 2213 	mov.w	r2, r3, lsr #8
 8008d6c:	4b4a      	ldr	r3, [pc, #296]	(8008e98 <HardFault_Handler+0x210>)
 8008d6e:	5c9b      	ldrb	r3, [r3, r2]
 8008d70:	808b      	strh	r3, [r1, #4]
 8008d72:	4b48      	ldr	r3, [pc, #288]	(8008e94 <HardFault_Handler+0x20c>)
 8008d74:	881b      	ldrh	r3, [r3, #0]
 8008d76:	b29b      	uxth	r3, r3
 8008d78:	f003 0380 	and.w	r3, r3, #128	; 0x80
 8008d7c:	2b00      	cmp	r3, #0
 8008d7e:	d0f8      	beq.n	8008d72 <HardFault_Handler+0xea>
 8008d80:	4944      	ldr	r1, [pc, #272]	(8008e94 <HardFault_Handler+0x20c>)
 8008d82:	9b00      	ldr	r3, [sp, #0]
 8008d84:	f003 03f0 	and.w	r3, r3, #240	; 0xf0
 8008d88:	ea4f 1213 	mov.w	r2, r3, lsr #4
 8008d8c:	4b42      	ldr	r3, [pc, #264]	(8008e98 <HardFault_Handler+0x210>)
 8008d8e:	5c9b      	ldrb	r3, [r3, r2]
 8008d90:	808b      	strh	r3, [r1, #4]
 8008d92:	4b40      	ldr	r3, [pc, #256]	(8008e94 <HardFault_Handler+0x20c>)
 8008d94:	881b      	ldrh	r3, [r3, #0]
 8008d96:	b29b      	uxth	r3, r3
 8008d98:	f003 0380 	and.w	r3, r3, #128	; 0x80
 8008d9c:	2b00      	cmp	r3, #0
 8008d9e:	d0f8      	beq.n	8008d92 <HardFault_Handler+0x10a>
 8008da0:	493c      	ldr	r1, [pc, #240]	(8008e94 <HardFault_Handler+0x20c>)
 8008da2:	9b00      	ldr	r3, [sp, #0]
 8008da4:	f003 020f 	and.w	r2, r3, #15	; 0xf
 8008da8:	4b3b      	ldr	r3, [pc, #236]	(8008e98 <HardFault_Handler+0x210>)
 8008daa:	5c9b      	ldrb	r3, [r3, r2]
 8008dac:	808b      	strh	r3, [r1, #4]
 8008dae:	4b39      	ldr	r3, [pc, #228]	(8008e94 <HardFault_Handler+0x20c>)
 8008db0:	881b      	ldrh	r3, [r3, #0]
 8008db2:	b29b      	uxth	r3, r3
 8008db4:	f003 0380 	and.w	r3, r3, #128	; 0x80
 8008db8:	2b00      	cmp	r3, #0
 8008dba:	d0f8      	beq.n	8008dae <HardFault_Handler+0x126>
 8008dbc:	4b35      	ldr	r3, [pc, #212]	(8008e94 <HardFault_Handler+0x20c>)
 8008dbe:	f04f 020d 	mov.w	r2, #13	; 0xd
 8008dc2:	809a      	strh	r2, [r3, #4]
 8008dc4:	4b33      	ldr	r3, [pc, #204]	(8008e94 <HardFault_Handler+0x20c>)
 8008dc6:	881b      	ldrh	r3, [r3, #0]
 8008dc8:	b29b      	uxth	r3, r3
 8008dca:	f003 0380 	and.w	r3, r3, #128	; 0x80
 8008dce:	2b00      	cmp	r3, #0
 8008dd0:	d0f8      	beq.n	8008dc4 <HardFault_Handler+0x13c>
 8008dd2:	4b30      	ldr	r3, [pc, #192]	(8008e94 <HardFault_Handler+0x20c>)
 8008dd4:	f04f 020a 	mov.w	r2, #10	; 0xa
 8008dd8:	809a      	strh	r2, [r3, #4]
 8008dda:	4b2e      	ldr	r3, [pc, #184]	(8008e94 <HardFault_Handler+0x20c>)
 8008ddc:	881b      	ldrh	r3, [r3, #0]
 8008dde:	b29b      	uxth	r3, r3
 8008de0:	f003 0380 	and.w	r3, r3, #128	; 0x80
 8008de4:	2b00      	cmp	r3, #0
 8008de6:	d0f8      	beq.n	8008dda <HardFault_Handler+0x152>
 8008de8:	f10d 030b 	add.w	r3, sp, #11	; 0xb
 8008dec:	f023 03ff 	bic.w	r3, r3, #255	; 0xff
 8008df0:	9300      	str	r3, [sp, #0]
 8008df2:	9b00      	ldr	r3, [sp, #0]
 8008df4:	f103 03ff 	add.w	r3, r3, #255	; 0xff
 8008df8:	9301      	str	r3, [sp, #4]
 8008dfa:	e044      	b.n	8008e86 <HardFault_Handler+0x1fe>
 8008dfc:	4b25      	ldr	r3, [pc, #148]	(8008e94 <HardFault_Handler+0x20c>)
 8008dfe:	f04f 0230 	mov.w	r2, #48	; 0x30
 8008e02:	809a      	strh	r2, [r3, #4]
 8008e04:	4b23      	ldr	r3, [pc, #140]	(8008e94 <HardFault_Handler+0x20c>)
 8008e06:	881b      	ldrh	r3, [r3, #0]
 8008e08:	b29b      	uxth	r3, r3
 8008e0a:	f003 0380 	and.w	r3, r3, #128	; 0x80
 8008e0e:	2b00      	cmp	r3, #0
 8008e10:	d0f8      	beq.n	8008e04 <HardFault_Handler+0x17c>
 8008e12:	4b20      	ldr	r3, [pc, #128]	(8008e94 <HardFault_Handler+0x20c>)
 8008e14:	f04f 0278 	mov.w	r2, #120	; 0x78
 8008e18:	809a      	strh	r2, [r3, #4]
 8008e1a:	4b1e      	ldr	r3, [pc, #120]	(8008e94 <HardFault_Handler+0x20c>)
 8008e1c:	881b      	ldrh	r3, [r3, #0]
 8008e1e:	b29b      	uxth	r3, r3
 8008e20:	f003 0380 	and.w	r3, r3, #128	; 0x80
 8008e24:	2b00      	cmp	r3, #0
 8008e26:	d0f8      	beq.n	8008e1a <HardFault_Handler+0x192>
 8008e28:	491a      	ldr	r1, [pc, #104]	(8008e94 <HardFault_Handler+0x20c>)
 8008e2a:	9a00      	ldr	r2, [sp, #0]
 8008e2c:	7813      	ldrb	r3, [r2, #0]
 8008e2e:	ea4f 1313 	mov.w	r3, r3, lsr #4
 8008e32:	b2db      	uxtb	r3, r3
 8008e34:	461a      	mov	r2, r3
 8008e36:	4b18      	ldr	r3, [pc, #96]	(8008e98 <HardFault_Handler+0x210>)
 8008e38:	5c9b      	ldrb	r3, [r3, r2]
 8008e3a:	808b      	strh	r3, [r1, #4]
 8008e3c:	4b15      	ldr	r3, [pc, #84]	(8008e94 <HardFault_Handler+0x20c>)
 8008e3e:	881b      	ldrh	r3, [r3, #0]
 8008e40:	b29b      	uxth	r3, r3
 8008e42:	f003 0380 	and.w	r3, r3, #128	; 0x80
 8008e46:	2b00      	cmp	r3, #0
 8008e48:	d0f8      	beq.n	8008e3c <HardFault_Handler+0x1b4>
 8008e4a:	4912      	ldr	r1, [pc, #72]	(8008e94 <HardFault_Handler+0x20c>)
 8008e4c:	9a00      	ldr	r2, [sp, #0]
 8008e4e:	7813      	ldrb	r3, [r2, #0]
 8008e50:	f003 020f 	and.w	r2, r3, #15	; 0xf
 8008e54:	4b10      	ldr	r3, [pc, #64]	(8008e98 <HardFault_Handler+0x210>)
 8008e56:	5c9b      	ldrb	r3, [r3, r2]
 8008e58:	808b      	strh	r3, [r1, #4]
 8008e5a:	4b0e      	ldr	r3, [pc, #56]	(8008e94 <HardFault_Handler+0x20c>)
 8008e5c:	881b      	ldrh	r3, [r3, #0]
 8008e5e:	b29b      	uxth	r3, r3
 8008e60:	f003 0380 	and.w	r3, r3, #128	; 0x80
 8008e64:	2b00      	cmp	r3, #0
 8008e66:	d0f8      	beq.n	8008e5a <HardFault_Handler+0x1d2>
 8008e68:	4b0a      	ldr	r3, [pc, #40]	(8008e94 <HardFault_Handler+0x20c>)
 8008e6a:	f04f 0220 	mov.w	r2, #32	; 0x20
 8008e6e:	809a      	strh	r2, [r3, #4]
 8008e70:	4b08      	ldr	r3, [pc, #32]	(8008e94 <HardFault_Handler+0x20c>)
 8008e72:	881b      	ldrh	r3, [r3, #0]
 8008e74:	b29b      	uxth	r3, r3
 8008e76:	f003 0380 	and.w	r3, r3, #128	; 0x80
 8008e7a:	2b00      	cmp	r3, #0
 8008e7c:	d0f8      	beq.n	8008e70 <HardFault_Handler+0x1e8>
 8008e7e:	9b00      	ldr	r3, [sp, #0]
 8008e80:	f103 0301 	add.w	r3, r3, #1	; 0x1
 8008e84:	9300      	str	r3, [sp, #0]
 8008e86:	9900      	ldr	r1, [sp, #0]
 8008e88:	9a01      	ldr	r2, [sp, #4]
 8008e8a:	4291      	cmp	r1, r2
 8008e8c:	d9b6      	bls.n	8008dfc <HardFault_Handler+0x174>
 8008e8e:	e7fe      	b.n	8008e8e <HardFault_Handler+0x206>
 8008e90:	08009330 	.word	0x08009330
 8008e94:	40013800 	.word	0x40013800
 8008e98:	0800931c 	.word	0x0800931c

08008e9c <MemManage_Handler>:
 8008e9c:	e7fe      	b.n	8008e9c <MemManage_Handler>
 8008e9e:	46c0      	nop			(mov r8, r8)

08008ea0 <BusFault_Handler>:
 8008ea0:	b083      	sub	sp, #12
 8008ea2:	4981      	ldr	r1, [pc, #516]	(80090a8 <BusFault_Handler+0x208>)
 8008ea4:	9100      	str	r1, [sp, #0]
 8008ea6:	9a00      	ldr	r2, [sp, #0]
 8008ea8:	f102 0215 	add.w	r2, r2, #21	; 0x15
 8008eac:	9201      	str	r2, [sp, #4]
 8008eae:	e00e      	b.n	8008ece <BusFault_Handler+0x2e>
 8008eb0:	4a7e      	ldr	r2, [pc, #504]	(80090ac <BusFault_Handler+0x20c>)
 8008eb2:	9900      	ldr	r1, [sp, #0]
 8008eb4:	780b      	ldrb	r3, [r1, #0]
 8008eb6:	8093      	strh	r3, [r2, #4]
 8008eb8:	4b7c      	ldr	r3, [pc, #496]	(80090ac <BusFault_Handler+0x20c>)
 8008eba:	881b      	ldrh	r3, [r3, #0]
 8008ebc:	b29b      	uxth	r3, r3
 8008ebe:	f003 0380 	and.w	r3, r3, #128	; 0x80
 8008ec2:	2b00      	cmp	r3, #0
 8008ec4:	d0f8      	beq.n	8008eb8 <BusFault_Handler+0x18>
 8008ec6:	9a00      	ldr	r2, [sp, #0]
 8008ec8:	f102 0201 	add.w	r2, r2, #1	; 0x1
 8008ecc:	9200      	str	r2, [sp, #0]
 8008ece:	9b00      	ldr	r3, [sp, #0]
 8008ed0:	9901      	ldr	r1, [sp, #4]
 8008ed2:	428b      	cmp	r3, r1
 8008ed4:	d3ec      	bcc.n	8008eb0 <BusFault_Handler+0x10>
 8008ed6:	f10d 020b 	add.w	r2, sp, #11	; 0xb
 8008eda:	9200      	str	r2, [sp, #0]
 8008edc:	4973      	ldr	r1, [pc, #460]	(80090ac <BusFault_Handler+0x20c>)
 8008ede:	9b00      	ldr	r3, [sp, #0]
 8008ee0:	ea4f 7213 	mov.w	r2, r3, lsr #28
 8008ee4:	4b72      	ldr	r3, [pc, #456]	(80090b0 <BusFault_Handler+0x210>)
 8008ee6:	5c9b      	ldrb	r3, [r3, r2]
 8008ee8:	808b      	strh	r3, [r1, #4]
 8008eea:	4b70      	ldr	r3, [pc, #448]	(80090ac <BusFault_Handler+0x20c>)
 8008eec:	881b      	ldrh	r3, [r3, #0]
 8008eee:	b29b      	uxth	r3, r3
 8008ef0:	f003 0380 	and.w	r3, r3, #128	; 0x80
 8008ef4:	2b00      	cmp	r3, #0
 8008ef6:	d0f8      	beq.n	8008eea <BusFault_Handler+0x4a>
 8008ef8:	496c      	ldr	r1, [pc, #432]	(80090ac <BusFault_Handler+0x20c>)
 8008efa:	9b00      	ldr	r3, [sp, #0]
 8008efc:	f003 6370 	and.w	r3, r3, #251658240	; 0xf000000
 8008f00:	ea4f 6213 	mov.w	r2, r3, lsr #24
 8008f04:	4b6a      	ldr	r3, [pc, #424]	(80090b0 <BusFault_Handler+0x210>)
 8008f06:	5c9b      	ldrb	r3, [r3, r2]
 8008f08:	808b      	strh	r3, [r1, #4]
 8008f0a:	4b68      	ldr	r3, [pc, #416]	(80090ac <BusFault_Handler+0x20c>)
 8008f0c:	881b      	ldrh	r3, [r3, #0]
 8008f0e:	b29b      	uxth	r3, r3
 8008f10:	f003 0380 	and.w	r3, r3, #128	; 0x80
 8008f14:	2b00      	cmp	r3, #0
 8008f16:	d0f8      	beq.n	8008f0a <BusFault_Handler+0x6a>
 8008f18:	4964      	ldr	r1, [pc, #400]	(80090ac <BusFault_Handler+0x20c>)
 8008f1a:	9b00      	ldr	r3, [sp, #0]
 8008f1c:	f403 0370 	and.w	r3, r3, #15728640	; 0xf00000
 8008f20:	ea4f 5213 	mov.w	r2, r3, lsr #20
 8008f24:	4b62      	ldr	r3, [pc, #392]	(80090b0 <BusFault_Handler+0x210>)
 8008f26:	5c9b      	ldrb	r3, [r3, r2]
 8008f28:	808b      	strh	r3, [r1, #4]
 8008f2a:	4b60      	ldr	r3, [pc, #384]	(80090ac <BusFault_Handler+0x20c>)
 8008f2c:	881b      	ldrh	r3, [r3, #0]
 8008f2e:	b29b      	uxth	r3, r3
 8008f30:	f003 0380 	and.w	r3, r3, #128	; 0x80
 8008f34:	2b00      	cmp	r3, #0
 8008f36:	d0f8      	beq.n	8008f2a <BusFault_Handler+0x8a>
 8008f38:	495c      	ldr	r1, [pc, #368]	(80090ac <BusFault_Handler+0x20c>)
 8008f3a:	9b00      	ldr	r3, [sp, #0]
 8008f3c:	f403 2370 	and.w	r3, r3, #983040	; 0xf0000
 8008f40:	ea4f 4213 	mov.w	r2, r3, lsr #16
 8008f44:	4b5a      	ldr	r3, [pc, #360]	(80090b0 <BusFault_Handler+0x210>)
 8008f46:	5c9b      	ldrb	r3, [r3, r2]
 8008f48:	808b      	strh	r3, [r1, #4]
 8008f4a:	4b58      	ldr	r3, [pc, #352]	(80090ac <BusFault_Handler+0x20c>)
 8008f4c:	881b      	ldrh	r3, [r3, #0]
 8008f4e:	b29b      	uxth	r3, r3
 8008f50:	f003 0380 	and.w	r3, r3, #128	; 0x80
 8008f54:	2b00      	cmp	r3, #0
 8008f56:	d0f8      	beq.n	8008f4a <BusFault_Handler+0xaa>
 8008f58:	4954      	ldr	r1, [pc, #336]	(80090ac <BusFault_Handler+0x20c>)
 8008f5a:	9b00      	ldr	r3, [sp, #0]
 8008f5c:	f403 4370 	and.w	r3, r3, #61440	; 0xf000
 8008f60:	ea4f 3213 	mov.w	r2, r3, lsr #12
 8008f64:	4b52      	ldr	r3, [pc, #328]	(80090b0 <BusFault_Handler+0x210>)
 8008f66:	5c9b      	ldrb	r3, [r3, r2]
 8008f68:	808b      	strh	r3, [r1, #4]
 8008f6a:	4b50      	ldr	r3, [pc, #320]	(80090ac <BusFault_Handler+0x20c>)
 8008f6c:	881b      	ldrh	r3, [r3, #0]
 8008f6e:	b29b      	uxth	r3, r3
 8008f70:	f003 0380 	and.w	r3, r3, #128	; 0x80
 8008f74:	2b00      	cmp	r3, #0
 8008f76:	d0f8      	beq.n	8008f6a <BusFault_Handler+0xca>
 8008f78:	494c      	ldr	r1, [pc, #304]	(80090ac <BusFault_Handler+0x20c>)
 8008f7a:	9b00      	ldr	r3, [sp, #0]
 8008f7c:	f403 6370 	and.w	r3, r3, #3840	; 0xf00
 8008f80:	ea4f 2213 	mov.w	r2, r3, lsr #8
 8008f84:	4b4a      	ldr	r3, [pc, #296]	(80090b0 <BusFault_Handler+0x210>)
 8008f86:	5c9b      	ldrb	r3, [r3, r2]
 8008f88:	808b      	strh	r3, [r1, #4]
 8008f8a:	4b48      	ldr	r3, [pc, #288]	(80090ac <BusFault_Handler+0x20c>)
 8008f8c:	881b      	ldrh	r3, [r3, #0]
 8008f8e:	b29b      	uxth	r3, r3
 8008f90:	f003 0380 	and.w	r3, r3, #128	; 0x80
 8008f94:	2b00      	cmp	r3, #0
 8008f96:	d0f8      	beq.n	8008f8a <BusFault_Handler+0xea>
 8008f98:	4944      	ldr	r1, [pc, #272]	(80090ac <BusFault_Handler+0x20c>)
 8008f9a:	9b00      	ldr	r3, [sp, #0]
 8008f9c:	f003 03f0 	and.w	r3, r3, #240	; 0xf0
 8008fa0:	ea4f 1213 	mov.w	r2, r3, lsr #4
 8008fa4:	4b42      	ldr	r3, [pc, #264]	(80090b0 <BusFault_Handler+0x210>)
 8008fa6:	5c9b      	ldrb	r3, [r3, r2]
 8008fa8:	808b      	strh	r3, [r1, #4]
 8008faa:	4b40      	ldr	r3, [pc, #256]	(80090ac <BusFault_Handler+0x20c>)
 8008fac:	881b      	ldrh	r3, [r3, #0]
 8008fae:	b29b      	uxth	r3, r3
 8008fb0:	f003 0380 	and.w	r3, r3, #128	; 0x80
 8008fb4:	2b00      	cmp	r3, #0
 8008fb6:	d0f8      	beq.n	8008faa <BusFault_Handler+0x10a>
 8008fb8:	493c      	ldr	r1, [pc, #240]	(80090ac <BusFault_Handler+0x20c>)
 8008fba:	9b00      	ldr	r3, [sp, #0]
 8008fbc:	f003 020f 	and.w	r2, r3, #15	; 0xf
 8008fc0:	4b3b      	ldr	r3, [pc, #236]	(80090b0 <BusFault_Handler+0x210>)
 8008fc2:	5c9b      	ldrb	r3, [r3, r2]
 8008fc4:	808b      	strh	r3, [r1, #4]
 8008fc6:	4b39      	ldr	r3, [pc, #228]	(80090ac <BusFault_Handler+0x20c>)
 8008fc8:	881b      	ldrh	r3, [r3, #0]
 8008fca:	b29b      	uxth	r3, r3
 8008fcc:	f003 0380 	and.w	r3, r3, #128	; 0x80
 8008fd0:	2b00      	cmp	r3, #0
 8008fd2:	d0f8      	beq.n	8008fc6 <BusFault_Handler+0x126>
 8008fd4:	4b35      	ldr	r3, [pc, #212]	(80090ac <BusFault_Handler+0x20c>)
 8008fd6:	f04f 020d 	mov.w	r2, #13	; 0xd
 8008fda:	809a      	strh	r2, [r3, #4]
 8008fdc:	4b33      	ldr	r3, [pc, #204]	(80090ac <BusFault_Handler+0x20c>)
 8008fde:	881b      	ldrh	r3, [r3, #0]
 8008fe0:	b29b      	uxth	r3, r3
 8008fe2:	f003 0380 	and.w	r3, r3, #128	; 0x80
 8008fe6:	2b00      	cmp	r3, #0
 8008fe8:	d0f8      	beq.n	8008fdc <BusFault_Handler+0x13c>
 8008fea:	4b30      	ldr	r3, [pc, #192]	(80090ac <BusFault_Handler+0x20c>)
 8008fec:	f04f 020a 	mov.w	r2, #10	; 0xa
 8008ff0:	809a      	strh	r2, [r3, #4]
 8008ff2:	4b2e      	ldr	r3, [pc, #184]	(80090ac <BusFault_Handler+0x20c>)
 8008ff4:	881b      	ldrh	r3, [r3, #0]
 8008ff6:	b29b      	uxth	r3, r3
 8008ff8:	f003 0380 	and.w	r3, r3, #128	; 0x80
 8008ffc:	2b00      	cmp	r3, #0
 8008ffe:	d0f8      	beq.n	8008ff2 <BusFault_Handler+0x152>
 8009000:	f10d 030b 	add.w	r3, sp, #11	; 0xb
 8009004:	f023 03ff 	bic.w	r3, r3, #255	; 0xff
 8009008:	9300      	str	r3, [sp, #0]
 800900a:	9b00      	ldr	r3, [sp, #0]
 800900c:	f103 03ff 	add.w	r3, r3, #255	; 0xff
 8009010:	9301      	str	r3, [sp, #4]
 8009012:	e044      	b.n	800909e <BusFault_Handler+0x1fe>
 8009014:	4b25      	ldr	r3, [pc, #148]	(80090ac <BusFault_Handler+0x20c>)
 8009016:	f04f 0230 	mov.w	r2, #48	; 0x30
 800901a:	809a      	strh	r2, [r3, #4]
 800901c:	4b23      	ldr	r3, [pc, #140]	(80090ac <BusFault_Handler+0x20c>)
 800901e:	881b      	ldrh	r3, [r3, #0]
 8009020:	b29b      	uxth	r3, r3
 8009022:	f003 0380 	and.w	r3, r3, #128	; 0x80
 8009026:	2b00      	cmp	r3, #0
 8009028:	d0f8      	beq.n	800901c <BusFault_Handler+0x17c>
 800902a:	4b20      	ldr	r3, [pc, #128]	(80090ac <BusFault_Handler+0x20c>)
 800902c:	f04f 0278 	mov.w	r2, #120	; 0x78
 8009030:	809a      	strh	r2, [r3, #4]
 8009032:	4b1e      	ldr	r3, [pc, #120]	(80090ac <BusFault_Handler+0x20c>)
 8009034:	881b      	ldrh	r3, [r3, #0]
 8009036:	b29b      	uxth	r3, r3
 8009038:	f003 0380 	and.w	r3, r3, #128	; 0x80
 800903c:	2b00      	cmp	r3, #0
 800903e:	d0f8      	beq.n	8009032 <BusFault_Handler+0x192>
 8009040:	491a      	ldr	r1, [pc, #104]	(80090ac <BusFault_Handler+0x20c>)
 8009042:	9a00      	ldr	r2, [sp, #0]
 8009044:	7813      	ldrb	r3, [r2, #0]
 8009046:	ea4f 1313 	mov.w	r3, r3, lsr #4
 800904a:	b2db      	uxtb	r3, r3
 800904c:	461a      	mov	r2, r3
 800904e:	4b18      	ldr	r3, [pc, #96]	(80090b0 <BusFault_Handler+0x210>)
 8009050:	5c9b      	ldrb	r3, [r3, r2]
 8009052:	808b      	strh	r3, [r1, #4]
 8009054:	4b15      	ldr	r3, [pc, #84]	(80090ac <BusFault_Handler+0x20c>)
 8009056:	881b      	ldrh	r3, [r3, #0]
 8009058:	b29b      	uxth	r3, r3
 800905a:	f003 0380 	and.w	r3, r3, #128	; 0x80
 800905e:	2b00      	cmp	r3, #0
 8009060:	d0f8      	beq.n	8009054 <BusFault_Handler+0x1b4>
 8009062:	4912      	ldr	r1, [pc, #72]	(80090ac <BusFault_Handler+0x20c>)
 8009064:	9a00      	ldr	r2, [sp, #0]
 8009066:	7813      	ldrb	r3, [r2, #0]
 8009068:	f003 020f 	and.w	r2, r3, #15	; 0xf
 800906c:	4b10      	ldr	r3, [pc, #64]	(80090b0 <BusFault_Handler+0x210>)
 800906e:	5c9b      	ldrb	r3, [r3, r2]
 8009070:	808b      	strh	r3, [r1, #4]
 8009072:	4b0e      	ldr	r3, [pc, #56]	(80090ac <BusFault_Handler+0x20c>)
 8009074:	881b      	ldrh	r3, [r3, #0]
 8009076:	b29b      	uxth	r3, r3
 8009078:	f003 0380 	and.w	r3, r3, #128	; 0x80
 800907c:	2b00      	cmp	r3, #0
 800907e:	d0f8      	beq.n	8009072 <BusFault_Handler+0x1d2>
 8009080:	4b0a      	ldr	r3, [pc, #40]	(80090ac <BusFault_Handler+0x20c>)
 8009082:	f04f 0220 	mov.w	r2, #32	; 0x20
 8009086:	809a      	strh	r2, [r3, #4]
 8009088:	4b08      	ldr	r3, [pc, #32]	(80090ac <BusFault_Handler+0x20c>)
 800908a:	881b      	ldrh	r3, [r3, #0]
 800908c:	b29b      	uxth	r3, r3
 800908e:	f003 0380 	and.w	r3, r3, #128	; 0x80
 8009092:	2b00      	cmp	r3, #0
 8009094:	d0f8      	beq.n	8009088 <BusFault_Handler+0x1e8>
 8009096:	9b00      	ldr	r3, [sp, #0]
 8009098:	f103 0301 	add.w	r3, r3, #1	; 0x1
 800909c:	9300      	str	r3, [sp, #0]
 800909e:	9900      	ldr	r1, [sp, #0]
 80090a0:	9a01      	ldr	r2, [sp, #4]
 80090a2:	4291      	cmp	r1, r2
 80090a4:	d9b6      	bls.n	8009014 <BusFault_Handler+0x174>
 80090a6:	e7fe      	b.n	80090a6 <BusFault_Handler+0x206>
 80090a8:	08009348 	.word	0x08009348
 80090ac:	40013800 	.word	0x40013800
 80090b0:	0800931c 	.word	0x0800931c

080090b4 <UsageFault_Handler>:
 80090b4:	e7fe      	b.n	80090b4 <UsageFault_Handler>
 80090b6:	46c0      	nop			(mov r8, r8)

080090b8 <SVC_Handler>:
 80090b8:	4770      	bx	lr
 80090ba:	46c0      	nop			(mov r8, r8)

080090bc <DebugMon_Handler>:
 80090bc:	4770      	bx	lr
 80090be:	46c0      	nop			(mov r8, r8)

080090c0 <PendSV_Handler>:
 80090c0:	4770      	bx	lr
 80090c2:	46c0      	nop			(mov r8, r8)

080090c4 <SysTick_Handler>:
 80090c4:	b500      	push	{lr}
 80090c6:	f7f7 fc2d 	bl	8000924 <tick_increment>
 80090ca:	bd00      	pop	{pc}

080090cc <DMA1_Channel1_IRQHandler>:
 80090cc:	b500      	push	{lr}
 80090ce:	f04f 0002 	mov.w	r0, #2	; 0x2
 80090d2:	f7fe ff79 	bl	8007fc8 <DMA_ClearFlag>
 80090d6:	bd00      	pop	{pc}

080090d8 <USART1_IRQHandler>:
 80090d8:	b500      	push	{lr}
 80090da:	f7f8 fbeb 	bl	80018b4 <USART1_Istr>
 80090de:	bd00      	pop	{pc}

080090e0 <RTC_IRQHandler>:
 80090e0:	b500      	push	{lr}
 80090e2:	b082      	sub	sp, #8
 80090e4:	f04f 0008 	mov.w	r0, #8	; 0x8
 80090e8:	f7fa fb1c 	bl	8003724 <BKP_ReadBackupRegister>
 80090ec:	4603      	mov	r3, r0
 80090ee:	f88d 3000 	strb.w	r3, [sp]
 80090f2:	f04f 000c 	mov.w	r0, #12	; 0xc
 80090f6:	f7fa fb15 	bl	8003724 <BKP_ReadBackupRegister>
 80090fa:	4603      	mov	r3, r0
 80090fc:	f88d 3001 	strb.w	r3, [sp, #1]
 8009100:	f04f 0010 	mov.w	r0, #16	; 0x10
 8009104:	f7fa fb0e 	bl	8003724 <BKP_ReadBackupRegister>
 8009108:	4603      	mov	r3, r0
 800910a:	f8ad 3002 	strh.w	r3, [sp, #2]
 800910e:	f04f 0003 	mov.w	r0, #3	; 0x3
 8009112:	f000 f817 	bl	8009144 <NVIC_ClearPendingIRQ>
 8009116:	f04f 0002 	mov.w	r0, #2	; 0x2
 800911a:	f7ff fd9d 	bl	8008c58 <RTC_ClearITPendingBit>
 800911e:	f7f7 fc0b 	bl	8000938 <get_sec_counter>
 8009122:	4603      	mov	r3, r0
 8009124:	f103 0301 	add.w	r3, r3, #1	; 0x1
 8009128:	9301      	str	r3, [sp, #4]
 800912a:	9801      	ldr	r0, [sp, #4]
 800912c:	f7f7 fc0a 	bl	8000944 <set_sec_counter>
 8009130:	f04f 0000 	mov.w	r0, #0	; 0x0
 8009134:	f7ff fcb0 	bl	8008a98 <RTC_SetCounter>
 8009138:	f04f 0001 	mov.w	r0, #1	; 0x1
 800913c:	f7ff fcda 	bl	8008af4 <RTC_SetAlarm>
 8009140:	b002      	add	sp, #8
 8009142:	bd00      	pop	{pc}

08009144 <NVIC_ClearPendingIRQ>:
 8009144:	b081      	sub	sp, #4
 8009146:	9000      	str	r0, [sp, #0]
 8009148:	4908      	ldr	r1, [pc, #32]	(800916c <NVIC_ClearPendingIRQ+0x28>)
 800914a:	9b00      	ldr	r3, [sp, #0]
 800914c:	ea4f 1053 	mov.w	r0, r3, lsr #5
 8009150:	9b00      	ldr	r3, [sp, #0]
 8009152:	f003 021f 	and.w	r2, r3, #31	; 0x1f
 8009156:	f04f 0301 	mov.w	r3, #1	; 0x1
 800915a:	fa03 f302 	lsl.w	r3, r3, r2
 800915e:	461a      	mov	r2, r3
 8009160:	f100 0360 	add.w	r3, r0, #96	; 0x60
 8009164:	f841 2023 	str.w	r2, [r1, r3, lsl #2]
 8009168:	b001      	add	sp, #4
 800916a:	4770      	bx	lr
 800916c:	e000e100 	.word	0xe000e100
 8009170:	6c756e28 	.word	0x6c756e28
 8009174:	0000296c 	.word	0x0000296c
 8009178:	000a7325 	.word	0x000a7325
 800917c:	00006325 	.word	0x00006325
 8009180:	334d5453 	.word	0x334d5453
 8009184:	524e2032 	.word	0x524e2032
 8009188:	4553534f 	.word	0x4553534f
 800918c:	28204f52 	.word	0x28204f52
 8009190:	32202943 	.word	0x32202943
 8009194:	00313130 	.word	0x00313130
 8009198:	73756f42 	.word	0x73756f42
 800919c:	656c6f73 	.word	0x656c6f73
 80091a0:	72655620 	.word	0x72655620
 80091a4:	6e6f6973 	.word	0x6e6f6973
 80091a8:	2e642520 	.word	0x2e642520
 80091ac:	2f206425 	.word	0x2f206425
 80091b0:	20732520 	.word	0x20732520
 80091b4:	73252040 	.word	0x73252040
 80091b8:	0000000a 	.word	0x0000000a
 80091bc:	206c754a 	.word	0x206c754a
 80091c0:	32203232 	.word	0x32203232
 80091c4:	00313130 	.word	0x00313130
 80091c8:	313a3631 	.word	0x313a3631
 80091cc:	35333a35 	.word	0x35333a35
 80091d0:	00000000 	.word	0x00000000
 80091d4:	69726553 	.word	0x69726553
 80091d8:	4e206c61 	.word	0x4e206c61
 80091dc:	65626d75 	.word	0x65626d75
 80091e0:	25203a72 	.word	0x25203a72
 80091e4:	2d783830 	.word	0x2d783830
 80091e8:	78383025 	.word	0x78383025
 80091ec:	3830252d 	.word	0x3830252d
 80091f0:	00000a78 	.word	0x00000a78
 80091f4:	000a6425 	.word	0x000a6425
 80091f8:	006e614a 	.word	0x006e614a
 80091fc:	00626546 	.word	0x00626546
 8009200:	0072614d 	.word	0x0072614d
 8009204:	00727041 	.word	0x00727041
 8009208:	0079614d 	.word	0x0079614d
 800920c:	006e754a 	.word	0x006e754a
 8009210:	006c754a 	.word	0x006c754a
 8009214:	00677541 	.word	0x00677541
 8009218:	00706553 	.word	0x00706553
 800921c:	0074634f 	.word	0x0074634f
 8009220:	00766f4e 	.word	0x00766f4e
 8009224:	00636544 	.word	0x00636544

08009228 <CalibrationPpm>:
 8009228:	03020100 07060504 0a0a0908 0e0d0c0b     ................
 8009238:	1211100f 16151413 1a191817 1e1d1c1b     ................
 8009248:	21201f1f 25242322 29282726 2d2c2b2a     .. !"#$%&'()*+,-
 8009258:	31302f2e 34333332 38373635 3c3b3a39     ./01233456789:;<
 8009268:	403f3e3d 44434241 48474645 4b4a4948     =>?@ABCDEFGHHIJK
 8009278:	4f4e4d4c 53525150 57565554 5b5a5958     LMNOPQRSTUVWXYZ[
 8009288:	5e5d5d5c 6261605f 66656463 6a696867     \]]^_`abcdefghij
 8009298:	6e6d6c6b 7171706f 75747372 79787776     klmnopqqrstuvwxy
 80092a8:	20746553 61666564 20746c75 74746573     Set default sett
 80092b8:	73676e69 002e2e2e 4f434e49 43455252     ings....INCORREC
 80092c8:	49542054 2e2e454d 0000002e 4f434e49     T TIME......INCO
 80092d8:	43455252 41442054 2e2e4554 0000002e     RRECT DATE......

080092e8 <SystemFrequency>:
 80092e8:	044aa200                                ..J.

080092ec <SystemFrequency_SysClk>:
 80092ec:	044aa200                                ..J.

080092f0 <SystemFrequency_AHBClk>:
 80092f0:	044aa200                                ..J.

080092f4 <SystemFrequency_APB1Clk>:
 80092f4:	02255100                                .Q%.

080092f8 <SystemFrequency_APB2Clk>:
 80092f8:	044aa200 00006b4f 6c696146 00000000     ..J.Ok..Fail....
 8009308:	74736554 70656520 3a6d6f72 0a732520     Test eeprom: %s.
 8009318:	00000000                                ....

0800931c <HEXCONV>:
 800931c:	33323130 37363534 62613938 66656463     0123456789abcdef
 800932c:	00000000                                ....

08009330 <HARDFAULT>:
 8009330:	64726148 6c756146 53203a74 6b636174     HardFault: Stack
 8009340:	30204020 00000078                        @ 0x...

08009348 <BUSFAULT>:
 8009348:	46737542 746c7561 7453203a 206b6361     BusFault: Stack 
 8009358:	78302040 00000000                       @ 0x....
